In archive libtinygltf.a:

tiny_gltf.cc.o:     file format elf64-x86-64

SYMBOL TABLE:
0000000000000000 l    df *ABS*	0000000000000000 tiny_gltf.cc
0000000000000000 l    d  .text	0000000000000000 .text
0000000000000000 l    d  .data	0000000000000000 .data
0000000000000000 l    d  .bss	0000000000000000 .bss
0000000000000000 l    d  .text._ZSt23__is_constant_evaluatedv	0000000000000000 .text._ZSt23__is_constant_evaluatedv
0000000000000000 l    d  .rodata	0000000000000000 .rodata
0000000000000000 l     O .rodata	0000000000000001 _ZStL19piecewise_construct
0000000000000000 l    d  .text._ZSt17__size_to_integerm	0000000000000000 .text._ZSt17__size_to_integerm
0000000000000000 l    d  .text._ZSt5frexpfPi	0000000000000000 .text._ZSt5frexpfPi
0000000000000000 l    d  .text._ZSt5ldexpfi	0000000000000000 .text._ZSt5ldexpfi
0000000000000000 l    d  .text._ZSt3powff	0000000000000000 .text._ZSt3powff
0000000000000000 l    d  .text._ZSt8isfinited	0000000000000000 .text._ZSt8isfinited
0000000000000000 l    d  .text._ZSt7signbitd	0000000000000000 .text._ZSt7signbitd
0000000000000000 l    d  .text._ZNSt14numeric_limitsIjE3maxEv	0000000000000000 .text._ZNSt14numeric_limitsIjE3maxEv
0000000000000000 l    d  .text._ZNSt14numeric_limitsIlE3minEv	0000000000000000 .text._ZNSt14numeric_limitsIlE3minEv
0000000000000000 l    d  .text._ZNSt14numeric_limitsIlE3maxEv	0000000000000000 .text._ZNSt14numeric_limitsIlE3maxEv
0000000000000000 l    d  .text._ZNSt14numeric_limitsImE3maxEv	0000000000000000 .text._ZNSt14numeric_limitsImE3maxEv
0000000000000000 l    d  .text._ZNSt9exceptionC2Ev	0000000000000000 .text._ZNSt9exceptionC2Ev
0000000000000000 l    d  .text._ZnwmPv	0000000000000000 .text._ZnwmPv
0000000000000000 l    d  .text._ZdlPvS_	0000000000000000 .text._ZdlPvS_
0000000000000000 l    d  .text._ZNSt18_Rb_tree_node_base10_S_minimumEPS_	0000000000000000 .text._ZNSt18_Rb_tree_node_base10_S_minimumEPS_
0000000000000000 l    d  .text._ZNSt18_Rb_tree_node_base10_S_maximumEPS_	0000000000000000 .text._ZNSt18_Rb_tree_node_base10_S_maximumEPS_
0000000000000000 l    d  .text._ZNSt15_Rb_tree_headerC2Ev	0000000000000000 .text._ZNSt15_Rb_tree_headerC2Ev
0000000000000000 l    d  .text._ZNSt15_Rb_tree_headerC2EOS_	0000000000000000 .text._ZNSt15_Rb_tree_headerC2EOS_
0000000000000000 l    d  .gcc_except_table._ZNSt15_Rb_tree_headerC2EOS_	0000000000000000 .gcc_except_table._ZNSt15_Rb_tree_headerC2EOS_
0000000000000000 l    d  .text._ZNSt15_Rb_tree_header12_M_move_dataERS_	0000000000000000 .text._ZNSt15_Rb_tree_header12_M_move_dataERS_
0000000000000000 l    d  .text._ZNSt15_Rb_tree_header8_M_resetEv	0000000000000000 .text._ZNSt15_Rb_tree_header8_M_resetEv
0000000000000000 l    d  .text._ZNKSt17integral_constantIbLb1EEcvbEv	0000000000000000 .text._ZNKSt17integral_constantIbLb1EEcvbEv
0000000000000001 l     O .rodata	0000000000000001 _ZStL13allocator_arg
0000000000000002 l     O .rodata	0000000000000001 _ZStL6ignore
0000000000000000 l    d  .text._ZNSt11char_traitsIcE7compareEPKcS2_m	0000000000000000 .text._ZNSt11char_traitsIcE7compareEPKcS2_m
0000000000000000 l    d  .text._ZNSt11char_traitsIcE6lengthEPKc	0000000000000000 .text._ZNSt11char_traitsIcE6lengthEPKc
0000000000000000 l    d  .text._ZNSt11char_traitsIcE12to_char_typeERKi	0000000000000000 .text._ZNSt11char_traitsIcE12to_char_typeERKi
0000000000000000 l    d  .text._ZNSt11char_traitsIcE11to_int_typeERKc	0000000000000000 .text._ZNSt11char_traitsIcE11to_int_typeERKc
0000000000000000 l    d  .text._ZNSt11char_traitsIcE3eofEv	0000000000000000 .text._ZNSt11char_traitsIcE3eofEv
0000000000000000 l    d  .text._ZNSt7__cxx119to_stringEi	0000000000000000 .text._ZNSt7__cxx119to_stringEi
0000000000000000 l    d  .gcc_except_table._ZNSt7__cxx119to_stringEi	0000000000000000 .gcc_except_table._ZNSt7__cxx119to_stringEi
0000000000000000 l    d  .text._ZNSt7__cxx119to_stringEm	0000000000000000 .text._ZNSt7__cxx119to_stringEm
0000000000000000 l    d  .gcc_except_table._ZNSt7__cxx119to_stringEm	0000000000000000 .gcc_except_table._ZNSt7__cxx119to_stringEm
0000000000000000 l    d  .text._ZNSt7__cxx119to_stringEy	0000000000000000 .text._ZNSt7__cxx119to_stringEy
0000000000000000 l    d  .gcc_except_table._ZNSt7__cxx119to_stringEy	0000000000000000 .gcc_except_table._ZNSt7__cxx119to_stringEy
0000000000000000 l    d  .text._ZNSt14_Bit_referenceC2EPmm	0000000000000000 .text._ZNSt14_Bit_referenceC2EPmm
0000000000000000 l    d  .text._ZNKSt14_Bit_referencecvbEv	0000000000000000 .text._ZNKSt14_Bit_referencecvbEv
0000000000000000 l    d  .text._ZNSt14_Bit_referenceaSEb	0000000000000000 .text._ZNSt14_Bit_referenceaSEb
0000000000000000 l    d  .text._ZNSt14_Bit_referenceaSERKS_	0000000000000000 .text._ZNSt14_Bit_referenceaSERKS_
0000000000000000 l    d  .text._ZNSt18_Bit_iterator_baseC2EPmj	0000000000000000 .text._ZNSt18_Bit_iterator_baseC2EPmj
0000000000000000 l    d  .text._ZNSt18_Bit_iterator_base10_M_bump_upEv	0000000000000000 .text._ZNSt18_Bit_iterator_base10_M_bump_upEv
0000000000000000 l    d  .text._ZNSt18_Bit_iterator_base12_M_bump_downEv	0000000000000000 .text._ZNSt18_Bit_iterator_base12_M_bump_downEv
0000000000000000 l    d  .text._ZNSt18_Bit_iterator_base7_M_incrEl	0000000000000000 .text._ZNSt18_Bit_iterator_base7_M_incrEl
0000000000000000 l    d  .text._ZSteqRKSt18_Bit_iterator_baseS1_	0000000000000000 .text._ZSteqRKSt18_Bit_iterator_baseS1_
0000000000000000 l    d  .text._ZStmiRKSt18_Bit_iterator_baseS1_	0000000000000000 .text._ZStmiRKSt18_Bit_iterator_baseS1_
0000000000000000 l    d  .text._ZNSt13_Bit_iteratorC2Ev	0000000000000000 .text._ZNSt13_Bit_iteratorC2Ev
0000000000000000 l    d  .text._ZNSt13_Bit_iteratorC2EPmj	0000000000000000 .text._ZNSt13_Bit_iteratorC2EPmj
0000000000000000 l    d  .text._ZNKSt13_Bit_iteratordeEv	0000000000000000 .text._ZNKSt13_Bit_iteratordeEv
0000000000000000 l    d  .text._ZNSt13_Bit_iteratorppEv	0000000000000000 .text._ZNSt13_Bit_iteratorppEv
0000000000000000 l    d  .text._ZNSt13_Bit_iteratorppEi	0000000000000000 .text._ZNSt13_Bit_iteratorppEi
0000000000000000 l    d  .text._ZNSt13_Bit_iteratormmEv	0000000000000000 .text._ZNSt13_Bit_iteratormmEv
0000000000000000 l    d  .text._ZNSt13_Bit_iteratorpLEl	0000000000000000 .text._ZNSt13_Bit_iteratorpLEl
0000000000000000 l    d  .text._ZNSt13_Bit_iteratormIEl	0000000000000000 .text._ZNSt13_Bit_iteratormIEl
0000000000000000 l    d  .text._ZStplRKSt13_Bit_iteratorl	0000000000000000 .text._ZStplRKSt13_Bit_iteratorl
0000000000000000 l    d  .text._ZStmiRKSt13_Bit_iteratorl	0000000000000000 .text._ZStmiRKSt13_Bit_iteratorl
0000000000000000 l    d  .text._ZNSt19_Bit_const_iteratorC2EPmj	0000000000000000 .text._ZNSt19_Bit_const_iteratorC2EPmj
0000000000000000 l    d  .text._ZNSt19_Bit_const_iteratorC2ERKSt13_Bit_iterator	0000000000000000 .text._ZNSt19_Bit_const_iteratorC2ERKSt13_Bit_iterator
0000000000000000 l    d  .text._ZNKSt19_Bit_const_iteratordeEv	0000000000000000 .text._ZNKSt19_Bit_const_iteratordeEv
0000000000000000 l    d  .text._ZNSt19_Bit_const_iteratorppEv	0000000000000000 .text._ZNSt19_Bit_const_iteratorppEv
0000000000000000 l    d  .text._ZNSt12_Vector_baseIhSaIhEE12_Vector_implD2Ev	0000000000000000 .text._ZNSt12_Vector_baseIhSaIhEE12_Vector_implD2Ev
0000000000000000 l    d  .text._ZNSt12_Vector_baseIhSaIhEEC2Ev	0000000000000000 .text._ZNSt12_Vector_baseIhSaIhEEC2Ev
0000000000000000 l    d  .text._ZNSt6vectorIhSaIhEEC2Ev	0000000000000000 .text._ZNSt6vectorIhSaIhEEC2Ev
0000000000000000 l    d  .text._ZNSt12_Vector_baseIN8tinygltf5ValueESaIS1_EE12_Vector_implD2Ev	0000000000000000 .text._ZNSt12_Vector_baseIN8tinygltf5ValueESaIS1_EE12_Vector_implD2Ev
0000000000000000 l    d  .text._ZNSt12_Vector_baseIN8tinygltf5ValueESaIS1_EEC2Ev	0000000000000000 .text._ZNSt12_Vector_baseIN8tinygltf5ValueESaIS1_EEC2Ev
0000000000000000 l    d  .text._ZNSt6vectorIN8tinygltf5ValueESaIS1_EEC2Ev	0000000000000000 .text._ZNSt6vectorIN8tinygltf5ValueESaIS1_EEC2Ev
0000000000000000 l    d  .text._ZNSt8_Rb_treeINSt7__cxx1112basic_stringIcSt11char_traitsIcESaIcEEESt4pairIKS5_N8tinygltf5ValueEESt10_Select1stISA_ESt4lessIS5_ESaISA_EE13_Rb_tree_implISE_Lb1EED2Ev	0000000000000000 .text._ZNSt8_Rb_treeINSt7__cxx1112basic_stringIcSt11char_traitsIcESaIcEEESt4pairIKS5_N8tinygltf5ValueEESt10_Select1stISA_ESt4lessIS5_ESaISA_EE13_Rb_tree_implISE_Lb1EED2Ev
0000000000000000 l    d  .text._ZNSt8_Rb_treeINSt7__cxx1112basic_stringIcSt11char_traitsIcESaIcEEESt4pairIKS5_N8tinygltf5ValueEESt10_Select1stISA_ESt4lessIS5_ESaISA_EEC2Ev	0000000000000000 .text._ZNSt8_Rb_treeINSt7__cxx1112basic_stringIcSt11char_traitsIcESaIcEEESt4pairIKS5_N8tinygltf5ValueEESt10_Select1stISA_ESt4lessIS5_ESaISA_EEC2Ev
0000000000000000 l    d  .text._ZNSt3mapINSt7__cxx1112basic_stringIcSt11char_traitsIcESaIcEEEN8tinygltf5ValueESt4lessIS5_ESaISt4pairIKS5_S7_EEEC2Ev	0000000000000000 .text._ZNSt3mapINSt7__cxx1112basic_stringIcSt11char_traitsIcESaIcEEEN8tinygltf5ValueESt4lessIS5_ESaISt4pairIKS5_S7_EEEC2Ev
0000000000000000 l    d  .text._ZNSt3mapINSt7__cxx1112basic_stringIcSt11char_traitsIcESaIcEEEN8tinygltf5ValueESt4lessIS5_ESaISt4pairIKS5_S7_EEED2Ev	0000000000000000 .text._ZNSt3mapINSt7__cxx1112basic_stringIcSt11char_traitsIcESaIcEEEN8tinygltf5ValueESt4lessIS5_ESaISt4pairIKS5_S7_EEED2Ev
0000000000000000 l    d  .text._ZN8tinygltf5ValueC2Eb	0000000000000000 .text._ZN8tinygltf5ValueC2Eb
0000000000000000 l    d  .text._ZN8tinygltf5ValueC2Ei	0000000000000000 .text._ZN8tinygltf5ValueC2Ei
0000000000000000 l    d  .text._ZN8tinygltf5ValueC2Ed	0000000000000000 .text._ZN8tinygltf5ValueC2Ed
0000000000000000 l    d  .text._ZN8tinygltf5ValueC2EONSt7__cxx1112basic_stringIcSt11char_traitsIcESaIcEEE	0000000000000000 .text._ZN8tinygltf5ValueC2EONSt7__cxx1112basic_stringIcSt11char_traitsIcESaIcEEE
0000000000000000 l    d  .text._ZNSt12_Vector_baseIhSaIhEEC2EOS1_	0000000000000000 .text._ZNSt12_Vector_baseIhSaIhEEC2EOS1_
0000000000000000 l    d  .text._ZNSt6vectorIhSaIhEEC2EOS1_	0000000000000000 .text._ZNSt6vectorIhSaIhEEC2EOS1_
0000000000000000 l    d  .text._ZNSt12_Vector_baseIN8tinygltf5ValueESaIS1_EEC2EOS3_	0000000000000000 .text._ZNSt12_Vector_baseIN8tinygltf5ValueESaIS1_EEC2EOS3_
0000000000000000 l    d  .text._ZNSt6vectorIN8tinygltf5ValueESaIS1_EEC2EOS3_	0000000000000000 .text._ZNSt6vectorIN8tinygltf5ValueESaIS1_EEC2EOS3_
0000000000000000 l    d  .text._ZN8tinygltf5ValueC2EOSt6vectorIS0_SaIS0_EE	0000000000000000 .text._ZN8tinygltf5ValueC2EOSt6vectorIS0_SaIS0_EE
0000000000000000 l    d  .text._ZNSt8_Rb_treeINSt7__cxx1112basic_stringIcSt11char_traitsIcESaIcEEESt4pairIKS5_N8tinygltf5ValueEESt10_Select1stISA_ESt4lessIS5_ESaISA_EE13_Rb_tree_implISE_Lb1EEC2EOSI_	0000000000000000 .text._ZNSt8_Rb_treeINSt7__cxx1112basic_stringIcSt11char_traitsIcESaIcEEESt4pairIKS5_N8tinygltf5ValueEESt10_Select1stISA_ESt4lessIS5_ESaISA_EE13_Rb_tree_implISE_Lb1EEC2EOSI_
0000000000000000 l    d  .text._ZNSt8_Rb_treeINSt7__cxx1112basic_stringIcSt11char_traitsIcESaIcEEESt4pairIKS5_N8tinygltf5ValueEESt10_Select1stISA_ESt4lessIS5_ESaISA_EEC2EOSG_	0000000000000000 .text._ZNSt8_Rb_treeINSt7__cxx1112basic_stringIcSt11char_traitsIcESaIcEEESt4pairIKS5_N8tinygltf5ValueEESt10_Select1stISA_ESt4lessIS5_ESaISA_EEC2EOSG_
0000000000000000 l    d  .text._ZNSt3mapINSt7__cxx1112basic_stringIcSt11char_traitsIcESaIcEEEN8tinygltf5ValueESt4lessIS5_ESaISt4pairIKS5_S7_EEEC2EOSE_	0000000000000000 .text._ZNSt3mapINSt7__cxx1112basic_stringIcSt11char_traitsIcESaIcEEEN8tinygltf5ValueESt4lessIS5_ESaISt4pairIKS5_S7_EEEC2EOSE_
0000000000000000 l    d  .text._ZN8tinygltf5ValueC2EOSt3mapINSt7__cxx1112basic_stringIcSt11char_traitsIcESaIcEEES0_St4lessIS7_ESaISt4pairIKS7_S0_EEE	0000000000000000 .text._ZN8tinygltf5ValueC2EOSt3mapINSt7__cxx1112basic_stringIcSt11char_traitsIcESaIcEEES0_St4lessIS7_ESaISt4pairIKS7_S0_EEE
0000000000000000 l    d  .text._ZNK8tinygltf5Value4TypeEv	0000000000000000 .text._ZNK8tinygltf5Value4TypeEv
0000000000000000 l    d  .text._ZNK8tinygltf5Value7IsArrayEv	0000000000000000 .text._ZNK8tinygltf5Value7IsArrayEv
0000000000000000 l    d  .text._ZNK8tinygltf5Value8IsObjectEv	0000000000000000 .text._ZNK8tinygltf5Value8IsObjectEv
0000000000000000 l    d  .text._ZNK8tinygltf5Value14GetNumberAsIntEv	0000000000000000 .text._ZNK8tinygltf5Value14GetNumberAsIntEv
0000000000000000 l    d  .text._ZN8tinygltf5ValueC2Ev	0000000000000000 .text._ZN8tinygltf5ValueC2Ev
0000000000000000 l    d  .text._ZN8tinygltf5ValueD2Ev	0000000000000000 .text._ZN8tinygltf5ValueD2Ev
0000000000000000 l    d  .text._ZNK8tinygltf5Value3GetEi	0000000000000000 .text._ZNK8tinygltf5Value3GetEi
0000000000000000 l    d  .text._ZNK8tinygltf5Value3GetERKNSt7__cxx1112basic_stringIcSt11char_traitsIcESaIcEEE	0000000000000000 .text._ZNK8tinygltf5Value3GetERKNSt7__cxx1112basic_stringIcSt11char_traitsIcESaIcEEE
0000000000000000 l    d  .text._ZNK8tinygltf5Value8ArrayLenEv	0000000000000000 .text._ZNK8tinygltf5Value8ArrayLenEv
0000000000000000 l    d  .text._ZNK8tinygltf5Value3HasERKNSt7__cxx1112basic_stringIcSt11char_traitsIcESaIcEEE	0000000000000000 .text._ZNK8tinygltf5Value3HasERKNSt7__cxx1112basic_stringIcSt11char_traitsIcESaIcEEE
0000000000000000 l    d  .text._ZNSt12_Vector_baseINSt7__cxx1112basic_stringIcSt11char_traitsIcESaIcEEESaIS5_EE12_Vector_implD2Ev	0000000000000000 .text._ZNSt12_Vector_baseINSt7__cxx1112basic_stringIcSt11char_traitsIcESaIcEEESaIS5_EE12_Vector_implD2Ev
0000000000000000 l    d  .text._ZNSt12_Vector_baseINSt7__cxx1112basic_stringIcSt11char_traitsIcESaIcEEESaIS5_EEC2Ev	0000000000000000 .text._ZNSt12_Vector_baseINSt7__cxx1112basic_stringIcSt11char_traitsIcESaIcEEESaIS5_EEC2Ev
0000000000000000 l    d  .text._ZNSt6vectorINSt7__cxx1112basic_stringIcSt11char_traitsIcESaIcEEESaIS5_EEC2Ev	0000000000000000 .text._ZNSt6vectorINSt7__cxx1112basic_stringIcSt11char_traitsIcESaIcEEESaIS5_EEC2Ev
0000000000000000 l    d  .text._ZNK8tinygltf5Value4KeysB5cxx11Ev	0000000000000000 .text._ZNK8tinygltf5Value4KeysB5cxx11Ev
0000000000000000 l    d  .gcc_except_table._ZNK8tinygltf5Value4KeysB5cxx11Ev	0000000000000000 .gcc_except_table._ZNK8tinygltf5Value4KeysB5cxx11Ev
0000000000000000 l    d  .text._ZNK8tinygltf5Value4SizeEv	0000000000000000 .text._ZNK8tinygltf5Value4SizeEv
0000000000000000 l    d  .gcc_except_table._ZNK8tinygltf5Value4SizeEv	0000000000000000 .gcc_except_table._ZNK8tinygltf5Value4SizeEv
0000000000000000 l    d  .text._ZNK8tinygltf5Value3GetIbEERKT_v	0000000000000000 .text._ZNK8tinygltf5Value3GetIbEERKT_v
0000000000000000 l    d  .text._ZNK8tinygltf5Value3GetIdEERKT_v	0000000000000000 .text._ZNK8tinygltf5Value3GetIdEERKT_v
0000000000000000 l    d  .text._ZNK8tinygltf5Value3GetIiEERKT_v	0000000000000000 .text._ZNK8tinygltf5Value3GetIiEERKT_v
0000000000000000 l    d  .text._ZNK8tinygltf5Value3GetINSt7__cxx1112basic_stringIcSt11char_traitsIcESaIcEEEEERKT_v	0000000000000000 .text._ZNK8tinygltf5Value3GetINSt7__cxx1112basic_stringIcSt11char_traitsIcESaIcEEEEERKT_v
0000000000000000 l    d  .text._ZNK8tinygltf5Value3GetISt6vectorIhSaIhEEEERKT_v	0000000000000000 .text._ZNK8tinygltf5Value3GetISt6vectorIhSaIhEEEERKT_v
0000000000000000 l    d  .text._ZNK8tinygltf5Value3GetISt3mapINSt7__cxx1112basic_stringIcSt11char_traitsIcESaIcEEES0_St4lessIS8_ESaISt4pairIKS8_S0_EEEEERKT_v	0000000000000000 .text._ZNK8tinygltf5Value3GetISt3mapINSt7__cxx1112basic_stringIcSt11char_traitsIcESaIcEEES0_St4lessIS8_ESaISt4pairIKS8_S0_EEEEERKT_v
0000000000000000 l    d  .text._ZN8tinygltf16AnimationSamplerC2Ev	0000000000000000 .text._ZN8tinygltf16AnimationSamplerC2Ev
0000000000000000 l    d  .gcc_except_table._ZN8tinygltf16AnimationSamplerC2Ev	0000000000000000 .gcc_except_table._ZN8tinygltf16AnimationSamplerC2Ev
0000000000000000 l    d  .text._ZNSt12_Vector_baseIdSaIdEE12_Vector_implD2Ev	0000000000000000 .text._ZNSt12_Vector_baseIdSaIdEE12_Vector_implD2Ev
0000000000000000 l    d  .text._ZNSt12_Vector_baseIdSaIdEEC2EOS1_	0000000000000000 .text._ZNSt12_Vector_baseIdSaIdEEC2EOS1_
0000000000000000 l    d  .text._ZNSt6vectorIdSaIdEEC2EOS1_	0000000000000000 .text._ZNSt6vectorIdSaIdEEC2EOS1_
0000000000000000 l    d  .text._ZN8tinygltf11TextureInfoC2Ev	0000000000000000 .text._ZN8tinygltf11TextureInfoC2Ev
0000000000000000 l    d  .text._ZN8tinygltf11TextureInfoD2Ev	0000000000000000 .text._ZN8tinygltf11TextureInfoD2Ev
0000000000000000 l    d  .text._ZN8tinygltf20PbrMetallicRoughnessC2Ev	0000000000000000 .text._ZN8tinygltf20PbrMetallicRoughnessC2Ev
0000000000000000 l    d  .gcc_except_table._ZN8tinygltf20PbrMetallicRoughnessC2Ev	0000000000000000 .gcc_except_table._ZN8tinygltf20PbrMetallicRoughnessC2Ev
0000000000000000 l    d  .text._ZNSt12_Vector_baseIdSaIdEEC2Ev	0000000000000000 .text._ZNSt12_Vector_baseIdSaIdEEC2Ev
0000000000000000 l    d  .text._ZNSt6vectorIdSaIdEEC2Ev	0000000000000000 .text._ZNSt6vectorIdSaIdEEC2Ev
0000000000000000 l    d  .text._ZN8tinygltf20PbrMetallicRoughnessD2Ev	0000000000000000 .text._ZN8tinygltf20PbrMetallicRoughnessD2Ev
0000000000000000 l    d  .text._ZN8tinygltf17NormalTextureInfoC2Ev	0000000000000000 .text._ZN8tinygltf17NormalTextureInfoC2Ev
0000000000000000 l    d  .text._ZN8tinygltf17NormalTextureInfoD2Ev	0000000000000000 .text._ZN8tinygltf17NormalTextureInfoD2Ev
0000000000000000 l    d  .text._ZN8tinygltf20OcclusionTextureInfoC2Ev	0000000000000000 .text._ZN8tinygltf20OcclusionTextureInfoC2Ev
0000000000000000 l    d  .text._ZN8tinygltf20OcclusionTextureInfoD2Ev	0000000000000000 .text._ZN8tinygltf20OcclusionTextureInfoD2Ev
0000000000000000 l    d  .text._ZNSt8_Rb_treeINSt7__cxx1112basic_stringIcSt11char_traitsIcESaIcEEESt4pairIKS5_N8tinygltf9ParameterEESt10_Select1stISA_ESt4lessIS5_ESaISA_EE13_Rb_tree_implISE_Lb1EED2Ev	0000000000000000 .text._ZNSt8_Rb_treeINSt7__cxx1112basic_stringIcSt11char_traitsIcESaIcEEESt4pairIKS5_N8tinygltf9ParameterEESt10_Select1stISA_ESt4lessIS5_ESaISA_EE13_Rb_tree_implISE_Lb1EED2Ev
0000000000000000 l    d  .text._ZNSt8_Rb_treeINSt7__cxx1112basic_stringIcSt11char_traitsIcESaIcEEESt4pairIKS5_N8tinygltf9ParameterEESt10_Select1stISA_ESt4lessIS5_ESaISA_EEC2Ev	0000000000000000 .text._ZNSt8_Rb_treeINSt7__cxx1112basic_stringIcSt11char_traitsIcESaIcEEESt4pairIKS5_N8tinygltf9ParameterEESt10_Select1stISA_ESt4lessIS5_ESaISA_EEC2Ev
0000000000000000 l    d  .text._ZNSt3mapINSt7__cxx1112basic_stringIcSt11char_traitsIcESaIcEEEN8tinygltf9ParameterESt4lessIS5_ESaISt4pairIKS5_S7_EEEC2Ev	0000000000000000 .text._ZNSt3mapINSt7__cxx1112basic_stringIcSt11char_traitsIcESaIcEEEN8tinygltf9ParameterESt4lessIS5_ESaISt4pairIKS5_S7_EEEC2Ev
0000000000000000 l    d  .text._ZNSt3mapINSt7__cxx1112basic_stringIcSt11char_traitsIcESaIcEEEN8tinygltf9ParameterESt4lessIS5_ESaISt4pairIKS5_S7_EEED2Ev	0000000000000000 .text._ZNSt3mapINSt7__cxx1112basic_stringIcSt11char_traitsIcESaIcEEEN8tinygltf9ParameterESt4lessIS5_ESaISt4pairIKS5_S7_EEED2Ev
0000000000000000 l    d  .text._ZN8tinygltf8MaterialC2Ev	0000000000000000 .text._ZN8tinygltf8MaterialC2Ev
0000000000000000 l    d  .gcc_except_table._ZN8tinygltf8MaterialC2Ev	0000000000000000 .gcc_except_table._ZN8tinygltf8MaterialC2Ev
0000000000000000 l    d  .text._ZN8tinygltf8Accessor6SparseUt_C2Ev	0000000000000000 .text._ZN8tinygltf8Accessor6SparseUt_C2Ev
0000000000000000 l    d  .text._ZN8tinygltf8Accessor6SparseUt_D2Ev	0000000000000000 .text._ZN8tinygltf8Accessor6SparseUt_D2Ev
0000000000000000 l    d  .text._ZN8tinygltf8Accessor6SparseUt0_C2Ev	0000000000000000 .text._ZN8tinygltf8Accessor6SparseUt0_C2Ev
0000000000000000 l    d  .text._ZN8tinygltf8Accessor6SparseUt0_D2Ev	0000000000000000 .text._ZN8tinygltf8Accessor6SparseUt0_D2Ev
0000000000000000 l    d  .text._ZN8tinygltf8Accessor6SparseC2Ev	0000000000000000 .text._ZN8tinygltf8Accessor6SparseC2Ev
0000000000000000 l    d  .text._ZN8tinygltf8Accessor6SparseD2Ev	0000000000000000 .text._ZN8tinygltf8Accessor6SparseD2Ev
0000000000000000 l    d  .text._ZN8tinygltf8AccessorC2Ev	0000000000000000 .text._ZN8tinygltf8AccessorC2Ev
0000000000000000 l    d  .text._ZN8tinygltf17PositionalEmitterC2Ev	0000000000000000 .text._ZN8tinygltf17PositionalEmitterC2Ev
0000000000000000 l    d  .text._ZN8tinygltf17PositionalEmitterD2Ev	0000000000000000 .text._ZN8tinygltf17PositionalEmitterD2Ev
0000000000000000 l    d  .text._ZN8tinygltf12AudioEmitterC2Ev	0000000000000000 .text._ZN8tinygltf12AudioEmitterC2Ev
0000000000000000 l    d  .gcc_except_table._ZN8tinygltf12AudioEmitterC2Ev	0000000000000000 .gcc_except_table._ZN8tinygltf12AudioEmitterC2Ev
0000000000000000 l    d  .text._ZNKSt9type_info4nameEv	0000000000000000 .text._ZNKSt9type_info4nameEv
0000000000000000 l    d  .text._ZNKSt9type_infoeqERKS_	0000000000000000 .text._ZNKSt9type_infoeqERKS_
0000000000000000 l    d  .text._ZNSt14_Function_baseD2Ev	0000000000000000 .text._ZNSt14_Function_baseD2Ev
0000000000000000 l    d  .gcc_except_table._ZNSt14_Function_baseD2Ev	0000000000000000 .gcc_except_table._ZNSt14_Function_baseD2Ev
0000000000000000 l    d  .text._ZNKSt14_Function_base8_M_emptyEv	0000000000000000 .text._ZNKSt14_Function_base8_M_emptyEv
00000000000000f0 l     O .rodata	0000000000000004 _ZN9__gnu_cxxL21__default_lock_policyE
0000000000000000 l    d  .text._ZNSt9exceptionC2ERKS_	0000000000000000 .text._ZNSt9exceptionC2ERKS_
0000000000000000 l    d  .text._ZNSt16_Sp_counted_baseILN9__gnu_cxx12_Lock_policyE2EE10_M_releaseEv	0000000000000000 .text._ZNSt16_Sp_counted_baseILN9__gnu_cxx12_Lock_policyE2EE10_M_releaseEv
0000000000000000 l    d  .text._ZNSt19_Sp_make_shared_tag5_S_tiEv	0000000000000000 .text._ZNSt19_Sp_make_shared_tag5_S_tiEv
0000000000000000 l    d  .text._ZN8nlohmann6detail17replace_substringERNSt7__cxx1112basic_stringIcSt11char_traitsIcESaIcEEERKS6_S9_	0000000000000000 .text._ZN8nlohmann6detail17replace_substringERNSt7__cxx1112basic_stringIcSt11char_traitsIcESaIcEEERKS6_S9_
0000000000000000 l     F .text	0000000000000216 _ZN8nlohmann6detailL8unescapeERNSt7__cxx1112basic_stringIcSt11char_traitsIcESaIcEEE
0000000000000000 l    d  .gcc_except_table	0000000000000000 .gcc_except_table
0000000000000000 l    d  .text._ZNK8nlohmann6detail10position_tcvmEv	0000000000000000 .text._ZNK8nlohmann6detail10position_tcvmEv
0000000000000000 l    d  .text._ZNK8nlohmann6detail9exception4whatEv	0000000000000000 .text._ZNK8nlohmann6detail9exception4whatEv
0000000000000000 l    d  .text._ZN8nlohmann6detail9exceptionC2EiPKc	0000000000000000 .text._ZN8nlohmann6detail9exceptionC2EiPKc
0000000000000000 l    d  .text._ZN8nlohmann6detail9exception4nameERKNSt7__cxx1112basic_stringIcSt11char_traitsIcESaIcEEEi	0000000000000000 .text._ZN8nlohmann6detail9exception4nameERKNSt7__cxx1112basic_stringIcSt11char_traitsIcESaIcEEEi
0000000000000000 l    d  .text._ZN8nlohmann6detail9exceptionD2Ev	0000000000000000 .text._ZN8nlohmann6detail9exceptionD2Ev
0000000000000000 l    d  .text._ZN8nlohmann6detail9exceptionD0Ev	0000000000000000 .text._ZN8nlohmann6detail9exceptionD0Ev
0000000000000000 l    d  .text._ZN8nlohmann6detail11parse_errorC2EimPKc	0000000000000000 .text._ZN8nlohmann6detail11parse_errorC2EimPKc
0000000000000000 l    d  .text._ZN8nlohmann6detail11parse_error15position_stringB5cxx11ERKNS0_10position_tE	0000000000000000 .text._ZN8nlohmann6detail11parse_error15position_stringB5cxx11ERKNS0_10position_tE
0000000000000000 l    d  .text._ZN8nlohmann6detail16invalid_iteratorC2EiPKc	0000000000000000 .text._ZN8nlohmann6detail16invalid_iteratorC2EiPKc
0000000000000000 l    d  .text._ZN8nlohmann6detail10type_errorC2EiPKc	0000000000000000 .text._ZN8nlohmann6detail10type_errorC2EiPKc
0000000000000000 l    d  .text._ZN8nlohmann6detail12out_of_rangeC2EiPKc	0000000000000000 .text._ZN8nlohmann6detail12out_of_rangeC2EiPKc
0000000000000000 l    d  .text._ZN8nlohmann6detail11other_errorC2EiPKc	0000000000000000 .text._ZN8nlohmann6detail11other_errorC2EiPKc
0000000000000000 l     O .data.rel.ro.local	0000000000000008 _ZN8nlohmann12_GLOBAL__N_19from_jsonE
0000000000000008 l     O .data.rel.ro.local	0000000000000008 _ZN8nlohmann12_GLOBAL__N_17to_jsonE
0000000000000000 l    d  .text._ZN8nlohmann6detail20primitive_iterator_t9set_beginEv	0000000000000000 .text._ZN8nlohmann6detail20primitive_iterator_t9set_beginEv
0000000000000000 l    d  .text._ZN8nlohmann6detail20primitive_iterator_t7set_endEv	0000000000000000 .text._ZN8nlohmann6detail20primitive_iterator_t7set_endEv
0000000000000000 l    d  .text._ZNK8nlohmann6detail20primitive_iterator_t8is_beginEv	0000000000000000 .text._ZNK8nlohmann6detail20primitive_iterator_t8is_beginEv
0000000000000000 l    d  .text._ZN8nlohmann6detaileqENS0_20primitive_iterator_tES1_	0000000000000000 .text._ZN8nlohmann6detaileqENS0_20primitive_iterator_tES1_
0000000000000000 l    d  .text._ZN8nlohmann6detail20primitive_iterator_tppEv	0000000000000000 .text._ZN8nlohmann6detail20primitive_iterator_tppEv
0000000000000000 l    d  .text._ZN8nlohmann6detail9dtoa_impl5diyfpC2Emi	0000000000000000 .text._ZN8nlohmann6detail9dtoa_impl5diyfpC2Emi
0000000000000000 l    d  .text._ZN8nlohmann6detail9dtoa_impl5diyfp3subERKS2_S4_	0000000000000000 .text._ZN8nlohmann6detail9dtoa_impl5diyfp3subERKS2_S4_
0000000000000000 l    d  .text._ZN8nlohmann6detail9dtoa_impl5diyfp3mulERKS2_S4_	0000000000000000 .text._ZN8nlohmann6detail9dtoa_impl5diyfp3mulERKS2_S4_
0000000000000000 l    d  .text._ZN8nlohmann6detail9dtoa_impl5diyfp9normalizeES2_	0000000000000000 .text._ZN8nlohmann6detail9dtoa_impl5diyfp9normalizeES2_
0000000000000000 l    d  .text._ZN8nlohmann6detail9dtoa_impl5diyfp12normalize_toERKS2_i	0000000000000000 .text._ZN8nlohmann6detail9dtoa_impl5diyfp12normalize_toERKS2_i
00000000000003c4 l     O .rodata	0000000000000004 _ZN8nlohmann6detail9dtoa_implL6kAlphaE
00000000000003c8 l     O .rodata	0000000000000004 _ZN8nlohmann6detail9dtoa_implL6kGammaE
0000000000000000 l    d  .text._ZN8nlohmann6detail9dtoa_impl36get_cached_power_for_binary_exponentEi	0000000000000000 .text._ZN8nlohmann6detail9dtoa_impl36get_cached_power_for_binary_exponentEi
0000000000000000 l    d  .text._ZN8nlohmann6detail9dtoa_impl18find_largest_pow10EjRj	0000000000000000 .text._ZN8nlohmann6detail9dtoa_impl18find_largest_pow10EjRj
0000000000000000 l    d  .text._ZN8nlohmann6detail9dtoa_impl12grisu2_roundEPcimmmm	0000000000000000 .text._ZN8nlohmann6detail9dtoa_impl12grisu2_roundEPcimmmm
0000000000000000 l    d  .text._ZN8nlohmann6detail9dtoa_impl16grisu2_digit_genEPcRiS3_NS1_5diyfpES4_S4_	0000000000000000 .text._ZN8nlohmann6detail9dtoa_impl16grisu2_digit_genEPcRiS3_NS1_5diyfpES4_S4_
0000000000000000 l    d  .text._ZN8nlohmann6detail9dtoa_impl6grisu2EPcRiS3_NS1_5diyfpES4_S4_	0000000000000000 .text._ZN8nlohmann6detail9dtoa_impl6grisu2EPcRiS3_NS1_5diyfpES4_S4_
0000000000000000 l    d  .text._ZN8nlohmann6detail9dtoa_impl15append_exponentEPci	0000000000000000 .text._ZN8nlohmann6detail9dtoa_impl15append_exponentEPci
0000000000000000 l    d  .text._ZN8nlohmann6detail9dtoa_impl13format_bufferEPciiii	0000000000000000 .text._ZN8nlohmann6detail9dtoa_impl13format_bufferEPciiii
0000000000000000 l    d  .text._ZNKSt5arrayIhLm400EEixEm	0000000000000000 .text._ZNKSt5arrayIhLm400EEixEm
0000000000000000 l    d  .text._ZNSt8functionIFbiN8nlohmann6detail13parse_event_tERNS0_10basic_jsonISt3mapSt6vectorNSt7__cxx1112basic_stringIcSt11char_traitsIcESaIcEEEblmdSaNS0_14adl_serializerES5_IhSaIhEEEEEED2Ev	0000000000000000 .text._ZNSt8functionIFbiN8nlohmann6detail13parse_event_tERNS0_10basic_jsonISt3mapSt6vectorNSt7__cxx1112basic_stringIcSt11char_traitsIcESaIcEEEblmdSaNS0_14adl_serializerES5_IhSaIhEEEEEED2Ev
0000000000000216 l     F .text	000000000000000b _ZL20stbi__sse2_availablev
0000000000000221 l     F .text	000000000000008a _ZL15stbi__start_memP13stbi__contextPKhi
00000000000002ab l     F .text	00000000000000b1 _ZL21stbi__start_callbacksP13stbi__contextP17stbi_io_callbacksPv
0000000000001b79 l     F .text	00000000000000e0 _ZL19stbi__refill_bufferP13stbi__context
000000000000035c l     F .text	0000000000000030 _ZL16stbi__stdio_readPvPci
000000000000038c l     F .text	0000000000000052 _ZL16stbi__stdio_skipPvi
00000000000003de l     F .text	000000000000003d _ZL15stbi__stdio_eofPv
0000000000000000 l    d  .data.rel.local	0000000000000000 .data.rel.local
0000000000000000 l     O .data.rel.local	0000000000000018 _ZL21stbi__stdio_callbacks
000000000000041b l     F .text	000000000000002d _ZL16stbi__start_fileP13stbi__contextP8_IO_FILE
0000000000000448 l     F .text	0000000000000037 _ZL12stbi__rewindP13stbi__context
0000000000000000 l       .tbss	0000000000000008 _ZL22stbi__g_failure_reason
000000000000048e l     F .text	000000000000001c _ZL9stbi__errPKc
00000000000004aa l     F .text	000000000000001a _ZL12stbi__mallocm
00000000000004c4 l     F .text	000000000000002a _ZL20stbi__addsizes_validii
00000000000004ee l     F .text	000000000000003e _ZL21stbi__mul2sizes_validii
000000000000052c l     F .text	000000000000004c _ZL21stbi__mad2sizes_validiii
0000000000000578 l     F .text	000000000000006a _ZL21stbi__mad3sizes_validiiii
00000000000005e2 l     F .text	000000000000008d _ZL21stbi__mad4sizes_validiiiii
000000000000066f l     F .text	000000000000004e _ZL17stbi__malloc_mad2iii
00000000000006bd l     F .text	0000000000000056 _ZL17stbi__malloc_mad3iiii
0000000000000713 l     F .text	0000000000000064 _ZL17stbi__malloc_mad4iiiii
0000000000000777 l     F .text	000000000000004d _ZL19stbi__addints_validii
00000000000007c4 l     F .text	0000000000000087 _ZL22stbi__mul2shorts_validss
0000000000000000 l     O .bss	0000000000000004 _ZL36stbi__vertically_flip_on_load_global
0000000000000008 l       .tbss	0000000000000004 _ZL35stbi__vertically_flip_on_load_local
000000000000000c l       .tbss	0000000000000004 _ZL33stbi__vertically_flip_on_load_set
000000000000089a l     F .text	00000000000002d0 _ZL15stbi__load_mainP13stbi__contextPiS1_S1_iP17stbi__result_infoi
00000000000130fb l     F .text	000000000000002c _ZL14stbi__png_testP13stbi__context
00000000000130ac l     F .text	000000000000004f _ZL14stbi__png_loadP13stbi__contextPiS1_S1_iP17stbi__result_info
0000000000013319 l     F .text	000000000000002c _ZL14stbi__bmp_testP13stbi__context
0000000000013a95 l     F .text	0000000000000eb8 _ZL14stbi__bmp_loadP13stbi__contextPiS1_S1_iP17stbi__result_info
0000000000016a6c l     F .text	000000000000002c _ZL14stbi__gif_testP13stbi__context
0000000000017f97 l     F .text	000000000000013e _ZL14stbi__gif_loadP13stbi__contextPiS1_S1_iP17stbi__result_info
00000000000156ea l     F .text	0000000000000037 _ZL14stbi__psd_testP13stbi__context
0000000000015818 l     F .text	00000000000008d6 _ZL14stbi__psd_loadP13stbi__contextPiS1_S1_iP17stbi__result_infoi
0000000000016995 l     F .text	000000000000002c _ZL14stbi__pic_testP13stbi__context
000000000001677f l     F .text	0000000000000216 _ZL14stbi__pic_loadP13stbi__contextPiS1_S1_iP17stbi__result_info
000000000000e8d1 l     F .text	0000000000000090 _ZL15stbi__jpeg_testP13stbi__context
000000000000e825 l     F .text	00000000000000ac _ZL15stbi__jpeg_loadP13stbi__contextPiS1_S1_iP17stbi__result_info
000000000001936d l     F .text	0000000000000056 _ZL14stbi__pnm_testP13stbi__context
00000000000193c3 l     F .text	0000000000000287 _ZL14stbi__pnm_loadP13stbi__contextPiS1_S1_iP17stbi__result_info
000000000001817d l     F .text	0000000000000061 _ZL14stbi__hdr_testP13stbi__context
0000000000018488 l     F .text	0000000000000760 _ZL14stbi__hdr_loadP13stbi__contextPiS1_S1_iP17stbi__result_info
0000000000002d14 l     F .text	000000000000022a _ZL16stbi__hdr_to_ldrPfiii
0000000000014c56 l     F .text	0000000000000184 _ZL14stbi__tga_testP13stbi__context
0000000000014eb5 l     F .text	0000000000000835 _ZL14stbi__tga_loadP13stbi__contextPiS1_S1_iP17stbi__result_info
0000000000000b6a l     F .text	00000000000000a4 _ZL21stbi__convert_16_to_8Ptiii
0000000000000c0e l     F .text	00000000000000bd _ZL21stbi__convert_8_to_16Phiii
0000000000000ccb l     F .text	000000000000012e _ZL19stbi__vertical_flipPviii
0000000000000df9 l     F .text	0000000000000068 _ZL26stbi__vertical_flip_slicesPviiii
0000000000000e61 l     F .text	0000000000000128 _ZL31stbi__load_and_postprocess_8bitP13stbi__contextPiS1_S1_i
0000000000000f89 l     F .text	000000000000012e _ZL32stbi__load_and_postprocess_16bitP13stbi__contextPiS1_S1_i
00000000000010b7 l     F .text	000000000000007c _ZL23stbi__float_postprocessPfPiS0_S0_i
0000000000001133 l     F .text	000000000000002d _ZL11stbi__fopenPKcS0_
0000000000017bd5 l     F .text	00000000000003c2 _ZL19stbi__load_gif_mainP13stbi__contextPPiS1_S1_S1_S1_i
00000000000016be l     F .text	00000000000000ee _ZL16stbi__loadf_mainP13stbi__contextPiS1_S1_i
0000000000002b4e l     F .text	00000000000001c6 _ZL16stbi__ldr_to_hdrPhiii
0000000000000000 l     O .data	0000000000000004 _ZL15stbi__l2h_gamma
0000000000000004 l     O .data	0000000000000004 _ZL15stbi__l2h_scale
0000000000000008 l     O .data	0000000000000004 _ZL17stbi__h2l_gamma_i
000000000000000c l     O .data	0000000000000004 _ZL17stbi__h2l_scale_i
0000000000001c59 l     F .text	0000000000000083 _ZL10stbi__get8P13stbi__context
0000000000001cdc l     F .text	0000000000000071 _ZL12stbi__at_eofP13stbi__context
0000000000001d4d l     F .text	00000000000000c5 _ZL10stbi__skipP13stbi__contexti
0000000000001e12 l     F .text	0000000000000131 _ZL10stbi__getnP13stbi__contextPhi
0000000000001f43 l     F .text	000000000000003e _ZL13stbi__get16beP13stbi__context
0000000000001f81 l     F .text	0000000000000038 _ZL13stbi__get32beP13stbi__context
0000000000001fb9 l     F .text	0000000000000039 _ZL13stbi__get16leP13stbi__context
0000000000001ff2 l     F .text	0000000000000032 _ZL13stbi__get32leP13stbi__context
0000000000002024 l     F .text	000000000000002b _ZL15stbi__compute_yiii
000000000000204f l     F .text	0000000000000554 _ZL20stbi__convert_formatPhiijj
00000000000025a3 l     F .text	000000000000002b _ZL18stbi__compute_y_16iii
00000000000025ce l     F .text	0000000000000580 _ZL22stbi__convert_format16Ptiijj
0000000000002f3e l     F .text	0000000000000264 _ZL19stbi__build_huffmanP13stbi__huffmanPi
00000000000031a2 l     F .text	0000000000000153 _ZL19stbi__build_fast_acPsP13stbi__huffman
00000000000032f5 l     F .text	00000000000000f1 _ZL24stbi__grow_buffer_unsafeP10stbi__jpeg
0000000000000ac0 l     O .rodata	0000000000000044 _ZL11stbi__bmask
00000000000033e6 l     F .text	0000000000000293 _ZL22stbi__jpeg_huff_decodeP10stbi__jpegP13stbi__huffman
0000000000000ba0 l     O .rodata	0000000000000040 _ZL11stbi__jbias
0000000000003679 l     F .text	00000000000000ec _ZL20stbi__extend_receiveP10stbi__jpegi
0000000000003765 l     F .text	00000000000000b6 _ZL19stbi__jpeg_get_bitsP10stbi__jpegi
000000000000381b l     F .text	0000000000000080 _ZL18stbi__jpeg_get_bitP10stbi__jpeg
0000000000000be0 l     O .rodata	000000000000004f _ZL19stbi__jpeg_dezigzag
000000000000389b l     F .text	0000000000000383 _ZL23stbi__jpeg_decode_blockP10stbi__jpegPsP13stbi__huffmanS3_S1_iPt
0000000000003c1e l     F .text	0000000000000224 _ZL31stbi__jpeg_decode_block_prog_dcP10stbi__jpegPsP13stbi__huffmani
0000000000003e42 l     F .text	0000000000000585 _ZL31stbi__jpeg_decode_block_prog_acP10stbi__jpegPsP13stbi__huffmanS1_
00000000000043c7 l     F .text	0000000000000033 _ZL11stbi__clampi
00000000000043fa l     F .text	0000000000000719 _ZL16stbi__idct_blockPhiPs
0000000000004b13 l     F .text	0000000000004255 _ZL15stbi__idct_simdPhiPs
0000000000008d68 l     F .text	0000000000000077 _ZL16stbi__get_markerP10stbi__jpeg
0000000000008ddf l     F .text	00000000000000c1 _ZL16stbi__jpeg_resetP10stbi__jpeg
0000000000008ea0 l     F .text	0000000000000cc9 _ZL30stbi__parse_entropy_coded_dataP10stbi__jpeg
0000000000009b69 l     F .text	0000000000000063 _ZL21stbi__jpeg_dequantizePsPt
0000000000009bcc l     F .text	0000000000000211 _ZL17stbi__jpeg_finishP10stbi__jpeg
0000000000000c60 l     O .rodata	0000000000000005 _ZZL20stbi__process_markerP10stbi__jpegiE3tag
0000000000000c65 l     O .rodata	0000000000000006 _ZZL20stbi__process_markerP10stbi__jpegiE3tag_0
0000000000009ddd l     F .text	000000000000065c _ZL20stbi__process_markerP10stbi__jpegi
000000000000a439 l     F .text	000000000000037e _ZL25stbi__process_scan_headerP10stbi__jpeg
000000000000a7b7 l     F .text	00000000000001ef _ZL26stbi__free_jpeg_componentsP10stbi__jpegii
0000000000000d1c l     O .rodata	0000000000000003 _ZZL26stbi__process_frame_headerP10stbi__jpegiE3rgb
000000000000a9a6 l     F .text	0000000000000ba0 _ZL26stbi__process_frame_headerP10stbi__jpegi
000000000000b546 l     F .text	0000000000000163 _ZL24stbi__decode_jpeg_headerP10stbi__jpegi
000000000000b6a9 l     F .text	000000000000008a _ZL27stbi__skip_jpeg_junk_at_endP10stbi__jpeg
000000000000b733 l     F .text	0000000000000245 _ZL23stbi__decode_jpeg_imageP10stbi__jpeg
000000000000b978 l     F .text	000000000000001d _ZL14resample_row_1PhS_S_ii
000000000000b995 l     F .text	000000000000007a _ZL22stbi__resample_row_v_2PhS_S_ii
000000000000ba0f l     F .text	00000000000001ab _ZL22stbi__resample_row_h_2PhS_S_ii
000000000000bbba l     F .text	000000000000015d _ZL23stbi__resample_row_hv_2PhS_S_ii
000000000000bd17 l     F .text	000000000000087a _ZL28stbi__resample_row_hv_2_simdPhS_S_ii
000000000000c591 l     F .text	0000000000000072 _ZL26stbi__resample_row_genericPhS_S_ii
000000000000c603 l     F .text	0000000000000175 _ZL22stbi__YCbCr_to_RGB_rowPhPKhS1_S1_ii
000000000000c778 l     F .text	0000000000001201 _ZL23stbi__YCbCr_to_RGB_simdPhPKhS1_S1_ii
000000000000d979 l     F .text	0000000000000089 _ZL16stbi__setup_jpegP10stbi__jpeg
000000000000da02 l     F .text	000000000000002c _ZL18stbi__cleanup_jpegP10stbi__jpeg
000000000000da2e l     F .text	0000000000000031 _ZL15stbi__blinn_8x8hh
000000000000da5f l     F .text	0000000000000dc6 _ZL15load_jpeg_imageP10stbi__jpegPiS1_S1_i
000000000000e961 l     F .text	00000000000000a8 _ZL19stbi__jpeg_info_rawP10stbi__jpegPiS1_S1_
000000000000ea09 l     F .text	000000000000008b _ZL15stbi__jpeg_infoP13stbi__contextPiS1_S1_
000000000000ea94 l     F .text	0000000000000078 _ZL18stbi__bitreverse16i
000000000000eb0c l     F .text	0000000000000058 _ZL17stbi__bit_reverseii
000000000000eb64 l     F .text	0000000000000321 _ZL20stbi__zbuild_huffmanP14stbi__zhuffmanPKhi
000000000000ee85 l     F .text	0000000000000022 _ZL10stbi__zeofP10stbi__zbuf
000000000000eea7 l     F .text	000000000000003a _ZL11stbi__zget8P10stbi__zbuf
000000000000eee1 l     F .text	000000000000007e _ZL15stbi__fill_bitsP10stbi__zbuf
000000000000ef5f l     F .text	0000000000000071 _ZL14stbi__zreceiveP10stbi__zbufi
000000000000efd0 l     F .text	0000000000000119 _ZL30stbi__zhuffman_decode_slowpathP10stbi__zbufP14stbi__zhuffman
000000000000f0e9 l     F .text	00000000000000e2 _ZL21stbi__zhuffman_decodeP10stbi__zbufP14stbi__zhuffman
000000000000f1cb l     F .text	0000000000000123 _ZL13stbi__zexpandP10stbi__zbufPci
0000000000000e20 l     O .rodata	000000000000007c _ZL18stbi__zlength_base
0000000000000ea0 l     O .rodata	000000000000007c _ZL19stbi__zlength_extra
0000000000000f20 l     O .rodata	0000000000000080 _ZL16stbi__zdist_base
0000000000000fa0 l     O .rodata	0000000000000080 _ZL17stbi__zdist_extra
000000000000f2ee l     F .text	000000000000032d _ZL25stbi__parse_huffman_blockP10stbi__zbuf
0000000000001040 l     O .rodata	0000000000000013 _ZZL27stbi__compute_huffman_codesP10stbi__zbufE15length_dezigzag
000000000000f61b l     F .text	00000000000002f5 _ZL27stbi__compute_huffman_codesP10stbi__zbuf
000000000000f910 l     F .text	00000000000001e7 _ZL30stbi__parse_uncompressed_blockP10stbi__zbuf
000000000000faf7 l     F .text	00000000000000df _ZL23stbi__parse_zlib_headerP10stbi__zbuf
00000000000010a0 l     O .rodata	0000000000000120 _ZL21stbi__zdefault_length
00000000000011c0 l     O .rodata	0000000000000020 _ZL23stbi__zdefault_distance
000000000000fbd6 l     F .text	0000000000000165 _ZL16stbi__parse_zlibP10stbi__zbufi
000000000000fd3b l     F .text	0000000000000064 _ZL13stbi__do_zlibP10stbi__zbufPciii
00000000000101a4 l     F .text	0000000000000030 _ZL22stbi__get_chunk_headerP13stbi__context
00000000000011e0 l     O .rodata	0000000000000008 _ZZL22stbi__check_png_headerP13stbi__contextE7png_sig
00000000000101d4 l     F .text	000000000000005d _ZL22stbi__check_png_headerP13stbi__context
0000000000000010 l     O .data	0000000000000005 _ZL16first_row_filter
0000000000010231 l     F .text	0000000000000072 _ZL11stbi__paethiii
00000000000011f8 l     O .rodata	0000000000000009 _ZL23stbi__depth_scale_table
00000000000102a3 l     F .text	0000000000001479 _ZL26stbi__create_png_image_rawP9stbi__pngPhjijjii
000000000001171c l     F .text	000000000000042e _ZL22stbi__create_png_imageP9stbi__pngPhjiiii
0000000000011b4a l     F .text	000000000000012d _ZL26stbi__compute_transparencyP9stbi__pngPhi
0000000000011c77 l     F .text	0000000000000134 _ZL28stbi__compute_transparency16P9stbi__pngPti
0000000000011dab l     F .text	00000000000001cc _ZL24stbi__expand_png_paletteP9stbi__pngPhii
0000000000000004 l     O .bss	0000000000000004 _ZL34stbi__unpremultiply_on_load_global
0000000000000008 l     O .bss	0000000000000004 _ZL27stbi__de_iphone_flag_global
0000000000000010 l       .tbss	0000000000000004 _ZL33stbi__unpremultiply_on_load_local
0000000000000014 l       .tbss	0000000000000004 _ZL31stbi__unpremultiply_on_load_set
0000000000000018 l       .tbss	0000000000000004 _ZL26stbi__de_iphone_flag_local
000000000000001c l       .tbss	0000000000000004 _ZL24stbi__de_iphone_flag_set
0000000000011fdf l     F .text	000000000000020d _ZL15stbi__de_iphoneP9stbi__png
0000000000000020 l     O .data	0000000000000019 _ZZL20stbi__parse_png_fileP9stbi__pngiiE13invalid_chunk
00000000000121ec l     F .text	0000000000000cb0 _ZL20stbi__parse_png_fileP9stbi__pngii
0000000000012e9c l     F .text	0000000000000210 _ZL12stbi__do_pngP9stbi__pngPiS1_S1_iP17stbi__result_info
0000000000013127 l     F .text	000000000000009c _ZL18stbi__png_info_rawP9stbi__pngPiS1_S1_
00000000000131c3 l     F .text	000000000000003a _ZL14stbi__png_infoP13stbi__contextPiS1_S1_
00000000000131fd l     F .text	0000000000000061 _ZL14stbi__png_is16P13stbi__context
000000000001325e l     F .text	00000000000000bb _ZL18stbi__bmp_test_rawP13stbi__context
0000000000013345 l     F .text	0000000000000068 _ZL14stbi__high_bitj
00000000000133ad l     F .text	0000000000000069 _ZL14stbi__bitcountj
0000000000000040 l     O .data	0000000000000024 _ZZL17stbi__shiftsignedjiiE9mul_table
0000000000000080 l     O .data	0000000000000024 _ZZL17stbi__shiftsignedjiiE11shift_table
0000000000013416 l     F .text	00000000000000d9 _ZL17stbi__shiftsignedjii
00000000000134ef l     F .text	00000000000000da _ZL27stbi__bmp_set_mask_defaultsP14stbi__bmp_datai
00000000000135c9 l     F .text	00000000000004cc _ZL22stbi__bmp_parse_headerP13stbi__contextP14stbi__bmp_data
000000000001494d l     F .text	000000000000008f _ZL18stbi__tga_get_compiiPi
00000000000149dc l     F .text	000000000000027a _ZL14stbi__tga_infoP13stbi__contextPiS1_S1_
0000000000014dda l     F .text	00000000000000db _ZL20stbi__tga_read_rgb16P13stbi__contextPh
0000000000015721 l     F .text	00000000000000f7 _ZL20stbi__psd_decode_rleP13stbi__contextPhi
00000000000160ee l     F .text	0000000000000056 _ZL13stbi__pic_is4P13stbi__contextPKc
0000000000016144 l     F .text	000000000000007e _ZL19stbi__pic_test_coreP13stbi__context
00000000000161c2 l     F .text	000000000000008c _ZL13stbi__readvalP13stbi__contextiPh
000000000001624e l     F .text	0000000000000059 _ZL13stbi__copyvaliPhPKh
00000000000162a7 l     F .text	00000000000004d8 _ZL19stbi__pic_load_coreP13stbi__contextiiPiPh
00000000000169c1 l     F .text	00000000000000ab _ZL18stbi__gif_test_rawP13stbi__context
0000000000016a98 l     F .text	00000000000000d1 _ZL26stbi__gif_parse_colortableP13stbi__contextPA4_hii
0000000000016b69 l     F .text	00000000000001f3 _ZL16stbi__gif_headerP13stbi__contextP9stbi__gifPii
0000000000016d5c l     F .text	00000000000000b9 _ZL18stbi__gif_info_rawP13stbi__contextPiS1_S1_
0000000000016e15 l     F .text	0000000000000233 _ZL18stbi__out_gif_codeP9stbi__gift
0000000000017048 l     F .text	000000000000034d _ZL24stbi__process_gif_rasterP13stbi__contextP9stbi__gif
0000000000017395 l     F .text	00000000000007b1 _ZL19stbi__gif_load_nextP13stbi__contextP9stbi__gifPiiPh
0000000000017b46 l     F .text	000000000000008f _ZL28stbi__load_gif_main_outofmemP9stbi__gifPhPPi
00000000000180d5 l     F .text	0000000000000032 _ZL14stbi__gif_infoP13stbi__contextPiS1_S1_
0000000000018107 l     F .text	0000000000000076 _ZL19stbi__hdr_test_coreP13stbi__contextPKc
00000000000181de l     F .text	00000000000000d0 _ZL18stbi__hdr_gettokenP13stbi__contextPc
00000000000182ae l     F .text	00000000000001da _ZL17stbi__hdr_convertPfPhi
0000000000018be8 l     F .text	0000000000000255 _ZL14stbi__hdr_infoP13stbi__contextPiS1_S1_
0000000000018e3d l     F .text	00000000000000c0 _ZL14stbi__bmp_infoP13stbi__contextPiS1_S1_
0000000000018efd l     F .text	0000000000000171 _ZL14stbi__psd_infoP13stbi__contextPiS1_S1_
000000000001906e l     F .text	00000000000000d1 _ZL14stbi__psd_is16P13stbi__context
000000000001913f l     F .text	000000000000022e _ZL14stbi__pic_infoP13stbi__contextPiS1_S1_
0000000000019842 l     F .text	00000000000001a9 _ZL14stbi__pnm_infoP13stbi__contextPiS1_S1_
000000000001964a l     F .text	000000000000003e _ZL17stbi__pnm_isspacec
0000000000019688 l     F .text	00000000000000db _ZL25stbi__pnm_skip_whitespaceP13stbi__contextPc
0000000000019763 l     F .text	0000000000000026 _ZL17stbi__pnm_isdigitc
0000000000019789 l     F .text	00000000000000b9 _ZL20stbi__pnm_getintegerP13stbi__contextPc
00000000000199eb l     F .text	000000000000003f _ZL14stbi__pnm_is16P13stbi__context
0000000000019a2a l     F .text	00000000000001a3 _ZL15stbi__info_mainP13stbi__contextPiS1_S1_
0000000000019bcd l     F .text	0000000000000067 _ZL16stbi__is_16_mainP13stbi__context
000000000000000c l     O .bss	0000000000000004 _ZL30stbi__flip_vertically_on_write
0000000000019f9d l     F .text	000000000000002a _ZL27stbi__start_write_callbacksP19stbi__write_contextPFvPvS1_iES1_
0000000000019fc7 l     F .text	0000000000000031 _ZL17stbi__stdio_writePvS_i
0000000000019ff8 l     F .text	000000000000002d _ZL12stbiw__fopenPKcS0_
000000000001a025 l     F .text	0000000000000051 _ZL22stbi__start_write_fileP19stbi__write_contextPKc
000000000001a076 l     F .text	000000000000001f _ZL20stbi__end_write_fileP19stbi__write_context
000000000001a095 l     F .text	0000000000000217 _ZL14stbiw__writefvP19stbi__write_contextPKcP13__va_list_tag
000000000001a2ac l     F .text	00000000000000a9 _ZL13stbiw__writefP19stbi__write_contextPKcz
000000000001a355 l     F .text	0000000000000048 _ZL18stbiw__write_flushP19stbi__write_context
000000000001a39d l     F .text	0000000000000035 _ZL11stbiw__putcP19stbi__write_contexth
000000000001a3d2 l     F .text	0000000000000052 _ZL13stbiw__write1P19stbi__write_contexth
000000000001a424 l     F .text	000000000000008b _ZL13stbiw__write3P19stbi__write_contexthhh
000000000001a4af l     F .text	0000000000000200 _ZL18stbiw__write_pixelP19stbi__write_contextiiiiPh
000000000001a6af l     F .text	0000000000000101 _ZL19stbiw__write_pixelsP19stbi__write_contextiiiiiPviii
000000000001a7b0 l     F .text	0000000000000105 _ZL14stbiw__outfileP19stbi__write_contextiiiiiiPviiPKcz
000000000001a8b5 l     F .text	0000000000000167 _ZL19stbi_write_bmp_coreP19stbi__write_contextiiiPKv
000000000001ab0c l     F .text	00000000000003c9 _ZL19stbi_write_tga_coreP19stbi__write_contextiiiPv
000000000001afc5 l     F .text	0000000000000164 _ZL21stbiw__linear_to_rgbePhPf
000000000001b129 l     F .text	0000000000000090 _ZL21stbiw__write_run_dataP19stbi__write_contextih
000000000001b1b9 l     F .text	000000000000008d _ZL22stbiw__write_dump_dataP19stbi__write_contextiPh
000000000001b246 l     F .text	000000000000043a _ZL25stbiw__write_hdr_scanlineP19stbi__write_contextiiPhPf
000000000001b680 l     F .text	0000000000000204 _ZL19stbi_write_hdr_coreP19stbi__write_contextiiiPf
000000000001b974 l     F .text	00000000000000f0 _ZL14stbiw__sbgrowfPPvii
000000000001ba64 l     F .text	00000000000000a7 _ZL18stbiw__zlib_flushfPhPjPi
000000000001bb0b l     F .text	000000000000003e _ZL18stbiw__zlib_bitrevii
000000000001bb49 l     F .text	0000000000000059 _ZL18stbiw__zlib_countmPhS_i
000000000001bba2 l     F .text	0000000000000076 _ZL12stbiw__zhashPh
00000000000000c0 l     O .data	000000000000003c _ZZ18stbi_zlib_compressE7lengthc
0000000000000100 l     O .data	000000000000001d _ZZ18stbi_zlib_compressE8lengtheb
0000000000000120 l     O .data	000000000000003e _ZZ18stbi_zlib_compressE5distc
0000000000000160 l     O .data	000000000000001e _ZZ18stbi_zlib_compressE6disteb
0000000000000180 l     O .data	0000000000000400 _ZZL12stbiw__crc32PhiE9crc_table
000000000001cc31 l     F .text	000000000000006a _ZL12stbiw__crc32Phi
000000000001cc9b l     F .text	000000000000009c _ZL12stbiw__wpcrcPPhi
000000000001cd37 l     F .text	0000000000000072 _ZL12stbiw__paethiii
0000000000000580 l     O .data	0000000000000014 _ZZL22stbiw__encode_png_linePhiiiiiiPaE7mapping
00000000000005a0 l     O .data	0000000000000014 _ZZL22stbiw__encode_png_linePhiiiiiiPaE8firstmap
000000000001cda9 l     F .text	00000000000004d4 _ZL22stbiw__encode_png_linePhiiiiiiPa
0000000000001b80 l     O .rodata	0000000000000040 _ZL17stbiw__jpg_ZigZag
000000000001da67 l     F .text	00000000000000ad _ZL20stbiw__jpg_writeBitsP19stbi__write_contextPiS1_PKt
000000000001db14 l     F .text	00000000000002f6 _ZL14stbiw__jpg_DCTPfS_S_S_S_S_S_S_
000000000001de0a l     F .text	0000000000000089 _ZL19stbiw__jpg_calcBitsiPt
000000000001de93 l     F .text	00000000000005fc _ZL20stbiw__jpg_processDUP19stbi__write_contextPiS1_PfiS2_iPA2_KtS5_
0000000000001bc0 l     O .rodata	0000000000000011 _ZZL19stbi_write_jpg_coreP19stbi__write_contextiiiPKviE24std_dc_luminance_nrcodes
0000000000001bd8 l     O .rodata	000000000000000c _ZZL19stbi_write_jpg_coreP19stbi__write_contextiiiPKviE23std_dc_luminance_values
0000000000001bf0 l     O .rodata	0000000000000011 _ZZL19stbi_write_jpg_coreP19stbi__write_contextiiiPKviE24std_ac_luminance_nrcodes
0000000000001c20 l     O .rodata	00000000000000a2 _ZZL19stbi_write_jpg_coreP19stbi__write_contextiiiPKviE23std_ac_luminance_values
0000000000001cd0 l     O .rodata	0000000000000011 _ZZL19stbi_write_jpg_coreP19stbi__write_contextiiiPKviE26std_dc_chrominance_nrcodes
0000000000001ce8 l     O .rodata	000000000000000c _ZZL19stbi_write_jpg_coreP19stbi__write_contextiiiPKviE25std_dc_chrominance_values
0000000000001d00 l     O .rodata	0000000000000011 _ZZL19stbi_write_jpg_coreP19stbi__write_contextiiiPKviE26std_ac_chrominance_nrcodes
0000000000001d20 l     O .rodata	00000000000000a2 _ZZL19stbi_write_jpg_coreP19stbi__write_contextiiiPKviE25std_ac_chrominance_values
0000000000001de0 l     O .rodata	0000000000000400 _ZZL19stbi_write_jpg_coreP19stbi__write_contextiiiPKviE6YDC_HT
00000000000021e0 l     O .rodata	0000000000000400 _ZZL19stbi_write_jpg_coreP19stbi__write_contextiiiPKviE7UVDC_HT
00000000000025e0 l     O .rodata	0000000000000400 _ZZL19stbi_write_jpg_coreP19stbi__write_contextiiiPKviE6YAC_HT
00000000000029e0 l     O .rodata	0000000000000400 _ZZL19stbi_write_jpg_coreP19stbi__write_contextiiiPKviE7UVAC_HT
0000000000002de0 l     O .rodata	0000000000000100 _ZZL19stbi_write_jpg_coreP19stbi__write_contextiiiPKviE3YQT
0000000000002ee0 l     O .rodata	0000000000000100 _ZZL19stbi_write_jpg_coreP19stbi__write_contextiiiPKviE4UVQT
0000000000002fe0 l     O .rodata	0000000000000020 _ZZL19stbi_write_jpg_coreP19stbi__write_contextiiiPKviE4aasf
0000000000003000 l     O .rodata	0000000000000019 _ZZL19stbi_write_jpg_coreP19stbi__write_contextiiiPKviE5head0
0000000000003020 l     O .rodata	000000000000000e _ZZL19stbi_write_jpg_coreP19stbi__write_contextiiiPKviE5head2
000000000000302e l     O .rodata	0000000000000004 _ZZL19stbi_write_jpg_coreP19stbi__write_contextiiiPKviE8fillBits
000000000001e48f l     F .text	0000000000001000 _ZL19stbi_write_jpg_coreP19stbi__write_contextiiiPKvi
0000000000000000 l    d  .text._ZNSt3mapINSt7__cxx1112basic_stringIcSt11char_traitsIcESaIcEEEN8tinygltf5ValueESt4lessIS5_ESaISt4pairIKS5_S7_EEEC2ERKSE_	0000000000000000 .text._ZNSt3mapINSt7__cxx1112basic_stringIcSt11char_traitsIcESaIcEEEN8tinygltf5ValueESt4lessIS5_ESaISt4pairIKS5_S7_EEEC2ERKSE_
000000000001f63c l     F .text	0000000000000407 _ZN8tinygltfL6EqualsERKNS_5ValueES2_
000000000001fa43 l     F .text	00000000000000db _ZN8tinygltfL6EqualsERKSt6vectorIdSaIdEES4_
00000000000219af l     F .text	000000000000000b _ZN8tinygltfL5swap4EPj
00000000000219ba l     F .text	0000000000000172 _ZN8tinygltfL8JoinPathERKNSt7__cxx1112basic_stringIcSt11char_traitsIcESaIcEEES7_
0000000000021b2c l     F .text	0000000000000259 _ZN8tinygltfL8FindFileERKSt6vectorINSt7__cxx1112basic_stringIcSt11char_traitsIcESaIcEEESaIS6_EERKS6_PNS_11FsCallbacksE
0000000000021d85 l     F .text	00000000000000ca _ZN8tinygltfL20GetFilePathExtensionERKNSt7__cxx1112basic_stringIcSt11char_traitsIcESaIcEEE
0000000000021e4f l     F .text	00000000000000ca _ZN8tinygltfL10GetBaseDirERKNSt7__cxx1112basic_stringIcSt11char_traitsIcESaIcEEE
0000000000021f19 l     F .text	0000000000000072 _ZN8tinygltfL15GetBaseFilenameERKNSt7__cxx1112basic_stringIcSt11char_traitsIcESaIcEEE
0000000000021f8b l     F .text	0000000000000036 _ZN8tinygltfL9is_base64Eh
0000000000000000 l    d  .text._ZN8tinygltf4dlib8from_hexEh	0000000000000000 .text._ZN8tinygltf4dlib8from_hexEh
00000000000224a2 l     F .text	000000000000018b _ZN8tinygltf4dlibL9urldecodeERKNSt7__cxx1112basic_stringIcSt11char_traitsIcESaIcEEE
000000000002269b l     F .text	0000000000000b2e _ZN8tinygltfL16LoadExternalFileEPSt6vectorIhSaIhEEPNSt7__cxx1112basic_stringIcSt11char_traitsIcESaIcEEESA_RKS9_SC_bmbmPNS_11FsCallbacksE
0000000000023b3d l     F .text	000000000000007b _ZN8tinygltfL18WriteToMemory_stbiEPvS0_i
0000000000024f23 l     F .text	0000000000000213 _ZN8tinygltfL9MimeToExtERKNSt7__cxx1112basic_stringIcSt11char_traitsIcESaIcEEE
0000000000025136 l     F .text	00000000000004a4 _ZN8tinygltfL17UpdateImageObjectERKNS_5ImageERNSt7__cxx1112basic_stringIcSt11char_traitsIcESaIcEEEibPKNS_12URICallbacksEPPFbPKS8_SE_PS1_bSC_PS8_PvESH_SG_
0000000000000000 l    d  .text._ZNSt3mapINSt7__cxx1112basic_stringIcSt11char_traitsIcESaIcEEEN8tinygltf5ValueESt4lessIS5_ESaISt4pairIKS5_S7_EEEaSEOSE_	0000000000000000 .text._ZNSt3mapINSt7__cxx1112basic_stringIcSt11char_traitsIcESaIcEEEN8tinygltf5ValueESt4lessIS5_ESaISt4pairIKS5_S7_EEEaSEOSE_
0000000000000000 l    d  .text._ZN8tinygltf5ValueaSEOS0_	0000000000000000 .text._ZN8tinygltf5ValueaSEOS0_
0000000000026493 l     F .text	00000000000005d7 _ZN8tinygltfL16ParseJsonAsValueEPNS_5ValueERKN8nlohmann10basic_jsonISt3mapSt6vectorNSt7__cxx1112basic_stringIcSt11char_traitsIcESaIcEEEblmdSaNS2_14adl_serializerES5_IhSaIhEEEE
0000000000000000 l    d  .text._ZN8nlohmann6detail20primitive_iterator_tC2Ev	0000000000000000 .text._ZN8nlohmann6detail20primitive_iterator_tC2Ev
0000000000000000 l    d  .text._ZN8nlohmann6detail17internal_iteratorINS_10basic_jsonISt3mapSt6vectorNSt7__cxx1112basic_stringIcSt11char_traitsIcESaIcEEEblmdSaNS_14adl_serializerES4_IhSaIhEEEEEC2Ev	0000000000000000 .text._ZN8nlohmann6detail17internal_iteratorINS_10basic_jsonISt3mapSt6vectorNSt7__cxx1112basic_stringIcSt11char_traitsIcESaIcEEEblmdSaNS_14adl_serializerES4_IhSaIhEEEEEC2Ev
0000000000000000 l    d  .text._ZN8nlohmann6detail9iter_implIKNS_10basic_jsonISt3mapSt6vectorNSt7__cxx1112basic_stringIcSt11char_traitsIcESaIcEEEblmdSaNS_14adl_serializerES4_IhSaIhEEEEEC2Ev	0000000000000000 .text._ZN8nlohmann6detail9iter_implIKNS_10basic_jsonISt3mapSt6vectorNSt7__cxx1112basic_stringIcSt11char_traitsIcESaIcEEEblmdSaNS_14adl_serializerES4_IhSaIhEEEEEC2Ev
0000000000026a6a l     F .text	0000000000000065 _ZN8tinygltfL19ParseExtrasPropertyEPNS_5ValueERKN8nlohmann10basic_jsonISt3mapSt6vectorNSt7__cxx1112basic_stringIcSt11char_traitsIcESaIcEEEblmdSaNS2_14adl_serializerES5_IhSaIhEEEE
0000000000026acf l     F .text	00000000000002f9 _ZN8tinygltfL20ParseBooleanPropertyEPbPNSt7__cxx1112basic_stringIcSt11char_traitsIcESaIcEEERKN8nlohmann10basic_jsonISt3mapSt6vectorS6_blmdSaNS8_14adl_serializerESB_IhSaIhEEEERKS6_bSJ_
0000000000026dc8 l     F .text	00000000000002db _ZN8tinygltfL20ParseIntegerPropertyEPiPNSt7__cxx1112basic_stringIcSt11char_traitsIcESaIcEEERKN8nlohmann10basic_jsonISt3mapSt6vectorS6_blmdSaNS8_14adl_serializerESB_IhSaIhEEEERKS6_bSJ_
00000000000270a3 l     F .text	00000000000002ff _ZN8tinygltfL21ParseUnsignedPropertyEPmPNSt7__cxx1112basic_stringIcSt11char_traitsIcESaIcEEERKN8nlohmann10basic_jsonISt3mapSt6vectorS6_blmdSaNS8_14adl_serializerESB_IhSaIhEEEERKS6_bSJ_
00000000000273a2 l     F .text	00000000000002df _ZN8tinygltfL19ParseNumberPropertyEPdPNSt7__cxx1112basic_stringIcSt11char_traitsIcESaIcEEERKN8nlohmann10basic_jsonISt3mapSt6vectorS6_blmdSaNS8_14adl_serializerESB_IhSaIhEEEERKS6_bSJ_
0000000000027681 l     F .text	0000000000000589 _ZN8tinygltfL24ParseNumberArrayPropertyEPSt6vectorIdSaIdEEPNSt7__cxx1112basic_stringIcSt11char_traitsIcESaIcEEERKN8nlohmann10basic_jsonISt3mapS0_S9_blmdSaNSB_14adl_serializerES0_IhSaIhEEEERKS9_bSL_
0000000000027c0a l     F .text	0000000000000589 _ZN8tinygltfL25ParseIntegerArrayPropertyEPSt6vectorIiSaIiEEPNSt7__cxx1112basic_stringIcSt11char_traitsIcESaIcEEERKN8nlohmann10basic_jsonISt3mapS0_S9_blmdSaNSB_14adl_serializerES0_IhSaIhEEEERKS9_bSL_
0000000000028193 l     F .text	000000000000035b _ZN8tinygltfL19ParseStringPropertyEPNSt7__cxx1112basic_stringIcSt11char_traitsIcESaIcEEES6_RKN8nlohmann10basic_jsonISt3mapSt6vectorS5_blmdSaNS7_14adl_serializerESA_IhSaIhEEEERKS5_bSI_
00000000000284ee l     F .text	000000000000053d _ZN8tinygltfL26ParseStringIntegerPropertyEPSt3mapINSt7__cxx1112basic_stringIcSt11char_traitsIcESaIcEEEiSt4lessIS6_ESaISt4pairIKS6_iEEEPS6_RKN8nlohmann10basic_jsonIS0_St6vectorS6_blmdSaNSG_14adl_serializerESI_IhSaIhEEEERSA_bSP_
0000000000028a2b l     F .text	0000000000000311 _ZN8tinygltfL17ParseJSONPropertyEPSt3mapINSt7__cxx1112basic_stringIcSt11char_traitsIcESaIcEEEdSt4lessIS6_ESaISt4pairIKS6_dEEEPS6_RKN8nlohmann10basic_jsonIS0_St6vectorS6_blmdSaNSG_14adl_serializerESI_IhSaIhEEEERSA_b
0000000000028d3c l     F .text	0000000000000355 _ZN8tinygltfL22ParseParameterPropertyEPNS_9ParameterEPNSt7__cxx1112basic_stringIcSt11char_traitsIcESaIcEEERKN8nlohmann10basic_jsonISt3mapSt6vectorS7_blmdSaNS9_14adl_serializerESC_IhSaIhEEEERKS7_b
0000000000029091 l     F .text	00000000000002d5 _ZN8tinygltfL23ParseExtensionsPropertyEPSt3mapINSt7__cxx1112basic_stringIcSt11char_traitsIcESaIcEEENS_5ValueESt4lessIS6_ESaISt4pairIKS6_S7_EEEPS6_RKN8nlohmann10basic_jsonIS0_St6vectorS6_blmdSaNSH_14adl_serializerESJ_IhSaIhEEEE
0000000000029366 l     F .text	00000000000004d9 _ZN8tinygltfL10ParseAssetEPNS_5AssetEPNSt7__cxx1112basic_stringIcSt11char_traitsIcESaIcEEERKN8nlohmann10basic_jsonISt3mapSt6vectorS7_blmdSaNS9_14adl_serializerESC_IhSaIhEEEEb
00000000000462b5 l     F .text	0000000000000148 _ZN8tinygltfL24ParseExtrasAndExtensionsINS_5AssetEEEbPT_PNSt7__cxx1112basic_stringIcSt11char_traitsIcESaIcEEERKN8nlohmann10basic_jsonISt3mapSt6vectorS9_blmdSaNSB_14adl_serializerESE_IhSaIhEEEEb
000000000002983f l     F .text	000000000000161b _ZN8tinygltfL10ParseImageEPNS_5ImageEiPNSt7__cxx1112basic_stringIcSt11char_traitsIcESaIcEEES8_RKN8nlohmann10basic_jsonISt3mapSt6vectorS7_blmdSaNS9_14adl_serializerESC_IhSaIhEEEEbRKS7_mPNS_11FsCallbacksEPKNS_12URICallbacksEPPFbS1_iS8_S8_iiPKhiPvESS_
00000000000463fd l     F .text	0000000000000148 _ZN8tinygltfL24ParseExtrasAndExtensionsINS_5ImageEEEbPT_PNSt7__cxx1112basic_stringIcSt11char_traitsIcESaIcEEERKN8nlohmann10basic_jsonISt3mapSt6vectorS9_blmdSaNSB_14adl_serializerESE_IhSaIhEEEEb
000000000002ae5a l     F .text	0000000000000397 _ZN8tinygltfL12ParseTextureEPNS_7TextureEPNSt7__cxx1112basic_stringIcSt11char_traitsIcESaIcEEERKN8nlohmann10basic_jsonISt3mapSt6vectorS7_blmdSaNS9_14adl_serializerESC_IhSaIhEEEEbRKS7_
0000000000046545 l     F .text	0000000000000145 _ZN8tinygltfL24ParseExtrasAndExtensionsINS_7TextureEEEbPT_PNSt7__cxx1112basic_stringIcSt11char_traitsIcESaIcEEERKN8nlohmann10basic_jsonISt3mapSt6vectorS9_blmdSaNSB_14adl_serializerESE_IhSaIhEEEEb
000000000002b1f1 l     F .text	00000000000002a8 _ZN8tinygltfL16ParseTextureInfoEPNS_11TextureInfoEPNSt7__cxx1112basic_stringIcSt11char_traitsIcESaIcEEERKN8nlohmann10basic_jsonISt3mapSt6vectorS7_blmdSaNS9_14adl_serializerESC_IhSaIhEEEEb
000000000004668a l     F .text	0000000000000145 _ZN8tinygltfL24ParseExtrasAndExtensionsINS_11TextureInfoEEEbPT_PNSt7__cxx1112basic_stringIcSt11char_traitsIcESaIcEEERKN8nlohmann10basic_jsonISt3mapSt6vectorS9_blmdSaNSB_14adl_serializerESE_IhSaIhEEEEb
000000000002b499 l     F .text	00000000000003ce _ZN8tinygltfL22ParseNormalTextureInfoEPNS_17NormalTextureInfoEPNSt7__cxx1112basic_stringIcSt11char_traitsIcESaIcEEERKN8nlohmann10basic_jsonISt3mapSt6vectorS7_blmdSaNS9_14adl_serializerESC_IhSaIhEEEEb
00000000000467cf l     F .text	0000000000000145 _ZN8tinygltfL24ParseExtrasAndExtensionsINS_17NormalTextureInfoEEEbPT_PNSt7__cxx1112basic_stringIcSt11char_traitsIcESaIcEEERKN8nlohmann10basic_jsonISt3mapSt6vectorS9_blmdSaNSB_14adl_serializerESE_IhSaIhEEEEb
000000000002b867 l     F .text	00000000000003ce _ZN8tinygltfL25ParseOcclusionTextureInfoEPNS_20OcclusionTextureInfoEPNSt7__cxx1112basic_stringIcSt11char_traitsIcESaIcEEERKN8nlohmann10basic_jsonISt3mapSt6vectorS7_blmdSaNS9_14adl_serializerESC_IhSaIhEEEEb
0000000000046914 l     F .text	0000000000000145 _ZN8tinygltfL24ParseExtrasAndExtensionsINS_20OcclusionTextureInfoEEEbPT_PNSt7__cxx1112basic_stringIcSt11char_traitsIcESaIcEEERKN8nlohmann10basic_jsonISt3mapSt6vectorS9_blmdSaNSB_14adl_serializerESE_IhSaIhEEEEb
000000000002bc35 l     F .text	0000000000000b40 _ZN8tinygltfL11ParseBufferEPNS_6BufferEPNSt7__cxx1112basic_stringIcSt11char_traitsIcESaIcEEERKN8nlohmann10basic_jsonISt3mapSt6vectorS7_blmdSaNS9_14adl_serializerESC_IhSaIhEEEEbPNS_11FsCallbacksEPKNS_12URICallbacksERKS7_mbPKhm
0000000000046a59 l     F .text	0000000000000145 _ZN8tinygltfL24ParseExtrasAndExtensionsINS_6BufferEEEbPT_PNSt7__cxx1112basic_stringIcSt11char_traitsIcESaIcEEERKN8nlohmann10basic_jsonISt3mapSt6vectorS9_blmdSaNSB_14adl_serializerESE_IhSaIhEEEEb
000000000002c775 l     F .text	00000000000008d1 _ZN8tinygltfL15ParseBufferViewEPNS_10BufferViewEPNSt7__cxx1112basic_stringIcSt11char_traitsIcESaIcEEERKN8nlohmann10basic_jsonISt3mapSt6vectorS7_blmdSaNS9_14adl_serializerESC_IhSaIhEEEEb
0000000000046b9e l     F .text	0000000000000145 _ZN8tinygltfL24ParseExtrasAndExtensionsINS_10BufferViewEEEbPT_PNSt7__cxx1112basic_stringIcSt11char_traitsIcESaIcEEERKN8nlohmann10basic_jsonISt3mapSt6vectorS9_blmdSaNSB_14adl_serializerESE_IhSaIhEEEEb
000000000002d046 l     F .text	0000000000000937 _ZN8tinygltfL19ParseSparseAccessorEPNS_8Accessor6SparseEPNSt7__cxx1112basic_stringIcSt11char_traitsIcESaIcEEERKN8nlohmann10basic_jsonISt3mapSt6vectorS8_blmdSaNSA_14adl_serializerESD_IhSaIhEEEEb
0000000000046ce3 l     F .text	0000000000000148 _ZN8tinygltfL24ParseExtrasAndExtensionsINS_8Accessor6SparseEEEbPT_PNSt7__cxx1112basic_stringIcSt11char_traitsIcESaIcEEERKN8nlohmann10basic_jsonISt3mapSt6vectorSA_blmdSaNSC_14adl_serializerESF_IhSaIhEEEEb
0000000000046e2b l     F .text	0000000000000145 _ZN8tinygltfL24ParseExtrasAndExtensionsINS_8Accessor6SparseUt_EEEbPT_PNSt7__cxx1112basic_stringIcSt11char_traitsIcESaIcEEERKN8nlohmann10basic_jsonISt3mapSt6vectorSB_blmdSaNSD_14adl_serializerESG_IhSaIhEEEEb
0000000000046f70 l     F .text	0000000000000145 _ZN8tinygltfL24ParseExtrasAndExtensionsINS_8Accessor6SparseUt0_EEEbPT_PNSt7__cxx1112basic_stringIcSt11char_traitsIcESaIcEEERKN8nlohmann10basic_jsonISt3mapSt6vectorSB_blmdSaNSD_14adl_serializerESG_IhSaIhEEEEb
000000000002d97d l     F .text	0000000000000f3b _ZN8tinygltfL13ParseAccessorEPNS_8AccessorEPNSt7__cxx1112basic_stringIcSt11char_traitsIcESaIcEEERKN8nlohmann10basic_jsonISt3mapSt6vectorS7_blmdSaNS9_14adl_serializerESC_IhSaIhEEEEb
00000000000470b5 l     F .text	0000000000000145 _ZN8tinygltfL24ParseExtrasAndExtensionsINS_8AccessorEEEbPT_PNSt7__cxx1112basic_stringIcSt11char_traitsIcESaIcEEERKN8nlohmann10basic_jsonISt3mapSt6vectorS9_blmdSaNSB_14adl_serializerESE_IhSaIhEEEEb
0000000000000000 l    d  .text._ZNSt8_Rb_treeINSt7__cxx1112basic_stringIcSt11char_traitsIcESaIcEEESt4pairIKS5_iESt10_Select1stIS8_ESt4lessIS5_ESaIS8_EE13_Rb_tree_implISC_Lb1EED2Ev	0000000000000000 .text._ZNSt8_Rb_treeINSt7__cxx1112basic_stringIcSt11char_traitsIcESaIcEEESt4pairIKS5_iESt10_Select1stIS8_ESt4lessIS5_ESaIS8_EE13_Rb_tree_implISC_Lb1EED2Ev
0000000000000000 l    d  .text._ZNSt8_Rb_treeINSt7__cxx1112basic_stringIcSt11char_traitsIcESaIcEEESt4pairIKS5_iESt10_Select1stIS8_ESt4lessIS5_ESaIS8_EEC2Ev	0000000000000000 .text._ZNSt8_Rb_treeINSt7__cxx1112basic_stringIcSt11char_traitsIcESaIcEEESt4pairIKS5_iESt10_Select1stIS8_ESt4lessIS5_ESaIS8_EEC2Ev
0000000000000000 l    d  .text._ZNSt3mapINSt7__cxx1112basic_stringIcSt11char_traitsIcESaIcEEEiSt4lessIS5_ESaISt4pairIKS5_iEEEC2Ev	0000000000000000 .text._ZNSt3mapINSt7__cxx1112basic_stringIcSt11char_traitsIcESaIcEEEiSt4lessIS5_ESaISt4pairIKS5_iEEEC2Ev
0000000000000000 l    d  .text._ZNSt3mapINSt7__cxx1112basic_stringIcSt11char_traitsIcESaIcEEEiSt4lessIS5_ESaISt4pairIKS5_iEEED2Ev	0000000000000000 .text._ZNSt3mapINSt7__cxx1112basic_stringIcSt11char_traitsIcESaIcEEEiSt4lessIS5_ESaISt4pairIKS5_iEEED2Ev
000000000002e8b8 l     F .text	000000000000078b _ZN8tinygltfL14ParsePrimitiveEPNS_9PrimitiveEPNS_5ModelEPNSt7__cxx1112basic_stringIcSt11char_traitsIcESaIcEEERKN8nlohmann10basic_jsonISt3mapSt6vectorS9_blmdSaNSB_14adl_serializerESE_IhSaIhEEEEb
00000000000471fa l     F .text	0000000000000145 _ZN8tinygltfL24ParseExtrasAndExtensionsINS_9PrimitiveEEEbPT_PNSt7__cxx1112basic_stringIcSt11char_traitsIcESaIcEEERKN8nlohmann10basic_jsonISt3mapSt6vectorS9_blmdSaNSB_14adl_serializerESE_IhSaIhEEEEb
0000000000000000 l    d  .text._ZNSt12_Vector_baseISt3mapINSt7__cxx1112basic_stringIcSt11char_traitsIcESaIcEEEiSt4lessIS6_ESaISt4pairIKS6_iEEESaISD_EE12_Vector_implD2Ev	0000000000000000 .text._ZNSt12_Vector_baseISt3mapINSt7__cxx1112basic_stringIcSt11char_traitsIcESaIcEEEiSt4lessIS6_ESaISt4pairIKS6_iEEESaISD_EE12_Vector_implD2Ev
0000000000000000 l    d  .text._ZNSt12_Vector_baseISt3mapINSt7__cxx1112basic_stringIcSt11char_traitsIcESaIcEEEiSt4lessIS6_ESaISt4pairIKS6_iEEESaISD_EEC2Ev	0000000000000000 .text._ZNSt12_Vector_baseISt3mapINSt7__cxx1112basic_stringIcSt11char_traitsIcESaIcEEEiSt4lessIS6_ESaISt4pairIKS6_iEEESaISD_EEC2Ev
0000000000000000 l    d  .text._ZNSt6vectorISt3mapINSt7__cxx1112basic_stringIcSt11char_traitsIcESaIcEEEiSt4lessIS6_ESaISt4pairIKS6_iEEESaISD_EEC2Ev	0000000000000000 .text._ZNSt6vectorISt3mapINSt7__cxx1112basic_stringIcSt11char_traitsIcESaIcEEEiSt4lessIS6_ESaISt4pairIKS6_iEEESaISD_EEC2Ev
0000000000000000 l    d  .text._ZN8tinygltf9PrimitiveC2Ev	0000000000000000 .text._ZN8tinygltf9PrimitiveC2Ev
0000000000000000 l    d  .text._ZN8tinygltf9PrimitiveD2Ev	0000000000000000 .text._ZN8tinygltf9PrimitiveD2Ev
000000000002f043 l     F .text	00000000000003c9 _ZN8tinygltfL9ParseMeshEPNS_4MeshEPNS_5ModelEPNSt7__cxx1112basic_stringIcSt11char_traitsIcESaIcEEERKN8nlohmann10basic_jsonISt3mapSt6vectorS9_blmdSaNSB_14adl_serializerESE_IhSaIhEEEEb
000000000004733f l     F .text	0000000000000145 _ZN8tinygltfL24ParseExtrasAndExtensionsINS_4MeshEEEbPT_PNSt7__cxx1112basic_stringIcSt11char_traitsIcESaIcEEERKN8nlohmann10basic_jsonISt3mapSt6vectorS9_blmdSaNSB_14adl_serializerESE_IhSaIhEEEEb
000000000002f40c l     F .text	00000000000011c2 _ZN8tinygltfL9ParseNodeEPNS_4NodeEPNSt7__cxx1112basic_stringIcSt11char_traitsIcESaIcEEERKN8nlohmann10basic_jsonISt3mapSt6vectorS7_blmdSaNS9_14adl_serializerESC_IhSaIhEEEEb
0000000000047484 l     F .text	0000000000000148 _ZN8tinygltfL24ParseExtrasAndExtensionsINS_4NodeEEEbPT_PNSt7__cxx1112basic_stringIcSt11char_traitsIcESaIcEEERKN8nlohmann10basic_jsonISt3mapSt6vectorS9_blmdSaNSB_14adl_serializerESE_IhSaIhEEEEb
0000000000000000 l    d  .text._ZN8tinygltf5ValueC2ERKS0_	0000000000000000 .text._ZN8tinygltf5ValueC2ERKS0_
00000000000305ce l     F .text	0000000000000599 _ZN8tinygltfL10ParseSceneEPNS_5SceneEPNSt7__cxx1112basic_stringIcSt11char_traitsIcESaIcEEERKN8nlohmann10basic_jsonISt3mapSt6vectorS7_blmdSaNS9_14adl_serializerESC_IhSaIhEEEEb
00000000000475cc l     F .text	0000000000000145 _ZN8tinygltfL24ParseExtrasAndExtensionsINS_5SceneEEEbPT_PNSt7__cxx1112basic_stringIcSt11char_traitsIcESaIcEEERKN8nlohmann10basic_jsonISt3mapSt6vectorS9_blmdSaNSB_14adl_serializerESE_IhSaIhEEEEb
0000000000030b67 l     F .text	00000000000005fb _ZN8tinygltfL25ParsePbrMetallicRoughnessEPNS_20PbrMetallicRoughnessEPNSt7__cxx1112basic_stringIcSt11char_traitsIcESaIcEEERKN8nlohmann10basic_jsonISt3mapSt6vectorS7_blmdSaNS9_14adl_serializerESC_IhSaIhEEEEb
0000000000047711 l     F .text	0000000000000148 _ZN8tinygltfL24ParseExtrasAndExtensionsINS_20PbrMetallicRoughnessEEEbPT_PNSt7__cxx1112basic_stringIcSt11char_traitsIcESaIcEEERKN8nlohmann10basic_jsonISt3mapSt6vectorS9_blmdSaNSB_14adl_serializerESE_IhSaIhEEEEb
0000000000000000 l    d  .text._ZNSt8_Rb_treeINSt7__cxx1112basic_stringIcSt11char_traitsIcESaIcEEESt4pairIKS5_dESt10_Select1stIS8_ESt4lessIS5_ESaIS8_EE13_Rb_tree_implISC_Lb1EED2Ev	0000000000000000 .text._ZNSt8_Rb_treeINSt7__cxx1112basic_stringIcSt11char_traitsIcESaIcEEESt4pairIKS5_dESt10_Select1stIS8_ESt4lessIS5_ESaIS8_EE13_Rb_tree_implISC_Lb1EED2Ev
0000000000000000 l    d  .text._ZNSt8_Rb_treeINSt7__cxx1112basic_stringIcSt11char_traitsIcESaIcEEESt4pairIKS5_dESt10_Select1stIS8_ESt4lessIS5_ESaIS8_EEC2Ev	0000000000000000 .text._ZNSt8_Rb_treeINSt7__cxx1112basic_stringIcSt11char_traitsIcESaIcEEESt4pairIKS5_dESt10_Select1stIS8_ESt4lessIS5_ESaIS8_EEC2Ev
0000000000000000 l    d  .text._ZNSt3mapINSt7__cxx1112basic_stringIcSt11char_traitsIcESaIcEEEdSt4lessIS5_ESaISt4pairIKS5_dEEEC2Ev	0000000000000000 .text._ZNSt3mapINSt7__cxx1112basic_stringIcSt11char_traitsIcESaIcEEEdSt4lessIS5_ESaISt4pairIKS5_dEEEC2Ev
0000000000000000 l    d  .text._ZNSt3mapINSt7__cxx1112basic_stringIcSt11char_traitsIcESaIcEEEdSt4lessIS5_ESaISt4pairIKS5_dEEED2Ev	0000000000000000 .text._ZNSt3mapINSt7__cxx1112basic_stringIcSt11char_traitsIcESaIcEEEdSt4lessIS5_ESaISt4pairIKS5_dEEED2Ev
0000000000000000 l    d  .text._ZN8tinygltf9ParameterC2Ev	0000000000000000 .text._ZN8tinygltf9ParameterC2Ev
0000000000000000 l    d  .text._ZN8tinygltf9ParameterD2Ev	0000000000000000 .text._ZN8tinygltf9ParameterD2Ev
0000000000031162 l     F .text	0000000000000c8e _ZN8tinygltfL13ParseMaterialEPNS_8MaterialEPNSt7__cxx1112basic_stringIcSt11char_traitsIcESaIcEEERKN8nlohmann10basic_jsonISt3mapSt6vectorS7_blmdSaNS9_14adl_serializerESC_IhSaIhEEEEb
0000000000047859 l     F .text	0000000000000148 _ZN8tinygltfL24ParseExtrasAndExtensionsINS_8MaterialEEEbPT_PNSt7__cxx1112basic_stringIcSt11char_traitsIcESaIcEEERKN8nlohmann10basic_jsonISt3mapSt6vectorS9_blmdSaNSB_14adl_serializerESE_IhSaIhEEEEb
0000000000031df0 l     F .text	00000000000005de _ZN8tinygltfL21ParseAnimationChannelEPNS_16AnimationChannelEPNSt7__cxx1112basic_stringIcSt11char_traitsIcESaIcEEERKN8nlohmann10basic_jsonISt3mapSt6vectorS7_blmdSaNS9_14adl_serializerESC_IhSaIhEEEEb
00000000000479a1 l     F .text	0000000000000145 _ZN8tinygltfL24ParseExtrasAndExtensionsINS_16AnimationChannelEEEbPT_PNSt7__cxx1112basic_stringIcSt11char_traitsIcESaIcEEERKN8nlohmann10basic_jsonISt3mapSt6vectorS9_blmdSaNSB_14adl_serializerESE_IhSaIhEEEEb
0000000000000000 l    d  .text._ZN8tinygltf16AnimationChannelC2Ev	0000000000000000 .text._ZN8tinygltf16AnimationChannelC2Ev
0000000000000000 l    d  .text._ZN8tinygltf16AnimationChannelD2Ev	0000000000000000 .text._ZN8tinygltf16AnimationChannelD2Ev
0000000000000000 l    d  .text._ZN8tinygltf16AnimationSamplerD2Ev	0000000000000000 .text._ZN8tinygltf16AnimationSamplerD2Ev
00000000000323ce l     F .text	00000000000007c6 _ZN8tinygltfL14ParseAnimationEPNS_9AnimationEPNSt7__cxx1112basic_stringIcSt11char_traitsIcESaIcEEERKN8nlohmann10basic_jsonISt3mapSt6vectorS7_blmdSaNS9_14adl_serializerESC_IhSaIhEEEEb
0000000000047ae6 l     F .text	0000000000000145 _ZN8tinygltfL24ParseExtrasAndExtensionsINS_16AnimationSamplerEEEbPT_PNSt7__cxx1112basic_stringIcSt11char_traitsIcESaIcEEERKN8nlohmann10basic_jsonISt3mapSt6vectorS9_blmdSaNSB_14adl_serializerESE_IhSaIhEEEEb
0000000000047c2b l     F .text	0000000000000145 _ZN8tinygltfL24ParseExtrasAndExtensionsINS_9AnimationEEEbPT_PNSt7__cxx1112basic_stringIcSt11char_traitsIcESaIcEEERKN8nlohmann10basic_jsonISt3mapSt6vectorS9_blmdSaNSB_14adl_serializerESE_IhSaIhEEEEb
0000000000032b94 l     F .text	0000000000000614 _ZN8tinygltfL12ParseSamplerEPNS_7SamplerEPNSt7__cxx1112basic_stringIcSt11char_traitsIcESaIcEEERKN8nlohmann10basic_jsonISt3mapSt6vectorS7_blmdSaNS9_14adl_serializerESC_IhSaIhEEEEb
0000000000047d70 l     F .text	0000000000000145 _ZN8tinygltfL24ParseExtrasAndExtensionsINS_7SamplerEEEbPT_PNSt7__cxx1112basic_stringIcSt11char_traitsIcESaIcEEERKN8nlohmann10basic_jsonISt3mapSt6vectorS9_blmdSaNSB_14adl_serializerESE_IhSaIhEEEEb
0000000000000000 l    d  .text._ZNSt12_Vector_baseIiSaIiEE12_Vector_implD2Ev	0000000000000000 .text._ZNSt12_Vector_baseIiSaIiEE12_Vector_implD2Ev
0000000000000000 l    d  .text._ZNSt12_Vector_baseIiSaIiEEC2Ev	0000000000000000 .text._ZNSt12_Vector_baseIiSaIiEEC2Ev
0000000000000000 l    d  .text._ZNSt6vectorIiSaIiEEC2Ev	0000000000000000 .text._ZNSt6vectorIiSaIiEEC2Ev
00000000000331a8 l     F .text	0000000000000561 _ZN8tinygltfL9ParseSkinEPNS_4SkinEPNSt7__cxx1112basic_stringIcSt11char_traitsIcESaIcEEERKN8nlohmann10basic_jsonISt3mapSt6vectorS7_blmdSaNS9_14adl_serializerESC_IhSaIhEEEEb
0000000000047eb5 l     F .text	0000000000000145 _ZN8tinygltfL24ParseExtrasAndExtensionsINS_4SkinEEEbPT_PNSt7__cxx1112basic_stringIcSt11char_traitsIcESaIcEEERKN8nlohmann10basic_jsonISt3mapSt6vectorS9_blmdSaNSB_14adl_serializerESE_IhSaIhEEEEb
0000000000033709 l     F .text	0000000000000572 _ZN8tinygltfL22ParsePerspectiveCameraEPNS_17PerspectiveCameraEPNSt7__cxx1112basic_stringIcSt11char_traitsIcESaIcEEERKN8nlohmann10basic_jsonISt3mapSt6vectorS7_blmdSaNS9_14adl_serializerESC_IhSaIhEEEEb
0000000000047ffa l     F .text	0000000000000142 _ZN8tinygltfL24ParseExtrasAndExtensionsINS_17PerspectiveCameraEEEbPT_PNSt7__cxx1112basic_stringIcSt11char_traitsIcESaIcEEERKN8nlohmann10basic_jsonISt3mapSt6vectorS9_blmdSaNSB_14adl_serializerESE_IhSaIhEEEEb
0000000000033c7b l     F .text	0000000000000281 _ZN8tinygltfL14ParseSpotLightEPNS_9SpotLightEPNSt7__cxx1112basic_stringIcSt11char_traitsIcESaIcEEERKN8nlohmann10basic_jsonISt3mapSt6vectorS7_blmdSaNS9_14adl_serializerESC_IhSaIhEEEEb
000000000004813c l     F .text	0000000000000142 _ZN8tinygltfL24ParseExtrasAndExtensionsINS_9SpotLightEEEbPT_PNSt7__cxx1112basic_stringIcSt11char_traitsIcESaIcEEERKN8nlohmann10basic_jsonISt3mapSt6vectorS9_blmdSaNSB_14adl_serializerESE_IhSaIhEEEEb
0000000000033efc l     F .text	0000000000000598 _ZN8tinygltfL23ParseOrthographicCameraEPNS_18OrthographicCameraEPNSt7__cxx1112basic_stringIcSt11char_traitsIcESaIcEEERKN8nlohmann10basic_jsonISt3mapSt6vectorS7_blmdSaNS9_14adl_serializerESC_IhSaIhEEEEb
000000000004827e l     F .text	0000000000000142 _ZN8tinygltfL24ParseExtrasAndExtensionsINS_18OrthographicCameraEEEbPT_PNSt7__cxx1112basic_stringIcSt11char_traitsIcESaIcEEERKN8nlohmann10basic_jsonISt3mapSt6vectorS9_blmdSaNSB_14adl_serializerESE_IhSaIhEEEEb
0000000000034494 l     F .text	0000000000000839 _ZN8tinygltfL11ParseCameraEPNS_6CameraEPNSt7__cxx1112basic_stringIcSt11char_traitsIcESaIcEEERKN8nlohmann10basic_jsonISt3mapSt6vectorS7_blmdSaNS9_14adl_serializerESC_IhSaIhEEEEb
00000000000483c0 l     F .text	0000000000000148 _ZN8tinygltfL24ParseExtrasAndExtensionsINS_6CameraEEEbPT_PNSt7__cxx1112basic_stringIcSt11char_traitsIcESaIcEEERKN8nlohmann10basic_jsonISt3mapSt6vectorS9_blmdSaNSB_14adl_serializerESE_IhSaIhEEEEb
0000000000034ccd l     F .text	00000000000007f9 _ZN8tinygltfL10ParseLightEPNS_5LightEPNSt7__cxx1112basic_stringIcSt11char_traitsIcESaIcEEERKN8nlohmann10basic_jsonISt3mapSt6vectorS7_blmdSaNS9_14adl_serializerESC_IhSaIhEEEEb
0000000000048508 l     F .text	0000000000000148 _ZN8tinygltfL24ParseExtrasAndExtensionsINS_5LightEEEbPT_PNSt7__cxx1112basic_stringIcSt11char_traitsIcESaIcEEERKN8nlohmann10basic_jsonISt3mapSt6vectorS9_blmdSaNSB_14adl_serializerESE_IhSaIhEEEEb
00000000000354c6 l     F .text	0000000000000731 _ZN8tinygltfL22ParsePositionalEmitterEPNS_17PositionalEmitterEPNSt7__cxx1112basic_stringIcSt11char_traitsIcESaIcEEERKN8nlohmann10basic_jsonISt3mapSt6vectorS7_blmdSaNS9_14adl_serializerESC_IhSaIhEEEEb
0000000000048650 l     F .text	0000000000000142 _ZN8tinygltfL24ParseExtrasAndExtensionsINS_17PositionalEmitterEEEbPT_PNSt7__cxx1112basic_stringIcSt11char_traitsIcESaIcEEERKN8nlohmann10basic_jsonISt3mapSt6vectorS9_blmdSaNSB_14adl_serializerESE_IhSaIhEEEEb
0000000000035bf7 l     F .text	0000000000000a11 _ZN8tinygltfL17ParseAudioEmitterEPNS_12AudioEmitterEPNSt7__cxx1112basic_stringIcSt11char_traitsIcESaIcEEERKN8nlohmann10basic_jsonISt3mapSt6vectorS7_blmdSaNS9_14adl_serializerESC_IhSaIhEEEEb
0000000000048792 l     F .text	0000000000000148 _ZN8tinygltfL24ParseExtrasAndExtensionsINS_12AudioEmitterEEEbPT_PNSt7__cxx1112basic_stringIcSt11char_traitsIcESaIcEEERKN8nlohmann10basic_jsonISt3mapSt6vectorS9_blmdSaNSB_14adl_serializerESE_IhSaIhEEEEb
0000000000036608 l     F .text	000000000000041f _ZN8tinygltfL16ParseAudioSourceEPNS_11AudioSourceEPNSt7__cxx1112basic_stringIcSt11char_traitsIcESaIcEEERKN8nlohmann10basic_jsonISt3mapSt6vectorS7_blmdSaNS9_14adl_serializerESC_IhSaIhEEEEb
00000000000488da l     F .text	0000000000000145 _ZN8tinygltfL24ParseExtrasAndExtensionsINS_11AudioSourceEEEbPT_PNSt7__cxx1112basic_stringIcSt11char_traitsIcESaIcEEERKN8nlohmann10basic_jsonISt3mapSt6vectorS9_blmdSaNSB_14adl_serializerESE_IhSaIhEEEEb
0000000000036a28 l     F .text	0000000000000061 _ZZN8tinygltf8TinyGLTF14LoadFromStringEPNS_5ModelEPNSt7__cxx1112basic_stringIcSt11char_traitsIcESaIcEEES9_PKcjRKS8_jENKUlRKN8nlohmann10basic_jsonISt3mapSt6vectorS8_blmdSaNSE_14adl_serializerESH_IhSaIhEEEESB_E_clESN_SB_
0000000000036a8a l     F .text	000000000000008d _ZZN8tinygltf8TinyGLTF14LoadFromStringEPNS_5ModelEPNSt7__cxx1112basic_stringIcSt11char_traitsIcESaIcEEES9_PKcjRKS8_jENKUlRKN8nlohmann10basic_jsonISt3mapSt6vectorS8_blmdSaNSE_14adl_serializerESH_IhSaIhEEEEE_clESN_
0000000000036b18 l     F .text	000000000000008d _ZZN8tinygltf8TinyGLTF14LoadFromStringEPNS_5ModelEPNSt7__cxx1112basic_stringIcSt11char_traitsIcESaIcEEES9_PKcjRKS8_jENKUlRKN8nlohmann10basic_jsonISt3mapSt6vectorS8_blmdSaNSE_14adl_serializerESH_IhSaIhEEEEE0_clESN_
0000000000000000 l    d  .text._ZN8tinygltf6BufferC2Ev	0000000000000000 .text._ZN8tinygltf6BufferC2Ev
0000000000000000 l    d  .text._ZN8tinygltf6BufferD2Ev	0000000000000000 .text._ZN8tinygltf6BufferD2Ev
0000000000036ba6 l     F .text	00000000000001ab _ZZN8tinygltf8TinyGLTF14LoadFromStringEPNS_5ModelEPNSt7__cxx1112basic_stringIcSt11char_traitsIcESaIcEEES9_PKcjRKS8_jENKUlRKN8nlohmann10basic_jsonISt3mapSt6vectorS8_blmdSaNSE_14adl_serializerESH_IhSaIhEEEEE1_clESN_
0000000000000000 l    d  .text._ZN8tinygltf10BufferViewC2Ev	0000000000000000 .text._ZN8tinygltf10BufferViewC2Ev
0000000000000000 l    d  .text._ZN8tinygltf10BufferViewD2Ev	0000000000000000 .text._ZN8tinygltf10BufferViewD2Ev
0000000000036d52 l     F .text	0000000000000124 _ZZN8tinygltf8TinyGLTF14LoadFromStringEPNS_5ModelEPNSt7__cxx1112basic_stringIcSt11char_traitsIcESaIcEEES9_PKcjRKS8_jENKUlRKN8nlohmann10basic_jsonISt3mapSt6vectorS8_blmdSaNSE_14adl_serializerESH_IhSaIhEEEEE2_clESN_
0000000000000000 l    d  .text._ZN8tinygltf8AccessorD2Ev	0000000000000000 .text._ZN8tinygltf8AccessorD2Ev
0000000000036e76 l     F .text	0000000000000123 _ZZN8tinygltf8TinyGLTF14LoadFromStringEPNS_5ModelEPNSt7__cxx1112basic_stringIcSt11char_traitsIcESaIcEEES9_PKcjRKS8_jENKUlRKN8nlohmann10basic_jsonISt3mapSt6vectorS8_blmdSaNSE_14adl_serializerESH_IhSaIhEEEEE3_clESN_
0000000000000000 l    d  .text._ZNSt12_Vector_baseIN8tinygltf9PrimitiveESaIS1_EE12_Vector_implD2Ev	0000000000000000 .text._ZNSt12_Vector_baseIN8tinygltf9PrimitiveESaIS1_EE12_Vector_implD2Ev
0000000000000000 l    d  .text._ZNSt12_Vector_baseIN8tinygltf9PrimitiveESaIS1_EEC2Ev	0000000000000000 .text._ZNSt12_Vector_baseIN8tinygltf9PrimitiveESaIS1_EEC2Ev
0000000000000000 l    d  .text._ZNSt6vectorIN8tinygltf9PrimitiveESaIS1_EEC2Ev	0000000000000000 .text._ZNSt6vectorIN8tinygltf9PrimitiveESaIS1_EEC2Ev
0000000000000000 l    d  .text._ZN8tinygltf4MeshC2Ev	0000000000000000 .text._ZN8tinygltf4MeshC2Ev
0000000000000000 l    d  .text._ZN8tinygltf4MeshD2Ev	0000000000000000 .text._ZN8tinygltf4MeshD2Ev
0000000000036f9a l     F .text	0000000000000135 _ZZN8tinygltf8TinyGLTF14LoadFromStringEPNS_5ModelEPNSt7__cxx1112basic_stringIcSt11char_traitsIcESaIcEEES9_PKcjRKS8_jENKUlRKN8nlohmann10basic_jsonISt3mapSt6vectorS8_blmdSaNSE_14adl_serializerESH_IhSaIhEEEEE4_clESN_
0000000000000000 l    d  .text._ZN8tinygltf4NodeC2Ev	0000000000000000 .text._ZN8tinygltf4NodeC2Ev
0000000000000000 l    d  .text._ZN8tinygltf4NodeD2Ev	0000000000000000 .text._ZN8tinygltf4NodeD2Ev
00000000000370d0 l     F .text	0000000000000127 _ZZN8tinygltf8TinyGLTF14LoadFromStringEPNS_5ModelEPNSt7__cxx1112basic_stringIcSt11char_traitsIcESaIcEEES9_PKcjRKS8_jENKUlRKN8nlohmann10basic_jsonISt3mapSt6vectorS8_blmdSaNSE_14adl_serializerESH_IhSaIhEEEEE5_clESN_
0000000000000000 l    d  .text._ZN8tinygltf5SceneC2Ev	0000000000000000 .text._ZN8tinygltf5SceneC2Ev
0000000000000000 l    d  .text._ZN8tinygltf5SceneD2Ev	0000000000000000 .text._ZN8tinygltf5SceneD2Ev
00000000000371f8 l     F .text	0000000000000127 _ZZN8tinygltf8TinyGLTF14LoadFromStringEPNS_5ModelEPNSt7__cxx1112basic_stringIcSt11char_traitsIcESaIcEEES9_PKcjRKS8_jENKUlRKN8nlohmann10basic_jsonISt3mapSt6vectorS8_blmdSaNSE_14adl_serializerESH_IhSaIhEEEEE6_clESN_
0000000000000000 l    d  .text._ZN8tinygltf8MaterialD2Ev	0000000000000000 .text._ZN8tinygltf8MaterialD2Ev
0000000000037320 l     F .text	00000000000001dc _ZZN8tinygltf8TinyGLTF14LoadFromStringEPNS_5ModelEPNSt7__cxx1112basic_stringIcSt11char_traitsIcESaIcEEES9_PKcjRKS8_jENKUlRKN8nlohmann10basic_jsonISt3mapSt6vectorS8_blmdSaNSE_14adl_serializerESH_IhSaIhEEEEE7_clESN_
0000000000000000 l    d  .text._ZN8tinygltf5ImageC2Ev	0000000000000000 .text._ZN8tinygltf5ImageC2Ev
0000000000000000 l    d  .text._ZN8tinygltf5ImageD2Ev	0000000000000000 .text._ZN8tinygltf5ImageD2Ev
00000000000374fc l     F .text	00000000000006be _ZZN8tinygltf8TinyGLTF14LoadFromStringEPNS_5ModelEPNSt7__cxx1112basic_stringIcSt11char_traitsIcESaIcEEES9_PKcjRKS8_jENKUlRKN8nlohmann10basic_jsonISt3mapSt6vectorS8_blmdSaNSE_14adl_serializerESH_IhSaIhEEEEE8_clESN_
0000000000000000 l    d  .text._ZN8tinygltf7TextureC2Ev	0000000000000000 .text._ZN8tinygltf7TextureC2Ev
0000000000000000 l    d  .text._ZN8tinygltf7TextureD2Ev	0000000000000000 .text._ZN8tinygltf7TextureD2Ev
0000000000037bba l     F .text	0000000000000135 _ZZN8tinygltf8TinyGLTF14LoadFromStringEPNS_5ModelEPNSt7__cxx1112basic_stringIcSt11char_traitsIcESaIcEEES9_PKcjRKS8_jENKUlRKN8nlohmann10basic_jsonISt3mapSt6vectorS8_blmdSaNSE_14adl_serializerESH_IhSaIhEEEEE9_clESN_
0000000000000000 l    d  .text._ZNSt12_Vector_baseIN8tinygltf16AnimationChannelESaIS1_EE12_Vector_implD2Ev	0000000000000000 .text._ZNSt12_Vector_baseIN8tinygltf16AnimationChannelESaIS1_EE12_Vector_implD2Ev
0000000000000000 l    d  .text._ZNSt12_Vector_baseIN8tinygltf16AnimationChannelESaIS1_EEC2Ev	0000000000000000 .text._ZNSt12_Vector_baseIN8tinygltf16AnimationChannelESaIS1_EEC2Ev
0000000000000000 l    d  .text._ZNSt6vectorIN8tinygltf16AnimationChannelESaIS1_EEC2Ev	0000000000000000 .text._ZNSt6vectorIN8tinygltf16AnimationChannelESaIS1_EEC2Ev
0000000000000000 l    d  .text._ZNSt12_Vector_baseIN8tinygltf16AnimationSamplerESaIS1_EE12_Vector_implD2Ev	0000000000000000 .text._ZNSt12_Vector_baseIN8tinygltf16AnimationSamplerESaIS1_EE12_Vector_implD2Ev
0000000000000000 l    d  .text._ZNSt12_Vector_baseIN8tinygltf16AnimationSamplerESaIS1_EEC2Ev	0000000000000000 .text._ZNSt12_Vector_baseIN8tinygltf16AnimationSamplerESaIS1_EEC2Ev
0000000000000000 l    d  .text._ZNSt6vectorIN8tinygltf16AnimationSamplerESaIS1_EEC2Ev	0000000000000000 .text._ZNSt6vectorIN8tinygltf16AnimationSamplerESaIS1_EEC2Ev
0000000000000000 l    d  .text._ZN8tinygltf9AnimationC2Ev	0000000000000000 .text._ZN8tinygltf9AnimationC2Ev
0000000000000000 l    d  .text._ZN8tinygltf9AnimationD2Ev	0000000000000000 .text._ZN8tinygltf9AnimationD2Ev
0000000000037cf0 l     F .text	0000000000000124 _ZZN8tinygltf8TinyGLTF14LoadFromStringEPNS_5ModelEPNSt7__cxx1112basic_stringIcSt11char_traitsIcESaIcEEES9_PKcjRKS8_jENKUlRKN8nlohmann10basic_jsonISt3mapSt6vectorS8_blmdSaNSE_14adl_serializerESH_IhSaIhEEEEE10_clESN_
0000000000000000 l    d  .text._ZN8tinygltf4SkinC2Ev	0000000000000000 .text._ZN8tinygltf4SkinC2Ev
0000000000000000 l    d  .text._ZN8tinygltf4SkinD2Ev	0000000000000000 .text._ZN8tinygltf4SkinD2Ev
0000000000037e14 l     F .text	0000000000000127 _ZZN8tinygltf8TinyGLTF14LoadFromStringEPNS_5ModelEPNSt7__cxx1112basic_stringIcSt11char_traitsIcESaIcEEES9_PKcjRKS8_jENKUlRKN8nlohmann10basic_jsonISt3mapSt6vectorS8_blmdSaNSE_14adl_serializerESH_IhSaIhEEEEE11_clESN_
0000000000000000 l    d  .text._ZN8tinygltf7SamplerC2Ev	0000000000000000 .text._ZN8tinygltf7SamplerC2Ev
0000000000000000 l    d  .text._ZN8tinygltf7SamplerD2Ev	0000000000000000 .text._ZN8tinygltf7SamplerD2Ev
0000000000037f3c l     F .text	0000000000000127 _ZZN8tinygltf8TinyGLTF14LoadFromStringEPNS_5ModelEPNSt7__cxx1112basic_stringIcSt11char_traitsIcESaIcEEES9_PKcjRKS8_jENKUlRKN8nlohmann10basic_jsonISt3mapSt6vectorS8_blmdSaNSE_14adl_serializerESH_IhSaIhEEEEE12_clESN_
0000000000000000 l    d  .text._ZN8tinygltf17PerspectiveCameraC2Ev	0000000000000000 .text._ZN8tinygltf17PerspectiveCameraC2Ev
0000000000000000 l    d  .text._ZN8tinygltf17PerspectiveCameraD2Ev	0000000000000000 .text._ZN8tinygltf17PerspectiveCameraD2Ev
0000000000000000 l    d  .text._ZN8tinygltf18OrthographicCameraC2Ev	0000000000000000 .text._ZN8tinygltf18OrthographicCameraC2Ev
0000000000000000 l    d  .text._ZN8tinygltf18OrthographicCameraD2Ev	0000000000000000 .text._ZN8tinygltf18OrthographicCameraD2Ev
0000000000000000 l    d  .text._ZN8tinygltf6CameraC2Ev	0000000000000000 .text._ZN8tinygltf6CameraC2Ev
0000000000000000 l    d  .text._ZN8tinygltf6CameraD2Ev	0000000000000000 .text._ZN8tinygltf6CameraD2Ev
0000000000038064 l     F .text	0000000000000127 _ZZN8tinygltf8TinyGLTF14LoadFromStringEPNS_5ModelEPNSt7__cxx1112basic_stringIcSt11char_traitsIcESaIcEEES9_PKcjRKS8_jENKUlRKN8nlohmann10basic_jsonISt3mapSt6vectorS8_blmdSaNSE_14adl_serializerESH_IhSaIhEEEEE13_clESN_
0000000000000000 l    d  .text._ZN8tinygltf9SpotLightC2Ev	0000000000000000 .text._ZN8tinygltf9SpotLightC2Ev
0000000000000000 l    d  .text._ZN8tinygltf9SpotLightD2Ev	0000000000000000 .text._ZN8tinygltf9SpotLightD2Ev
0000000000000000 l    d  .text._ZN8tinygltf5LightC2Ev	0000000000000000 .text._ZN8tinygltf5LightC2Ev
0000000000000000 l    d  .text._ZN8tinygltf5LightD2Ev	0000000000000000 .text._ZN8tinygltf5LightD2Ev
0000000000000000 l    d  .text._ZN8tinygltf12AudioEmitterD2Ev	0000000000000000 .text._ZN8tinygltf12AudioEmitterD2Ev
0000000000000000 l    d  .text._ZN8tinygltf11AudioSourceC2Ev	0000000000000000 .text._ZN8tinygltf11AudioSourceC2Ev
0000000000000000 l    d  .text._ZN8tinygltf11AudioSourceD2Ev	0000000000000000 .text._ZN8tinygltf11AudioSourceD2Ev
0000000000048a1f l     F .text	00000000000000fe _ZN8tinygltf6detail14ForEachInArrayIZNS_8TinyGLTF14LoadFromStringEPNS_5ModelEPNSt7__cxx1112basic_stringIcSt11char_traitsIcESaIcEEESB_PKcjRKSA_jEUlRKN8nlohmann10basic_jsonISt3mapSt6vectorSA_blmdSaNSG_14adl_serializerESJ_IhSaIhEEEEE_EEbSP_SD_OT_
0000000000048b1d l     F .text	00000000000000fe _ZN8tinygltf6detail14ForEachInArrayIZNS_8TinyGLTF14LoadFromStringEPNS_5ModelEPNSt7__cxx1112basic_stringIcSt11char_traitsIcESaIcEEESB_PKcjRKSA_jEUlRKN8nlohmann10basic_jsonISt3mapSt6vectorSA_blmdSaNSG_14adl_serializerESJ_IhSaIhEEEEE0_EEbSP_SD_OT_
0000000000048c1b l     F .text	00000000000000fe _ZN8tinygltf6detail14ForEachInArrayIZNS_8TinyGLTF14LoadFromStringEPNS_5ModelEPNSt7__cxx1112basic_stringIcSt11char_traitsIcESaIcEEESB_PKcjRKSA_jEUlRKN8nlohmann10basic_jsonISt3mapSt6vectorSA_blmdSaNSG_14adl_serializerESJ_IhSaIhEEEEE1_EEbSP_SD_OT_
0000000000048d19 l     F .text	00000000000000fe _ZN8tinygltf6detail14ForEachInArrayIZNS_8TinyGLTF14LoadFromStringEPNS_5ModelEPNSt7__cxx1112basic_stringIcSt11char_traitsIcESaIcEEESB_PKcjRKSA_jEUlRKN8nlohmann10basic_jsonISt3mapSt6vectorSA_blmdSaNSG_14adl_serializerESJ_IhSaIhEEEEE2_EEbSP_SD_OT_
0000000000048e17 l     F .text	00000000000000fe _ZN8tinygltf6detail14ForEachInArrayIZNS_8TinyGLTF14LoadFromStringEPNS_5ModelEPNSt7__cxx1112basic_stringIcSt11char_traitsIcESaIcEEESB_PKcjRKSA_jEUlRKN8nlohmann10basic_jsonISt3mapSt6vectorSA_blmdSaNSG_14adl_serializerESJ_IhSaIhEEEEE3_EEbSP_SD_OT_
0000000000048f15 l     F .text	00000000000000fe _ZN8tinygltf6detail14ForEachInArrayIZNS_8TinyGLTF14LoadFromStringEPNS_5ModelEPNSt7__cxx1112basic_stringIcSt11char_traitsIcESaIcEEESB_PKcjRKSA_jEUlRKN8nlohmann10basic_jsonISt3mapSt6vectorSA_blmdSaNSG_14adl_serializerESJ_IhSaIhEEEEE4_EEbSP_SD_OT_
0000000000049013 l     F .text	00000000000000fe _ZN8tinygltf6detail14ForEachInArrayIZNS_8TinyGLTF14LoadFromStringEPNS_5ModelEPNSt7__cxx1112basic_stringIcSt11char_traitsIcESaIcEEESB_PKcjRKSA_jEUlRKN8nlohmann10basic_jsonISt3mapSt6vectorSA_blmdSaNSG_14adl_serializerESJ_IhSaIhEEEEE5_EEbSP_SD_OT_
0000000000049111 l     F .text	00000000000000fe _ZN8tinygltf6detail14ForEachInArrayIZNS_8TinyGLTF14LoadFromStringEPNS_5ModelEPNSt7__cxx1112basic_stringIcSt11char_traitsIcESaIcEEESB_PKcjRKSA_jEUlRKN8nlohmann10basic_jsonISt3mapSt6vectorSA_blmdSaNSG_14adl_serializerESJ_IhSaIhEEEEE6_EEbSP_SD_OT_
000000000004920f l     F .text	00000000000000fe _ZN8tinygltf6detail14ForEachInArrayIZNS_8TinyGLTF14LoadFromStringEPNS_5ModelEPNSt7__cxx1112basic_stringIcSt11char_traitsIcESaIcEEESB_PKcjRKSA_jEUlRKN8nlohmann10basic_jsonISt3mapSt6vectorSA_blmdSaNSG_14adl_serializerESJ_IhSaIhEEEEE7_EEbSP_SD_OT_
000000000004930d l     F .text	00000000000000fe _ZN8tinygltf6detail14ForEachInArrayIZNS_8TinyGLTF14LoadFromStringEPNS_5ModelEPNSt7__cxx1112basic_stringIcSt11char_traitsIcESaIcEEESB_PKcjRKSA_jEUlRKN8nlohmann10basic_jsonISt3mapSt6vectorSA_blmdSaNSG_14adl_serializerESJ_IhSaIhEEEEE8_EEbSP_SD_OT_
000000000004940b l     F .text	00000000000000fe _ZN8tinygltf6detail14ForEachInArrayIZNS_8TinyGLTF14LoadFromStringEPNS_5ModelEPNSt7__cxx1112basic_stringIcSt11char_traitsIcESaIcEEESB_PKcjRKSA_jEUlRKN8nlohmann10basic_jsonISt3mapSt6vectorSA_blmdSaNSG_14adl_serializerESJ_IhSaIhEEEEE9_EEbSP_SD_OT_
0000000000049509 l     F .text	00000000000000fe _ZN8tinygltf6detail14ForEachInArrayIZNS_8TinyGLTF14LoadFromStringEPNS_5ModelEPNSt7__cxx1112basic_stringIcSt11char_traitsIcESaIcEEESB_PKcjRKSA_jEUlRKN8nlohmann10basic_jsonISt3mapSt6vectorSA_blmdSaNSG_14adl_serializerESJ_IhSaIhEEEEE10_EEbSP_SD_OT_
0000000000049607 l     F .text	00000000000000fe _ZN8tinygltf6detail14ForEachInArrayIZNS_8TinyGLTF14LoadFromStringEPNS_5ModelEPNSt7__cxx1112basic_stringIcSt11char_traitsIcESaIcEEESB_PKcjRKSA_jEUlRKN8nlohmann10basic_jsonISt3mapSt6vectorSA_blmdSaNSG_14adl_serializerESJ_IhSaIhEEEEE11_EEbSP_SD_OT_
0000000000049705 l     F .text	00000000000000fe _ZN8tinygltf6detail14ForEachInArrayIZNS_8TinyGLTF14LoadFromStringEPNS_5ModelEPNSt7__cxx1112basic_stringIcSt11char_traitsIcESaIcEEESB_PKcjRKSA_jEUlRKN8nlohmann10basic_jsonISt3mapSt6vectorSA_blmdSaNSG_14adl_serializerESJ_IhSaIhEEEEE12_EEbSP_SD_OT_
0000000000049803 l     F .text	00000000000000fe _ZN8tinygltf6detail14ForEachInArrayIZNS_8TinyGLTF14LoadFromStringEPNS_5ModelEPNSt7__cxx1112basic_stringIcSt11char_traitsIcESaIcEEESB_PKcjRKSA_jEUlRKN8nlohmann10basic_jsonISt3mapSt6vectorSA_blmdSaNSG_14adl_serializerESJ_IhSaIhEEEEE13_EEbSP_SD_OT_
0000000000049901 l     F .text	0000000000000148 _ZN8tinygltfL24ParseExtrasAndExtensionsINS_5ModelEEEbPT_PNSt7__cxx1112basic_stringIcSt11char_traitsIcESaIcEEERKN8nlohmann10basic_jsonISt3mapSt6vectorS9_blmdSaNSB_14adl_serializerESE_IhSaIhEEEEb
000000000003a99a l     F .text	0000000000000083 _ZN8tinygltfL23SerializeStringPropertyERKNSt7__cxx1112basic_stringIcSt11char_traitsIcESaIcEEES7_RN8nlohmann10basic_jsonISt3mapSt6vectorS5_blmdSaNS8_14adl_serializerESB_IhSaIhEEEE
000000000003aa1d l     F .text	000000000000014d _ZN8tinygltfL28SerializeStringArrayPropertyERKNSt7__cxx1112basic_stringIcSt11char_traitsIcESaIcEEERKSt6vectorIS5_SaIS5_EERN8nlohmann10basic_jsonISt3mapS8_S5_blmdSaNSD_14adl_serializerES8_IhSaIhEEEE
000000000003ab6a l     F .text	0000000000000494 _ZN8tinygltfL11ValueToJsonERKNS_5ValueEPN8nlohmann10basic_jsonISt3mapSt6vectorNSt7__cxx1112basic_stringIcSt11char_traitsIcESaIcEEEblmdSaNS3_14adl_serializerES6_IhSaIhEEEE
000000000003affe l     F .text	000000000000009b _ZN8tinygltfL14SerializeValueERKNSt7__cxx1112basic_stringIcSt11char_traitsIcESaIcEEERKNS_5ValueERN8nlohmann10basic_jsonISt3mapSt6vectorS5_blmdSaNSB_14adl_serializerESE_IhSaIhEEEE
000000000003b099 l     F .text	0000000000000262 _ZN8tinygltfL23SerializeGltfBufferDataERKSt6vectorIhSaIhEERN8nlohmann10basic_jsonISt3mapS0_NSt7__cxx1112basic_stringIcSt11char_traitsIcESaIcEEEblmdSaNS5_14adl_serializerES2_EE
000000000003b2fb l     F .text	00000000000000f2 _ZN8tinygltfL23SerializeGltfBufferDataERKSt6vectorIhSaIhEERKNSt7__cxx1112basic_stringIcSt11char_traitsIcESaIcEEE
000000000003b3ed l     F .text	000000000000020b _ZN8tinygltfL21SerializeExtensionMapERKSt3mapINSt7__cxx1112basic_stringIcSt11char_traitsIcESaIcEEENS_5ValueESt4lessIS6_ESaISt4pairIKS6_S7_EEERN8nlohmann10basic_jsonIS0_St6vectorS6_blmdSaNSH_14adl_serializerESJ_IhSaIhEEEE
000000000003b5f8 l     F .text	00000000000000b3 _ZN8tinygltfL15SerializeExtrasERKNS_5ValueERN8nlohmann10basic_jsonISt3mapSt6vectorNSt7__cxx1112basic_stringIcSt11char_traitsIcESaIcEEEblmdSaNS3_14adl_serializerES6_IhSaIhEEEE
000000000003b6ac l     F .text	0000000000000018 _ZZN8tinygltfL21SerializeGltfAccessorERKNS_8AccessorERN8nlohmann10basic_jsonISt3mapSt6vectorNSt7__cxx1112basic_stringIcSt11char_traitsIcESaIcEEEblmdSaNS3_14adl_serializerES6_IhSaIhEEEEENKUldE_clEd
000000000003b6c4 l     F .text	0000000000000018 _ZZN8tinygltfL21SerializeGltfAccessorERKNS_8AccessorERN8nlohmann10basic_jsonISt3mapSt6vectorNSt7__cxx1112basic_stringIcSt11char_traitsIcESaIcEEEblmdSaNS3_14adl_serializerES6_IhSaIhEEEEENKUldE0_clEd
000000000003b6dc l     F .text	0000000000000f5f _ZN8tinygltfL21SerializeGltfAccessorERKNS_8AccessorERN8nlohmann10basic_jsonISt3mapSt6vectorNSt7__cxx1112basic_stringIcSt11char_traitsIcESaIcEEEblmdSaNS3_14adl_serializerES6_IhSaIhEEEE
0000000000049a49 l     F .text	0000000000000077 _ZN8tinygltfL23SerializeNumberPropertyIiEEvRKNSt7__cxx1112basic_stringIcSt11char_traitsIcESaIcEEET_RN8nlohmann10basic_jsonISt3mapSt6vectorS6_blmdSaNSA_14adl_serializerESD_IhSaIhEEEE
0000000000049ac0 l     F .text	0000000000000078 _ZN8tinygltfL23SerializeNumberPropertyImEEvRKNSt7__cxx1112basic_stringIcSt11char_traitsIcESaIcEEET_RN8nlohmann10basic_jsonISt3mapSt6vectorS6_blmdSaNSA_14adl_serializerESD_IhSaIhEEEE
0000000000049b38 l     F .text	0000000000000157 _ZN8tinygltfL28SerializeNumberArrayPropertyIdEEvRKNSt7__cxx1112basic_stringIcSt11char_traitsIcESaIcEEERKSt6vectorIT_SaISA_EERN8nlohmann10basic_jsonISt3mapS9_S6_blmdSaNSF_14adl_serializerES9_IhSaIhEEEE
0000000000049c8f l     F .text	000000000000008c _ZSt9transformIN9__gnu_cxx17__normal_iteratorIPKdSt6vectorIdSaIdEEEESt20back_insert_iteratorIS4_IiSaIiEEEZN8tinygltfL21SerializeGltfAccessorERKNSC_8AccessorERN8nlohmann10basic_jsonISt3mapS4_NSt7__cxx1112basic_stringIcSt11char_traitsIcESaIcEEEblmdSaNSG_14adl_serializerES4_IhSaIhEEEEEUldE_ET0_T_SW_SV_T1_
0000000000049d1b l     F .text	0000000000000157 _ZN8tinygltfL28SerializeNumberArrayPropertyIiEEvRKNSt7__cxx1112basic_stringIcSt11char_traitsIcESaIcEEERKSt6vectorIT_SaISA_EERN8nlohmann10basic_jsonISt3mapS9_S6_blmdSaNSF_14adl_serializerES9_IhSaIhEEEE
0000000000049e72 l     F .text	000000000000008c _ZSt9transformIN9__gnu_cxx17__normal_iteratorIPKdSt6vectorIdSaIdEEEESt20back_insert_iteratorIS4_IiSaIiEEEZN8tinygltfL21SerializeGltfAccessorERKNSC_8AccessorERN8nlohmann10basic_jsonISt3mapS4_NSt7__cxx1112basic_stringIcSt11char_traitsIcESaIcEEEblmdSaNSG_14adl_serializerES4_IhSaIhEEEEEUldE0_ET0_T_SW_SV_T1_
000000000003c63b l     F .text	0000000000000296 _ZN8tinygltfL29SerializeGltfAnimationChannelERKNS_16AnimationChannelERN8nlohmann10basic_jsonISt3mapSt6vectorNSt7__cxx1112basic_stringIcSt11char_traitsIcESaIcEEEblmdSaNS3_14adl_serializerES6_IhSaIhEEEE
000000000003c8d1 l     F .text	00000000000001ef _ZN8tinygltfL29SerializeGltfAnimationSamplerERKNS_16AnimationSamplerERN8nlohmann10basic_jsonISt3mapSt6vectorNSt7__cxx1112basic_stringIcSt11char_traitsIcESaIcEEEblmdSaNS3_14adl_serializerES6_IhSaIhEEEE
0000000000000000 l    d  .text._ZN8tinygltf16AnimationChannelC2ERKS0_	0000000000000000 .text._ZN8tinygltf16AnimationChannelC2ERKS0_
0000000000000000 l    d  .text._ZN8tinygltf16AnimationSamplerC2ERKS0_	0000000000000000 .text._ZN8tinygltf16AnimationSamplerC2ERKS0_
000000000003cac0 l     F .text	00000000000003bf _ZN8tinygltfL22SerializeGltfAnimationERKNS_9AnimationERN8nlohmann10basic_jsonISt3mapSt6vectorNSt7__cxx1112basic_stringIcSt11char_traitsIcESaIcEEEblmdSaNS3_14adl_serializerES6_IhSaIhEEEE
000000000003ce7f l     F .text	000000000000028c _ZN8tinygltfL18SerializeGltfAssetERKNS_5AssetERN8nlohmann10basic_jsonISt3mapSt6vectorNSt7__cxx1112basic_stringIcSt11char_traitsIcESaIcEEEblmdSaNS3_14adl_serializerES6_IhSaIhEEEE
000000000003d10b l     F .text	0000000000000193 _ZN8tinygltfL22SerializeGltfBufferBinERKNS_6BufferERN8nlohmann10basic_jsonISt3mapSt6vectorNSt7__cxx1112basic_stringIcSt11char_traitsIcESaIcEEEblmdSaNS3_14adl_serializerES6_IhSaIhEEEERSF_
000000000003d29e l     F .text	000000000000018c _ZN8tinygltfL19SerializeGltfBufferERKNS_6BufferERN8nlohmann10basic_jsonISt3mapSt6vectorNSt7__cxx1112basic_stringIcSt11char_traitsIcESaIcEEEblmdSaNS3_14adl_serializerES6_IhSaIhEEEE
000000000003d42a l     F .text	0000000000000251 _ZN8tinygltfL19SerializeGltfBufferERKNS_6BufferERN8nlohmann10basic_jsonISt3mapSt6vectorNSt7__cxx1112basic_stringIcSt11char_traitsIcESaIcEEEblmdSaNS3_14adl_serializerES6_IhSaIhEEEERKSC_SJ_
000000000003d67b l     F .text	000000000000043a _ZN8tinygltfL23SerializeGltfBufferViewERKNS_10BufferViewERN8nlohmann10basic_jsonISt3mapSt6vectorNSt7__cxx1112basic_stringIcSt11char_traitsIcESaIcEEEblmdSaNS3_14adl_serializerES6_IhSaIhEEEE
000000000003dab5 l     F .text	00000000000002d0 _ZN8tinygltfL18SerializeGltfImageERKNS_5ImageERKNSt7__cxx1112basic_stringIcSt11char_traitsIcESaIcEEERN8nlohmann10basic_jsonISt3mapSt6vectorS8_blmdSaNSB_14adl_serializerESE_IhSaIhEEEE
000000000003dd85 l     F .text	0000000000000158 _ZN8tinygltfL24SerializeGltfTextureInfoERKNS_11TextureInfoERN8nlohmann10basic_jsonISt3mapSt6vectorNSt7__cxx1112basic_stringIcSt11char_traitsIcESaIcEEEblmdSaNS3_14adl_serializerES6_IhSaIhEEEE
000000000003dedd l     F .text	000000000000023c _ZN8tinygltfL30SerializeGltfNormalTextureInfoERKNS_17NormalTextureInfoERN8nlohmann10basic_jsonISt3mapSt6vectorNSt7__cxx1112basic_stringIcSt11char_traitsIcESaIcEEEblmdSaNS3_14adl_serializerES6_IhSaIhEEEE
0000000000049efe l     F .text	0000000000000079 _ZN8tinygltfL23SerializeNumberPropertyIdEEvRKNSt7__cxx1112basic_stringIcSt11char_traitsIcESaIcEEET_RN8nlohmann10basic_jsonISt3mapSt6vectorS6_blmdSaNSA_14adl_serializerESD_IhSaIhEEEE
000000000003e119 l     F .text	000000000000023c _ZN8tinygltfL33SerializeGltfOcclusionTextureInfoERKNS_20OcclusionTextureInfoERN8nlohmann10basic_jsonISt3mapSt6vectorNSt7__cxx1112basic_stringIcSt11char_traitsIcESaIcEEEblmdSaNS3_14adl_serializerES6_IhSaIhEEEE
000000000003e355 l     F .text	000000000000047d _ZN8tinygltfL33SerializeGltfPbrMetallicRoughnessERKNS_20PbrMetallicRoughnessERN8nlohmann10basic_jsonISt3mapSt6vectorNSt7__cxx1112basic_stringIcSt11char_traitsIcESaIcEEEblmdSaNS3_14adl_serializerES6_IhSaIhEEEE
000000000003e7d2 l     F .text	00000000000006ea _ZN8tinygltfL21SerializeGltfMaterialERKNS_8MaterialERN8nlohmann10basic_jsonISt3mapSt6vectorNSt7__cxx1112basic_stringIcSt11char_traitsIcESaIcEEEblmdSaNS3_14adl_serializerES6_IhSaIhEEEE
0000000000000000 l    d  .text._ZNSt3mapINSt7__cxx1112basic_stringIcSt11char_traitsIcESaIcEEEiSt4lessIS5_ESaISt4pairIKS5_iEEEC2ERKSC_	0000000000000000 .text._ZNSt3mapINSt7__cxx1112basic_stringIcSt11char_traitsIcESaIcEEEiSt4lessIS5_ESaISt4pairIKS5_iEEEC2ERKSC_
000000000003eebc l     F .text	00000000000007aa _ZN8tinygltfL17SerializeGltfMeshERKNS_4MeshERN8nlohmann10basic_jsonISt3mapSt6vectorNSt7__cxx1112basic_stringIcSt11char_traitsIcESaIcEEEblmdSaNS3_14adl_serializerES6_IhSaIhEEEE
000000000003f666 l     F .text	0000000000000158 _ZN8tinygltfL18SerializeSpotLightERKNS_9SpotLightERN8nlohmann10basic_jsonISt3mapSt6vectorNSt7__cxx1112basic_stringIcSt11char_traitsIcESaIcEEEblmdSaNS3_14adl_serializerES6_IhSaIhEEEE
000000000003f7be l     F .text	000000000000041f _ZN8tinygltfL18SerializeGltfLightERKNS_5LightERN8nlohmann10basic_jsonISt3mapSt6vectorNSt7__cxx1112basic_stringIcSt11char_traitsIcESaIcEEEblmdSaNS3_14adl_serializerES6_IhSaIhEEEE
000000000003fbdd l     F .text	000000000000053a _ZN8tinygltfL30SerializeGltfPositionalEmitterERKNS_17PositionalEmitterERN8nlohmann10basic_jsonISt3mapSt6vectorNSt7__cxx1112basic_stringIcSt11char_traitsIcESaIcEEEblmdSaNS3_14adl_serializerES6_IhSaIhEEEE
0000000000040117 l     F .text	00000000000005d9 _ZN8tinygltfL25SerializeGltfAudioEmitterERKNS_12AudioEmitterERN8nlohmann10basic_jsonISt3mapSt6vectorNSt7__cxx1112basic_stringIcSt11char_traitsIcESaIcEEEblmdSaNS3_14adl_serializerES6_IhSaIhEEEE
0000000000049f77 l     F .text	0000000000000079 _ZN8tinygltfL23SerializeNumberPropertyIbEEvRKNSt7__cxx1112basic_stringIcSt11char_traitsIcESaIcEEET_RN8nlohmann10basic_jsonISt3mapSt6vectorS6_blmdSaNSA_14adl_serializerESD_IhSaIhEEEE
00000000000406f0 l     F .text	000000000000033f _ZN8tinygltfL24SerializeGltfAudioSourceERKNS_11AudioSourceERN8nlohmann10basic_jsonISt3mapSt6vectorNSt7__cxx1112basic_stringIcSt11char_traitsIcESaIcEEEblmdSaNS3_14adl_serializerES6_IhSaIhEEEE
0000000000000000 l    d  .text._ZN8nlohmann6detail9iter_implINS_10basic_jsonISt3mapSt6vectorNSt7__cxx1112basic_stringIcSt11char_traitsIcESaIcEEEblmdSaNS_14adl_serializerES4_IhSaIhEEEEEC2Ev	0000000000000000 .text._ZN8nlohmann6detail9iter_implINS_10basic_jsonISt3mapSt6vectorNSt7__cxx1112basic_stringIcSt11char_traitsIcESaIcEEEblmdSaNS_14adl_serializerES4_IhSaIhEEEEEC2Ev
0000000000040a2f l     F .text	0000000000000db5 _ZN8tinygltfL17SerializeGltfNodeERKNS_4NodeERN8nlohmann10basic_jsonISt3mapSt6vectorNSt7__cxx1112basic_stringIcSt11char_traitsIcESaIcEEEblmdSaNS3_14adl_serializerES6_IhSaIhEEEE
00000000000417e4 l     F .text	000000000000036c _ZN8tinygltfL20SerializeGltfSamplerERKNS_7SamplerERN8nlohmann10basic_jsonISt3mapSt6vectorNSt7__cxx1112basic_stringIcSt11char_traitsIcESaIcEEEblmdSaNS3_14adl_serializerES6_IhSaIhEEEE
0000000000041b50 l     F .text	00000000000002b5 _ZN8tinygltfL31SerializeGltfOrthographicCameraERKNS_18OrthographicCameraERN8nlohmann10basic_jsonISt3mapSt6vectorNSt7__cxx1112basic_stringIcSt11char_traitsIcESaIcEEEblmdSaNS3_14adl_serializerES6_IhSaIhEEEE
0000000000041e05 l     F .text	00000000000002e0 _ZN8tinygltfL30SerializeGltfPerspectiveCameraERKNS_17PerspectiveCameraERN8nlohmann10basic_jsonISt3mapSt6vectorNSt7__cxx1112basic_stringIcSt11char_traitsIcESaIcEEEblmdSaNS3_14adl_serializerES6_IhSaIhEEEE
00000000000420e5 l     F .text	00000000000002c4 _ZN8tinygltfL19SerializeGltfCameraERKNS_6CameraERN8nlohmann10basic_jsonISt3mapSt6vectorNSt7__cxx1112basic_stringIcSt11char_traitsIcESaIcEEEblmdSaNS3_14adl_serializerES6_IhSaIhEEEE
00000000000423a9 l     F .text	00000000000004aa _ZN8tinygltfL18SerializeGltfSceneERKNS_5SceneERN8nlohmann10basic_jsonISt3mapSt6vectorNSt7__cxx1112basic_stringIcSt11char_traitsIcESaIcEEEblmdSaNS3_14adl_serializerES6_IhSaIhEEEE
0000000000042853 l     F .text	00000000000002cf _ZN8tinygltfL17SerializeGltfSkinERKNS_4SkinERN8nlohmann10basic_jsonISt3mapSt6vectorNSt7__cxx1112basic_stringIcSt11char_traitsIcESaIcEEEblmdSaNS3_14adl_serializerES6_IhSaIhEEEE
0000000000042b22 l     F .text	0000000000000221 _ZN8tinygltfL20SerializeGltfTextureERKNS_7TextureERN8nlohmann10basic_jsonISt3mapSt6vectorNSt7__cxx1112basic_stringIcSt11char_traitsIcESaIcEEEblmdSaNS3_14adl_serializerES6_IhSaIhEEEE
0000000000042d44 l     F .text	000000000000002d _ZZN8tinygltfL18SerializeGltfModelEPKNS_5ModelERN8nlohmann10basic_jsonISt3mapSt6vectorNSt7__cxx1112basic_stringIcSt11char_traitsIcESaIcEEEblmdSaNS3_14adl_serializerES6_IhSaIhEEEEENKUlRKSC_E_clESJ_
0000000000042d72 l     F .text	000000000000002d _ZZN8tinygltfL18SerializeGltfModelEPKNS_5ModelERN8nlohmann10basic_jsonISt3mapSt6vectorNSt7__cxx1112basic_stringIcSt11char_traitsIcESaIcEEEblmdSaNS3_14adl_serializerES6_IhSaIhEEEEENKUlRKSC_E0_clESJ_
0000000000042d9f l     F .text	0000000000001b7d _ZN8tinygltfL18SerializeGltfModelEPKNS_5ModelERN8nlohmann10basic_jsonISt3mapSt6vectorNSt7__cxx1112basic_stringIcSt11char_traitsIcESaIcEEEblmdSaNS3_14adl_serializerES6_IhSaIhEEEE
0000000000049ff0 l     F .text	000000000000002a _ZSt7find_ifIN9__gnu_cxx17__normal_iteratorIPNSt7__cxx1112basic_stringIcSt11char_traitsIcESaIcEEESt6vectorIS7_SaIS7_EEEEZN8tinygltfL18SerializeGltfModelEPKNSD_5ModelERN8nlohmann10basic_jsonISt3mapS9_S7_blmdSaNSH_14adl_serializerES9_IhSaIhEEEEEUlRKS7_E_ET_SS_SS_T0_
000000000004a01a l     F .text	000000000000002a _ZSt7find_ifIN9__gnu_cxx17__normal_iteratorIPNSt7__cxx1112basic_stringIcSt11char_traitsIcESaIcEEESt6vectorIS7_SaIS7_EEEEZN8tinygltfL18SerializeGltfModelEPKNSD_5ModelERN8nlohmann10basic_jsonISt3mapS9_S7_blmdSaNSH_14adl_serializerES9_IhSaIhEEEEEUlRKS7_E0_ET_SS_SS_T0_
000000000004491c l     F .text	0000000000000057 _ZN8tinygltfL15WriteGltfStreamERSoRKNSt7__cxx1112basic_stringIcSt11char_traitsIcESaIcEEE
0000000000044973 l     F .text	00000000000000b2 _ZN8tinygltfL13WriteGltfFileERKNSt7__cxx1112basic_stringIcSt11char_traitsIcESaIcEEES7_
0000000000044a25 l     F .text	0000000000000468 _ZN8tinygltfL21WriteBinaryGltfStreamERSoRKNSt7__cxx1112basic_stringIcSt11char_traitsIcESaIcEEERKSt6vectorIhSaIhEE
0000000000044e8d l     F .text	00000000000000a3 _ZN8tinygltfL19WriteBinaryGltfFileERKNSt7__cxx1112basic_stringIcSt11char_traitsIcESaIcEEES7_RKSt6vectorIhSaIhEE
0000000000000000 l    d  .text._ZNSt8__detail14__to_chars_lenIjEEjT_i	0000000000000000 .text._ZNSt8__detail14__to_chars_lenIjEEjT_i
0000000000000000 l    d  .text._ZNSt8__detail18__to_chars_10_implIjEEvPcjT_	0000000000000000 .text._ZNSt8__detail18__to_chars_10_implIjEEvPcjT_
0000000000000000 l    d  .text._ZNSt8__detail14__to_chars_lenImEEjT_i	0000000000000000 .text._ZNSt8__detail14__to_chars_lenImEEjT_i
0000000000000000 l    d  .text._ZNSt8__detail18__to_chars_10_implImEEvPcjT_	0000000000000000 .text._ZNSt8__detail18__to_chars_10_implImEEvPcjT_
0000000000000000 l    d  .text._ZNSt8__detail14__to_chars_lenIyEEjT_i	0000000000000000 .text._ZNSt8__detail14__to_chars_lenIyEEjT_i
0000000000000000 l    d  .text._ZNSt8__detail18__to_chars_10_implIyEEvPcjT_	0000000000000000 .text._ZNSt8__detail18__to_chars_10_implIyEEvPcjT_
0000000000000000 l    d  .text._ZNSt12_Vector_baseIhSaIhEE12_Vector_implC2Ev	0000000000000000 .text._ZNSt12_Vector_baseIhSaIhEE12_Vector_implC2Ev
0000000000000000 l    d  .text._ZNSt12_Vector_baseIhSaIhEED2Ev	0000000000000000 .text._ZNSt12_Vector_baseIhSaIhEED2Ev
0000000000000000 l    d  .text._ZNSt6vectorIhSaIhEED2Ev	0000000000000000 .text._ZNSt6vectorIhSaIhEED2Ev
0000000000000000 l    d  .text._ZNSt12_Vector_baseIN8tinygltf5ValueESaIS1_EE12_Vector_implC2Ev	0000000000000000 .text._ZNSt12_Vector_baseIN8tinygltf5ValueESaIS1_EE12_Vector_implC2Ev
0000000000000000 l    d  .text._ZNSt12_Vector_baseIN8tinygltf5ValueESaIS1_EED2Ev	0000000000000000 .text._ZNSt12_Vector_baseIN8tinygltf5ValueESaIS1_EED2Ev
0000000000000000 l    d  .text._ZNSt6vectorIN8tinygltf5ValueESaIS1_EED2Ev	0000000000000000 .text._ZNSt6vectorIN8tinygltf5ValueESaIS1_EED2Ev
0000000000000000 l    d  .text._ZNSt8_Rb_treeINSt7__cxx1112basic_stringIcSt11char_traitsIcESaIcEEESt4pairIKS5_N8tinygltf5ValueEESt10_Select1stISA_ESt4lessIS5_ESaISA_EE13_Rb_tree_implISE_Lb1EEC2Ev	0000000000000000 .text._ZNSt8_Rb_treeINSt7__cxx1112basic_stringIcSt11char_traitsIcESaIcEEESt4pairIKS5_N8tinygltf5ValueEESt10_Select1stISA_ESt4lessIS5_ESaISA_EE13_Rb_tree_implISE_Lb1EEC2Ev
0000000000000000 l    d  .text._ZNSt8_Rb_treeINSt7__cxx1112basic_stringIcSt11char_traitsIcESaIcEEESt4pairIKS5_N8tinygltf5ValueEESt10_Select1stISA_ESt4lessIS5_ESaISA_EED2Ev	0000000000000000 .text._ZNSt8_Rb_treeINSt7__cxx1112basic_stringIcSt11char_traitsIcESaIcEEESt4pairIKS5_N8tinygltf5ValueEESt10_Select1stISA_ESt4lessIS5_ESaISA_EED2Ev
0000000000000000 l    d  .text._ZSt4moveIRNSt7__cxx1112basic_stringIcSt11char_traitsIcESaIcEEEEONSt16remove_referenceIT_E4typeEOS8_	0000000000000000 .text._ZSt4moveIRNSt7__cxx1112basic_stringIcSt11char_traitsIcESaIcEEEEONSt16remove_referenceIT_E4typeEOS8_
0000000000000000 l    d  .text._ZNSt6vectorIhSaIhEE6resizeEm	0000000000000000 .text._ZNSt6vectorIhSaIhEE6resizeEm
0000000000000000 l    d  .text._ZSt4moveIRSt6vectorIhSaIhEEEONSt16remove_referenceIT_E4typeEOS5_	0000000000000000 .text._ZSt4moveIRSt6vectorIhSaIhEEEONSt16remove_referenceIT_E4typeEOS5_
0000000000000000 l    d  .text._ZNSt12_Vector_baseIhSaIhEE12_Vector_implC2EOS2_	0000000000000000 .text._ZNSt12_Vector_baseIhSaIhEE12_Vector_implC2EOS2_
0000000000000000 l    d  .text._ZSt4moveIRSt6vectorIN8tinygltf5ValueESaIS2_EEEONSt16remove_referenceIT_E4typeEOS7_	0000000000000000 .text._ZSt4moveIRSt6vectorIN8tinygltf5ValueESaIS2_EEEONSt16remove_referenceIT_E4typeEOS7_
0000000000000000 l    d  .text._ZNSt12_Vector_baseIN8tinygltf5ValueESaIS1_EE12_Vector_implC2EOS4_	0000000000000000 .text._ZNSt12_Vector_baseIN8tinygltf5ValueESaIS1_EE12_Vector_implC2EOS4_
0000000000000000 l    d  .text._ZSt4moveIRSt3mapINSt7__cxx1112basic_stringIcSt11char_traitsIcESaIcEEEN8tinygltf5ValueESt4lessIS6_ESaISt4pairIKS6_S8_EEEEONSt16remove_referenceIT_E4typeEOSI_	0000000000000000 .text._ZSt4moveIRSt3mapINSt7__cxx1112basic_stringIcSt11char_traitsIcESaIcEEEN8tinygltf5ValueESt4lessIS6_ESaISt4pairIKS6_S8_EEEEONSt16remove_referenceIT_E4typeEOSI_
0000000000000000 l    d  .text._ZNSt20_Rb_tree_key_compareISt4lessINSt7__cxx1112basic_stringIcSt11char_traitsIcESaIcEEEEEC2EOS8_	0000000000000000 .text._ZNSt20_Rb_tree_key_compareISt4lessINSt7__cxx1112basic_stringIcSt11char_traitsIcESaIcEEEEEC2EOS8_
0000000000000000 l    d  .text._ZNKSt6vectorIN8tinygltf5ValueESaIS1_EE4sizeEv	0000000000000000 .text._ZNKSt6vectorIN8tinygltf5ValueESaIS1_EE4sizeEv
0000000000000000 l    d  .text._ZNKSt6vectorIN8tinygltf5ValueESaIS1_EEixEm	0000000000000000 .text._ZNKSt6vectorIN8tinygltf5ValueESaIS1_EEixEm
0000000000000000 l    d  .text._ZNKSt3mapINSt7__cxx1112basic_stringIcSt11char_traitsIcESaIcEEEN8tinygltf5ValueESt4lessIS5_ESaISt4pairIKS5_S7_EEE4findERSB_	0000000000000000 .text._ZNKSt3mapINSt7__cxx1112basic_stringIcSt11char_traitsIcESaIcEEEN8tinygltf5ValueESt4lessIS5_ESaISt4pairIKS5_S7_EEE4findERSB_
0000000000000000 l    d  .text._ZNKSt3mapINSt7__cxx1112basic_stringIcSt11char_traitsIcESaIcEEEN8tinygltf5ValueESt4lessIS5_ESaISt4pairIKS5_S7_EEE3endEv	0000000000000000 .text._ZNKSt3mapINSt7__cxx1112basic_stringIcSt11char_traitsIcESaIcEEEN8tinygltf5ValueESt4lessIS5_ESaISt4pairIKS5_S7_EEE3endEv
0000000000000000 l    d  .text._ZStneRKSt23_Rb_tree_const_iteratorISt4pairIKNSt7__cxx1112basic_stringIcSt11char_traitsIcESaIcEEEN8tinygltf5ValueEEESD_	0000000000000000 .text._ZStneRKSt23_Rb_tree_const_iteratorISt4pairIKNSt7__cxx1112basic_stringIcSt11char_traitsIcESaIcEEEN8tinygltf5ValueEEESD_
0000000000000000 l    d  .text._ZNKSt23_Rb_tree_const_iteratorISt4pairIKNSt7__cxx1112basic_stringIcSt11char_traitsIcESaIcEEEN8tinygltf5ValueEEEptEv	0000000000000000 .text._ZNKSt23_Rb_tree_const_iteratorISt4pairIKNSt7__cxx1112basic_stringIcSt11char_traitsIcESaIcEEEN8tinygltf5ValueEEEptEv
0000000000000000 l    d  .text._ZNSt12_Vector_baseINSt7__cxx1112basic_stringIcSt11char_traitsIcESaIcEEESaIS5_EE12_Vector_implC2Ev	0000000000000000 .text._ZNSt12_Vector_baseINSt7__cxx1112basic_stringIcSt11char_traitsIcESaIcEEESaIS5_EE12_Vector_implC2Ev
0000000000000000 l    d  .text._ZNSt12_Vector_baseINSt7__cxx1112basic_stringIcSt11char_traitsIcESaIcEEESaIS5_EED2Ev	0000000000000000 .text._ZNSt12_Vector_baseINSt7__cxx1112basic_stringIcSt11char_traitsIcESaIcEEESaIS5_EED2Ev
0000000000000000 l    d  .text._ZNSt6vectorINSt7__cxx1112basic_stringIcSt11char_traitsIcESaIcEEESaIS5_EED2Ev	0000000000000000 .text._ZNSt6vectorINSt7__cxx1112basic_stringIcSt11char_traitsIcESaIcEEESaIS5_EED2Ev
0000000000000000 l    d  .text._ZNKSt3mapINSt7__cxx1112basic_stringIcSt11char_traitsIcESaIcEEEN8tinygltf5ValueESt4lessIS5_ESaISt4pairIKS5_S7_EEE5beginEv	0000000000000000 .text._ZNKSt3mapINSt7__cxx1112basic_stringIcSt11char_traitsIcESaIcEEEN8tinygltf5ValueESt4lessIS5_ESaISt4pairIKS5_S7_EEE5beginEv
0000000000000000 l    d  .text._ZNSt23_Rb_tree_const_iteratorISt4pairIKNSt7__cxx1112basic_stringIcSt11char_traitsIcESaIcEEEN8tinygltf5ValueEEEppEv	0000000000000000 .text._ZNSt23_Rb_tree_const_iteratorISt4pairIKNSt7__cxx1112basic_stringIcSt11char_traitsIcESaIcEEEN8tinygltf5ValueEEEppEv
0000000000000000 l    d  .text._ZNSt6vectorINSt7__cxx1112basic_stringIcSt11char_traitsIcESaIcEEESaIS5_EE9push_backERKS5_	0000000000000000 .text._ZNSt6vectorINSt7__cxx1112basic_stringIcSt11char_traitsIcESaIcEEESaIS5_EE9push_backERKS5_
0000000000000000 l    d  .text._ZNKSt6vectorINSt7__cxx1112basic_stringIcSt11char_traitsIcESaIcEEESaIS5_EE4sizeEv	0000000000000000 .text._ZNKSt6vectorINSt7__cxx1112basic_stringIcSt11char_traitsIcESaIcEEESaIS5_EE4sizeEv
0000000000000000 l    d  .text._ZNKSt3mapINSt7__cxx1112basic_stringIcSt11char_traitsIcESaIcEEEdSt4lessIS5_ESaISt4pairIKS5_dEEE4findERS9_	0000000000000000 .text._ZNKSt3mapINSt7__cxx1112basic_stringIcSt11char_traitsIcESaIcEEEdSt4lessIS5_ESaISt4pairIKS5_dEEE4findERS9_
0000000000000000 l    d  .text._ZStneRKSt23_Rb_tree_const_iteratorISt4pairIKNSt7__cxx1112basic_stringIcSt11char_traitsIcESaIcEEEdEESB_	0000000000000000 .text._ZStneRKSt23_Rb_tree_const_iteratorISt4pairIKNSt7__cxx1112basic_stringIcSt11char_traitsIcESaIcEEEdEESB_
0000000000000000 l    d  .text._ZNKSt23_Rb_tree_const_iteratorISt4pairIKNSt7__cxx1112basic_stringIcSt11char_traitsIcESaIcEEEdEEptEv	0000000000000000 .text._ZNKSt23_Rb_tree_const_iteratorISt4pairIKNSt7__cxx1112basic_stringIcSt11char_traitsIcESaIcEEEdEEptEv
0000000000000000 l    d  .text._ZNKSt6vectorIdSaIdEEixEm	0000000000000000 .text._ZNKSt6vectorIdSaIdEEixEm
0000000000000000 l    d  .text._ZNKSt6vectorIdSaIdEE4sizeEv	0000000000000000 .text._ZNKSt6vectorIdSaIdEE4sizeEv
0000000000000000 l    d  .text._ZNSt6vectorIdSaIdEEC2ESt16initializer_listIdERKS0_	0000000000000000 .text._ZNSt6vectorIdSaIdEEC2ESt16initializer_listIdERKS0_
0000000000000000 l    d  .text._ZNSt6vectorIdSaIdEED2Ev	0000000000000000 .text._ZNSt6vectorIdSaIdEED2Ev
0000000000000000 l    d  .text._ZNSt12_Vector_baseIdSaIdEE12_Vector_implC2EOS2_	0000000000000000 .text._ZNSt12_Vector_baseIdSaIdEE12_Vector_implC2EOS2_
0000000000000000 l    d  .text._ZNSt12_Vector_baseIdSaIdEED2Ev	0000000000000000 .text._ZNSt12_Vector_baseIdSaIdEED2Ev
0000000000000000 l    d  .text._ZNSt12_Vector_baseIdSaIdEE12_Vector_implC2Ev	0000000000000000 .text._ZNSt12_Vector_baseIdSaIdEE12_Vector_implC2Ev
0000000000000000 l    d  .text._ZNSt8_Rb_treeINSt7__cxx1112basic_stringIcSt11char_traitsIcESaIcEEESt4pairIKS5_N8tinygltf9ParameterEESt10_Select1stISA_ESt4lessIS5_ESaISA_EE13_Rb_tree_implISE_Lb1EEC2Ev	0000000000000000 .text._ZNSt8_Rb_treeINSt7__cxx1112basic_stringIcSt11char_traitsIcESaIcEEESt4pairIKS5_N8tinygltf9ParameterEESt10_Select1stISA_ESt4lessIS5_ESaISA_EE13_Rb_tree_implISE_Lb1EEC2Ev
0000000000000000 l    d  .text._ZNSt8_Rb_treeINSt7__cxx1112basic_stringIcSt11char_traitsIcESaIcEEESt4pairIKS5_N8tinygltf9ParameterEESt10_Select1stISA_ESt4lessIS5_ESaISA_EED2Ev	0000000000000000 .text._ZNSt8_Rb_treeINSt7__cxx1112basic_stringIcSt11char_traitsIcESaIcEEESt4pairIKS5_N8tinygltf9ParameterEESt10_Select1stISA_ESt4lessIS5_ESaISA_EED2Ev
0000000000000000 l    d  .text._ZStplIcSt11char_traitsIcESaIcEENSt7__cxx1112basic_stringIT_T0_T1_EERKS8_PKS5_	0000000000000000 .text._ZStplIcSt11char_traitsIcESaIcEENSt7__cxx1112basic_stringIT_T0_T1_EERKS8_PKS5_
0000000000000000 l    d  .text._ZStplIcSt11char_traitsIcESaIcEENSt7__cxx1112basic_stringIT_T0_T1_EEOS8_S9_	0000000000000000 .text._ZStplIcSt11char_traitsIcESaIcEENSt7__cxx1112basic_stringIT_T0_T1_EEOS8_S9_
0000000000000000 l    d  .text._ZStplIcSt11char_traitsIcESaIcEENSt7__cxx1112basic_stringIT_T0_T1_EEPKS5_OS8_	0000000000000000 .text._ZStplIcSt11char_traitsIcESaIcEENSt7__cxx1112basic_stringIT_T0_T1_EEPKS5_OS8_
0000000000000000 l    d  .text._ZNSt16_Sp_counted_baseILN9__gnu_cxx12_Lock_policyE2EE10_M_destroyEv	0000000000000000 .text._ZNSt16_Sp_counted_baseILN9__gnu_cxx12_Lock_policyE2EE10_M_destroyEv
0000000000000000 l    d  .text._ZNSt16_Sp_counted_baseILN9__gnu_cxx12_Lock_policyE2EE24_M_release_last_use_coldEv	0000000000000000 .text._ZNSt16_Sp_counted_baseILN9__gnu_cxx12_Lock_policyE2EE24_M_release_last_use_coldEv
0000000000000000 l    d  .text._ZNSt16_Sp_counted_baseILN9__gnu_cxx12_Lock_policyE2EE19_M_release_last_useEv	0000000000000000 .text._ZNSt16_Sp_counted_baseILN9__gnu_cxx12_Lock_policyE2EE19_M_release_last_useEv
0000000000000000 l    d  .text._ZSt3minImERKT_S2_S2_	0000000000000000 .text._ZSt3minImERKT_S2_S2_
0000000000000000 l    d  .text._ZSt3maxImERKT_S2_S2_	0000000000000000 .text._ZSt3maxImERKT_S2_S2_
0000000000000000 l    d  .text._ZStplIcSt11char_traitsIcESaIcEENSt7__cxx1112basic_stringIT_T0_T1_EEPKS5_RKS8_	0000000000000000 .text._ZStplIcSt11char_traitsIcESaIcEENSt7__cxx1112basic_stringIT_T0_T1_EEPKS5_RKS8_
0000000000000000 l    d  .text._ZStplIcSt11char_traitsIcESaIcEENSt7__cxx1112basic_stringIT_T0_T1_EEOS8_PKS5_	0000000000000000 .text._ZStplIcSt11char_traitsIcESaIcEENSt7__cxx1112basic_stringIT_T0_T1_EEOS8_PKS5_
0000000000000000 l    d  .text._ZSt4moveIRN8nlohmann6detail22iterator_input_adapterIPKcEEEONSt16remove_referenceIT_E4typeEOS8_	0000000000000000 .text._ZSt4moveIRN8nlohmann6detail22iterator_input_adapterIPKcEEEONSt16remove_referenceIT_E4typeEOS8_
0000000000000000 l    d  .text._ZNKSt5arrayIN8nlohmann6detail9dtoa_impl12cached_powerELm79EEixEm	0000000000000000 .text._ZNKSt5arrayIN8nlohmann6detail9dtoa_impl12cached_powerELm79EEixEm
0000000000000000 l    d  .text._ZNSt14_Function_baseC2Ev	0000000000000000 .text._ZNSt14_Function_baseC2Ev
0000000000000000 l    d  .text._ZNSt8functionIFbiN8nlohmann6detail13parse_event_tERNS0_10basic_jsonISt3mapSt6vectorNSt7__cxx1112basic_stringIcSt11char_traitsIcESaIcEEEblmdSaNS0_14adl_serializerES5_IhSaIhEEEEEEC2EDn	0000000000000000 .text._ZNSt8functionIFbiN8nlohmann6detail13parse_event_tERNS0_10basic_jsonISt3mapSt6vectorNSt7__cxx1112basic_stringIcSt11char_traitsIcESaIcEEEblmdSaNS0_14adl_serializerES5_IhSaIhEEEEEEC2EDn
0000000000000000 l    d  .text._ZNSt8functionIFbiN8nlohmann6detail13parse_event_tERNS0_10basic_jsonISt3mapSt6vectorNSt7__cxx1112basic_stringIcSt11char_traitsIcESaIcEEEblmdSaNS0_14adl_serializerES5_IhSaIhEEEEEEC2EOSI_	0000000000000000 .text._ZNSt8functionIFbiN8nlohmann6detail13parse_event_tERNS0_10basic_jsonISt3mapSt6vectorNSt7__cxx1112basic_stringIcSt11char_traitsIcESaIcEEEblmdSaNS0_14adl_serializerES5_IhSaIhEEEEEEC2EOSI_
0000000000000000 l    d  .text._ZN8nlohmann6detail5lexerINS_10basic_jsonISt3mapSt6vectorNSt7__cxx1112basic_stringIcSt11char_traitsIcESaIcEEEblmdSaNS_14adl_serializerES4_IhSaIhEEEENS0_22iterator_input_adapterIPKcEEED2Ev	0000000000000000 .text._ZN8nlohmann6detail5lexerINS_10basic_jsonISt3mapSt6vectorNSt7__cxx1112basic_stringIcSt11char_traitsIcESaIcEEEblmdSaNS_14adl_serializerES4_IhSaIhEEEENS0_22iterator_input_adapterIPKcEEED2Ev
0000000000000000 l    d  .text._ZN8nlohmann6detail6parserINS_10basic_jsonISt3mapSt6vectorNSt7__cxx1112basic_stringIcSt11char_traitsIcESaIcEEEblmdSaNS_14adl_serializerES4_IhSaIhEEEENS0_22iterator_input_adapterIPKcEEED2Ev	0000000000000000 .text._ZN8nlohmann6detail6parserINS_10basic_jsonISt3mapSt6vectorNSt7__cxx1112basic_stringIcSt11char_traitsIcESaIcEEEblmdSaNS_14adl_serializerES4_IhSaIhEEEENS0_22iterator_input_adapterIPKcEEED2Ev
0000000000000000 l    d  .text._ZN8nlohmann10basic_jsonISt3mapSt6vectorNSt7__cxx1112basic_stringIcSt11char_traitsIcESaIcEEEblmdSaNS_14adl_serializerES2_IhSaIhEEE5parseIPKcEESC_T_SG_St8functionIFbiNS_6detail13parse_event_tERSC_EEbb	0000000000000000 .text._ZN8nlohmann10basic_jsonISt3mapSt6vectorNSt7__cxx1112basic_stringIcSt11char_traitsIcESaIcEEEblmdSaNS_14adl_serializerES2_IhSaIhEEE5parseIPKcEESC_T_SG_St8functionIFbiNS_6detail13parse_event_tERSC_EEbb
0000000000000000 l    d  .text._ZN8nlohmann10basic_jsonISt3mapSt6vectorNSt7__cxx1112basic_stringIcSt11char_traitsIcESaIcEEEblmdSaNS_14adl_serializerES2_IhSaIhEEED2Ev	0000000000000000 .text._ZN8nlohmann10basic_jsonISt3mapSt6vectorNSt7__cxx1112basic_stringIcSt11char_traitsIcESaIcEEEblmdSaNS_14adl_serializerES2_IhSaIhEEED2Ev
0000000000000000 l    d  .text._ZN8nlohmann10basic_jsonISt3mapSt6vectorNSt7__cxx1112basic_stringIcSt11char_traitsIcESaIcEEEblmdSaNS_14adl_serializerES2_IhSaIhEEEC2EOSC_	0000000000000000 .text._ZN8nlohmann10basic_jsonISt3mapSt6vectorNSt7__cxx1112basic_stringIcSt11char_traitsIcESaIcEEEblmdSaNS_14adl_serializerES2_IhSaIhEEEC2EOSC_
0000000000000000 l    d  .text._ZN8nlohmann10basic_jsonISt3mapSt6vectorNSt7__cxx1112basic_stringIcSt11char_traitsIcESaIcEEEblmdSaNS_14adl_serializerES2_IhSaIhEEEaSESC_	0000000000000000 .text._ZN8nlohmann10basic_jsonISt3mapSt6vectorNSt7__cxx1112basic_stringIcSt11char_traitsIcESaIcEEEblmdSaNS_14adl_serializerES2_IhSaIhEEEaSESC_
0000000000000000 l    d  .text._ZNSt8_Rb_treeINSt7__cxx1112basic_stringIcSt11char_traitsIcESaIcEEESt4pairIKS5_N8tinygltf5ValueEESt10_Select1stISA_ESt4lessIS5_ESaISA_EEC2ERKSG_	0000000000000000 .text._ZNSt8_Rb_treeINSt7__cxx1112basic_stringIcSt11char_traitsIcESaIcEEESt4pairIKS5_N8tinygltf5ValueEESt10_Select1stISA_ESt4lessIS5_ESaISA_EEC2ERKSG_
0000000000000000 l    d  .text._ZNKSt3mapINSt7__cxx1112basic_stringIcSt11char_traitsIcESaIcEEEN8tinygltf5ValueESt4lessIS5_ESaISt4pairIKS5_S7_EEE4sizeEv	0000000000000000 .text._ZNKSt3mapINSt7__cxx1112basic_stringIcSt11char_traitsIcESaIcEEEN8tinygltf5ValueESt4lessIS5_ESaISt4pairIKS5_S7_EEE4sizeEv
0000000000000000 l    d  .text._ZNSt3mapINSt7__cxx1112basic_stringIcSt11char_traitsIcESaIcEEEN8tinygltf5ValueESt4lessIS5_ESaISt4pairIKS5_S7_EEE5beginEv	0000000000000000 .text._ZNSt3mapINSt7__cxx1112basic_stringIcSt11char_traitsIcESaIcEEEN8tinygltf5ValueESt4lessIS5_ESaISt4pairIKS5_S7_EEE5beginEv
0000000000000000 l    d  .text._ZNSt3mapINSt7__cxx1112basic_stringIcSt11char_traitsIcESaIcEEEN8tinygltf5ValueESt4lessIS5_ESaISt4pairIKS5_S7_EEE3endEv	0000000000000000 .text._ZNSt3mapINSt7__cxx1112basic_stringIcSt11char_traitsIcESaIcEEEN8tinygltf5ValueESt4lessIS5_ESaISt4pairIKS5_S7_EEE3endEv
0000000000000000 l    d  .text._ZStneRKSt17_Rb_tree_iteratorISt4pairIKNSt7__cxx1112basic_stringIcSt11char_traitsIcESaIcEEEN8tinygltf5ValueEEESD_	0000000000000000 .text._ZStneRKSt17_Rb_tree_iteratorISt4pairIKNSt7__cxx1112basic_stringIcSt11char_traitsIcESaIcEEEN8tinygltf5ValueEEESD_
0000000000000000 l    d  .text._ZNSt17_Rb_tree_iteratorISt4pairIKNSt7__cxx1112basic_stringIcSt11char_traitsIcESaIcEEEN8tinygltf5ValueEEEppEv	0000000000000000 .text._ZNSt17_Rb_tree_iteratorISt4pairIKNSt7__cxx1112basic_stringIcSt11char_traitsIcESaIcEEEN8tinygltf5ValueEEEppEv
0000000000000000 l    d  .text._ZNKSt17_Rb_tree_iteratorISt4pairIKNSt7__cxx1112basic_stringIcSt11char_traitsIcESaIcEEEN8tinygltf5ValueEEEdeEv	0000000000000000 .text._ZNKSt17_Rb_tree_iteratorISt4pairIKNSt7__cxx1112basic_stringIcSt11char_traitsIcESaIcEEEN8tinygltf5ValueEEEdeEv
0000000000000000 l    d  .text._ZNSt3mapINSt7__cxx1112basic_stringIcSt11char_traitsIcESaIcEEEN8tinygltf5ValueESt4lessIS5_ESaISt4pairIKS5_S7_EEE4findERSB_	0000000000000000 .text._ZNSt3mapINSt7__cxx1112basic_stringIcSt11char_traitsIcESaIcEEEN8tinygltf5ValueESt4lessIS5_ESaISt4pairIKS5_S7_EEE4findERSB_
0000000000000000 l    d  .text._ZSteqRKSt17_Rb_tree_iteratorISt4pairIKNSt7__cxx1112basic_stringIcSt11char_traitsIcESaIcEEEN8tinygltf5ValueEEESD_	0000000000000000 .text._ZSteqRKSt17_Rb_tree_iteratorISt4pairIKNSt7__cxx1112basic_stringIcSt11char_traitsIcESaIcEEEN8tinygltf5ValueEEESD_
0000000000000000 l    d  .text._ZNKSt17_Rb_tree_iteratorISt4pairIKNSt7__cxx1112basic_stringIcSt11char_traitsIcESaIcEEEN8tinygltf5ValueEEEptEv	0000000000000000 .text._ZNKSt17_Rb_tree_iteratorISt4pairIKNSt7__cxx1112basic_stringIcSt11char_traitsIcESaIcEEEN8tinygltf5ValueEEEptEv
0000000000000000 l    d  .text._ZSteqIcSt11char_traitsIcESaIcEEbRKNSt7__cxx1112basic_stringIT_T0_T1_EESA_	0000000000000000 .text._ZSteqIcSt11char_traitsIcESaIcEEbRKNSt7__cxx1112basic_stringIT_T0_T1_EESA_
0000000000000000 l    d  .text._ZSteqIhSaIhEEbRKSt6vectorIT_T0_ES6_	0000000000000000 .text._ZSteqIhSaIhEEbRKSt6vectorIT_T0_ES6_
0000000000000000 l    d  .text._ZSteqINSt7__cxx1112basic_stringIcSt11char_traitsIcESaIcEEEN8tinygltf5ValueESt4lessIS5_ESaISt4pairIKS5_S7_EEEbRKSt3mapIT_T0_T1_T2_ESL_	0000000000000000 .text._ZSteqINSt7__cxx1112basic_stringIcSt11char_traitsIcESaIcEEEN8tinygltf5ValueESt4lessIS5_ESaISt4pairIKS5_S7_EEEbRKSt3mapIT_T0_T1_T2_ESL_
0000000000000000 l    d  .text._ZSteqIN8tinygltf16AnimationChannelESaIS1_EEbRKSt6vectorIT_T0_ES8_	0000000000000000 .text._ZSteqIN8tinygltf16AnimationChannelESaIS1_EEbRKSt6vectorIT_T0_ES8_
0000000000000000 l    d  .text._ZSteqIN8tinygltf16AnimationSamplerESaIS1_EEbRKSt6vectorIT_T0_ES8_	0000000000000000 .text._ZSteqIN8tinygltf16AnimationSamplerESaIS1_EEbRKSt6vectorIT_T0_ES8_
0000000000000000 l    d  .text._ZSteqINSt7__cxx1112basic_stringIcSt11char_traitsIcESaIcEEEN8tinygltf9ParameterESt4lessIS5_ESaISt4pairIKS5_S7_EEEbRKSt3mapIT_T0_T1_T2_ESL_	0000000000000000 .text._ZSteqINSt7__cxx1112basic_stringIcSt11char_traitsIcESaIcEEEN8tinygltf9ParameterESt4lessIS5_ESaISt4pairIKS5_S7_EEEbRKSt3mapIT_T0_T1_T2_ESL_
0000000000000000 l    d  .text._ZSteqIN8tinygltf9PrimitiveESaIS1_EEbRKSt6vectorIT_T0_ES8_	0000000000000000 .text._ZSteqIN8tinygltf9PrimitiveESaIS1_EEbRKSt6vectorIT_T0_ES8_
0000000000000000 l    d  .text._ZSteqIN8tinygltf8AccessorESaIS1_EEbRKSt6vectorIT_T0_ES8_	0000000000000000 .text._ZSteqIN8tinygltf8AccessorESaIS1_EEbRKSt6vectorIT_T0_ES8_
0000000000000000 l    d  .text._ZSteqIN8tinygltf9AnimationESaIS1_EEbRKSt6vectorIT_T0_ES8_	0000000000000000 .text._ZSteqIN8tinygltf9AnimationESaIS1_EEbRKSt6vectorIT_T0_ES8_
0000000000000000 l    d  .text._ZSteqIN8tinygltf6BufferESaIS1_EEbRKSt6vectorIT_T0_ES8_	0000000000000000 .text._ZSteqIN8tinygltf6BufferESaIS1_EEbRKSt6vectorIT_T0_ES8_
0000000000000000 l    d  .text._ZSteqIN8tinygltf10BufferViewESaIS1_EEbRKSt6vectorIT_T0_ES8_	0000000000000000 .text._ZSteqIN8tinygltf10BufferViewESaIS1_EEbRKSt6vectorIT_T0_ES8_
0000000000000000 l    d  .text._ZSteqIN8tinygltf6CameraESaIS1_EEbRKSt6vectorIT_T0_ES8_	0000000000000000 .text._ZSteqIN8tinygltf6CameraESaIS1_EEbRKSt6vectorIT_T0_ES8_
0000000000000000 l    d  .text._ZSteqINSt7__cxx1112basic_stringIcSt11char_traitsIcESaIcEEESaIS5_EEbRKSt6vectorIT_T0_ESC_	0000000000000000 .text._ZSteqINSt7__cxx1112basic_stringIcSt11char_traitsIcESaIcEEESaIS5_EEbRKSt6vectorIT_T0_ESC_
0000000000000000 l    d  .text._ZSteqIN8tinygltf5ImageESaIS1_EEbRKSt6vectorIT_T0_ES8_	0000000000000000 .text._ZSteqIN8tinygltf5ImageESaIS1_EEbRKSt6vectorIT_T0_ES8_
0000000000000000 l    d  .text._ZSteqIN8tinygltf5LightESaIS1_EEbRKSt6vectorIT_T0_ES8_	0000000000000000 .text._ZSteqIN8tinygltf5LightESaIS1_EEbRKSt6vectorIT_T0_ES8_
0000000000000000 l    d  .text._ZSteqIN8tinygltf8MaterialESaIS1_EEbRKSt6vectorIT_T0_ES8_	0000000000000000 .text._ZSteqIN8tinygltf8MaterialESaIS1_EEbRKSt6vectorIT_T0_ES8_
0000000000000000 l    d  .text._ZSteqIN8tinygltf4MeshESaIS1_EEbRKSt6vectorIT_T0_ES8_	0000000000000000 .text._ZSteqIN8tinygltf4MeshESaIS1_EEbRKSt6vectorIT_T0_ES8_
0000000000000000 l    d  .text._ZSteqIN8tinygltf4NodeESaIS1_EEbRKSt6vectorIT_T0_ES8_	0000000000000000 .text._ZSteqIN8tinygltf4NodeESaIS1_EEbRKSt6vectorIT_T0_ES8_
0000000000000000 l    d  .text._ZSteqIN8tinygltf7SamplerESaIS1_EEbRKSt6vectorIT_T0_ES8_	0000000000000000 .text._ZSteqIN8tinygltf7SamplerESaIS1_EEbRKSt6vectorIT_T0_ES8_
0000000000000000 l    d  .text._ZSteqIN8tinygltf5SceneESaIS1_EEbRKSt6vectorIT_T0_ES8_	0000000000000000 .text._ZSteqIN8tinygltf5SceneESaIS1_EEbRKSt6vectorIT_T0_ES8_
0000000000000000 l    d  .text._ZSteqIN8tinygltf4SkinESaIS1_EEbRKSt6vectorIT_T0_ES8_	0000000000000000 .text._ZSteqIN8tinygltf4SkinESaIS1_EEbRKSt6vectorIT_T0_ES8_
0000000000000000 l    d  .text._ZSteqIN8tinygltf7TextureESaIS1_EEbRKSt6vectorIT_T0_ES8_	0000000000000000 .text._ZSteqIN8tinygltf7TextureESaIS1_EEbRKSt6vectorIT_T0_ES8_
0000000000000000 l    d  .text._ZSteqIiSaIiEEbRKSt6vectorIT_T0_ES6_	0000000000000000 .text._ZSteqIiSaIiEEbRKSt6vectorIT_T0_ES6_
0000000000000000 l    d  .text._ZNKSt3mapINSt7__cxx1112basic_stringIcSt11char_traitsIcESaIcEEEdSt4lessIS5_ESaISt4pairIKS5_dEEE4sizeEv	0000000000000000 .text._ZNKSt3mapINSt7__cxx1112basic_stringIcSt11char_traitsIcESaIcEEEdSt4lessIS5_ESaISt4pairIKS5_dEEE4sizeEv
0000000000000000 l    d  .text._ZNKSt3mapINSt7__cxx1112basic_stringIcSt11char_traitsIcESaIcEEEdSt4lessIS5_ESaISt4pairIKS5_dEEE5beginEv	0000000000000000 .text._ZNKSt3mapINSt7__cxx1112basic_stringIcSt11char_traitsIcESaIcEEEdSt4lessIS5_ESaISt4pairIKS5_dEEE5beginEv
0000000000000000 l    d  .text._ZNKSt3mapINSt7__cxx1112basic_stringIcSt11char_traitsIcESaIcEEEdSt4lessIS5_ESaISt4pairIKS5_dEEE3endEv	0000000000000000 .text._ZNKSt3mapINSt7__cxx1112basic_stringIcSt11char_traitsIcESaIcEEEdSt4lessIS5_ESaISt4pairIKS5_dEEE3endEv
0000000000000000 l    d  .text._ZNSt23_Rb_tree_const_iteratorISt4pairIKNSt7__cxx1112basic_stringIcSt11char_traitsIcESaIcEEEdEEppEv	0000000000000000 .text._ZNSt23_Rb_tree_const_iteratorISt4pairIKNSt7__cxx1112basic_stringIcSt11char_traitsIcESaIcEEEdEEppEv
0000000000000000 l    d  .text._ZNKSt23_Rb_tree_const_iteratorISt4pairIKNSt7__cxx1112basic_stringIcSt11char_traitsIcESaIcEEEdEEdeEv	0000000000000000 .text._ZNKSt23_Rb_tree_const_iteratorISt4pairIKNSt7__cxx1112basic_stringIcSt11char_traitsIcESaIcEEEdEEdeEv
0000000000000000 l    d  .text._ZSteqRKSt23_Rb_tree_const_iteratorISt4pairIKNSt7__cxx1112basic_stringIcSt11char_traitsIcESaIcEEEdEESB_	0000000000000000 .text._ZSteqRKSt23_Rb_tree_const_iteratorISt4pairIKNSt7__cxx1112basic_stringIcSt11char_traitsIcESaIcEEEdEESB_
0000000000000000 l    d  .text._ZStneIcSt11char_traitsIcESaIcEEbRKNSt7__cxx1112basic_stringIT_T0_T1_EESA_	0000000000000000 .text._ZStneIcSt11char_traitsIcESaIcEEbRKNSt7__cxx1112basic_stringIT_T0_T1_EESA_
0000000000000000 l    d  .text._ZSteqINSt7__cxx1112basic_stringIcSt11char_traitsIcESaIcEEEiSt4lessIS5_ESaISt4pairIKS5_iEEEbRKSt3mapIT_T0_T1_T2_ESJ_	0000000000000000 .text._ZSteqINSt7__cxx1112basic_stringIcSt11char_traitsIcESaIcEEEiSt4lessIS5_ESaISt4pairIKS5_iEEEbRKSt3mapIT_T0_T1_T2_ESJ_
0000000000000000 l    d  .text._ZSteqISt3mapINSt7__cxx1112basic_stringIcSt11char_traitsIcESaIcEEEiSt4lessIS6_ESaISt4pairIKS6_iEEESaISD_EEbRKSt6vectorIT_T0_ESK_	0000000000000000 .text._ZSteqISt3mapINSt7__cxx1112basic_stringIcSt11char_traitsIcESaIcEEEiSt4lessIS6_ESaISt4pairIKS6_iEEESaISD_EEbRKSt6vectorIT_T0_ESK_
0000000000000000 l    d  .text._ZNKSt16reverse_iteratorIN9__gnu_cxx17__normal_iteratorIPKcNSt7__cxx1112basic_stringIcSt11char_traitsIcESaIcEEEEEEdeEv	0000000000000000 .text._ZNKSt16reverse_iteratorIN9__gnu_cxx17__normal_iteratorIPKcNSt7__cxx1112basic_stringIcSt11char_traitsIcESaIcEEEEEEdeEv
0000000000000000 l    d  .text._ZStplIcSt11char_traitsIcESaIcEENSt7__cxx1112basic_stringIT_T0_T1_EERKS8_OS8_	0000000000000000 .text._ZStplIcSt11char_traitsIcESaIcEENSt7__cxx1112basic_stringIT_T0_T1_EERKS8_OS8_
0000000000000000 l    d  .text._ZStplIcSt11char_traitsIcESaIcEENSt7__cxx1112basic_stringIT_T0_T1_EEOS8_RKS8_	0000000000000000 .text._ZStplIcSt11char_traitsIcESaIcEENSt7__cxx1112basic_stringIT_T0_T1_EEOS8_RKS8_
0000000000000000 l    d  .text._ZStplIcSt11char_traitsIcESaIcEENSt7__cxx1112basic_stringIT_T0_T1_EERKS8_SA_	0000000000000000 .text._ZStplIcSt11char_traitsIcESaIcEENSt7__cxx1112basic_stringIT_T0_T1_EERKS8_SA_
0000000000000000 l    d  .text._ZNKSt6vectorINSt7__cxx1112basic_stringIcSt11char_traitsIcESaIcEEESaIS5_EEixEm	0000000000000000 .text._ZNKSt6vectorINSt7__cxx1112basic_stringIcSt11char_traitsIcESaIcEEESaIS5_EEixEm
0000000000000000 l    d  .text._ZNSt6vectorIhSaIhEE5clearEv	0000000000000000 .text._ZNSt6vectorIhSaIhEE5clearEv
0000000000000000 l    d  .text._ZNSt6vectorINSt7__cxx1112basic_stringIcSt11char_traitsIcESaIcEEESaIS5_EE9push_backEOS5_	0000000000000000 .text._ZNSt6vectorINSt7__cxx1112basic_stringIcSt11char_traitsIcESaIcEEESaIS5_EE9push_backEOS5_
0000000000000000 l    d  .text._ZNKSt6vectorIhSaIhEE4sizeEv	0000000000000000 .text._ZNKSt6vectorIhSaIhEE4sizeEv
0000000000000000 l    d  .text._ZNSt6vectorIhSaIhEE4swapERS1_	0000000000000000 .text._ZNSt6vectorIhSaIhEE4swapERS1_
0000000000000000 l    d  .text._ZNSt6vectorIhSaIhEE5beginEv	0000000000000000 .text._ZNSt6vectorIhSaIhEE5beginEv
0000000000000000 l    d  .text._ZSt4copyIPhN9__gnu_cxx17__normal_iteratorIS0_St6vectorIhSaIhEEEEET0_T_S8_S7_	0000000000000000 .text._ZSt4copyIPhN9__gnu_cxx17__normal_iteratorIS0_St6vectorIhSaIhEEEEET0_T_S8_S7_
0000000000000000 l    d  .text._ZNSt6vectorIhSaIhEE3endEv	0000000000000000 .text._ZNSt6vectorIhSaIhEE3endEv
0000000000000000 l    d  .text._ZN9__gnu_cxx17__normal_iteratorIPKhSt6vectorIhSaIhEEEC2IPhvEERKNS0_IT_S5_EE	0000000000000000 .text._ZN9__gnu_cxx17__normal_iteratorIPKhSt6vectorIhSaIhEEEC2IPhvEERKNS0_IT_S5_EE
0000000000000000 l    d  .text._ZNSt6vectorIhSaIhEE6insertIPhvEEN9__gnu_cxx17__normal_iteratorIS3_S1_EENS5_IPKhS1_EET_SA_	0000000000000000 .text._ZNSt6vectorIhSaIhEE6insertIPhvEEN9__gnu_cxx17__normal_iteratorIS3_S1_EENS5_IPKhS1_EET_SA_
0000000000000000 l    d  .text._ZSteqIcSt11char_traitsIcESaIcEEbRKNSt7__cxx1112basic_stringIT_T0_T1_EEPKS5_	0000000000000000 .text._ZSteqIcSt11char_traitsIcESaIcEEbRKNSt7__cxx1112basic_stringIT_T0_T1_EEPKS5_
0000000000000000 l    d  .text._ZNKSt6vectorIhSaIhEEixEm	0000000000000000 .text._ZNKSt6vectorIhSaIhEEixEm
0000000000000000 l    d  .text._ZNSt6vectorIhSaIhEEixEm	0000000000000000 .text._ZNSt6vectorIhSaIhEEixEm
0000000000000000 l    d  .text._ZNKSt4fposI11__mbstate_tEcvlEv	0000000000000000 .text._ZNKSt4fposI11__mbstate_tEcvlEv
0000000000000000 l    d  .text._ZNSt6vectorIhSaIhEE2atEm	0000000000000000 .text._ZNSt6vectorIhSaIhEE2atEm
0000000000000000 l    d  .text._ZNKSt6vectorIhSaIhEE2atEm	0000000000000000 .text._ZNKSt6vectorIhSaIhEE2atEm
0000000000000000 l    d  .text._ZNKSt6vectorIhSaIhEE5emptyEv	0000000000000000 .text._ZNKSt6vectorIhSaIhEE5emptyEv
0000000000000000 l    d  .text._ZSt4copyIN9__gnu_cxx17__normal_iteratorIPcNSt7__cxx1112basic_stringIcSt11char_traitsIcESaIcEEEEENS1_IPhSt6vectorIhSaIhEEEEET0_T_SG_SF_	0000000000000000 .text._ZSt4copyIN9__gnu_cxx17__normal_iteratorIPcNSt7__cxx1112basic_stringIcSt11char_traitsIcESaIcEEEEENS1_IPhSt6vectorIhSaIhEEEEET0_T_SG_SF_
0000000000000000 l    d  .text._ZNK8nlohmann10basic_jsonISt3mapSt6vectorNSt7__cxx1112basic_stringIcSt11char_traitsIcESaIcEEEblmdSaNS_14adl_serializerES2_IhSaIhEEE4typeEv	0000000000000000 .text._ZNK8nlohmann10basic_jsonISt3mapSt6vectorNSt7__cxx1112basic_stringIcSt11char_traitsIcESaIcEEEblmdSaNS_14adl_serializerES2_IhSaIhEEE4typeEv
0000000000000000 l    d  .text._ZNK8nlohmann10basic_jsonISt3mapSt6vectorNSt7__cxx1112basic_stringIcSt11char_traitsIcESaIcEEEblmdSaNS_14adl_serializerES2_IhSaIhEEE3getIllEEDTcldtclL_ZSt7declvalIRKSC_EDTcl9__declvalIT_ELi0EEEvEE8get_implIT0_EcvNS_6detail12priority_tagILj4EEEilEEEv	0000000000000000 .text._ZNK8nlohmann10basic_jsonISt3mapSt6vectorNSt7__cxx1112basic_stringIcSt11char_traitsIcESaIcEEEblmdSaNS_14adl_serializerES2_IhSaIhEEE3getIllEEDTcldtclL_ZSt7declvalIRKSC_EDTcl9__declvalIT_ELi0EEEvEE8get_implIT0_EcvNS_6detail12priority_tagILj4EEEilEEEv
0000000000000000 l    d  .text._ZNK8nlohmann10basic_jsonISt3mapSt6vectorNSt7__cxx1112basic_stringIcSt11char_traitsIcESaIcEEEblmdSaNS_14adl_serializerES2_IhSaIhEEE9is_numberEv	0000000000000000 .text._ZNK8nlohmann10basic_jsonISt3mapSt6vectorNSt7__cxx1112basic_stringIcSt11char_traitsIcESaIcEEEblmdSaNS_14adl_serializerES2_IhSaIhEEE9is_numberEv
0000000000000000 l    d  .text._ZNK8nlohmann10basic_jsonISt3mapSt6vectorNSt7__cxx1112basic_stringIcSt11char_traitsIcESaIcEEEblmdSaNS_14adl_serializerES2_IhSaIhEEE3getIddEEDTcldtclL_ZSt7declvalIRKSC_EDTcl9__declvalIT_ELi0EEEvEE8get_implIT0_EcvNS_6detail12priority_tagILj4EEEilEEEv	0000000000000000 .text._ZNK8nlohmann10basic_jsonISt3mapSt6vectorNSt7__cxx1112basic_stringIcSt11char_traitsIcESaIcEEEblmdSaNS_14adl_serializerES2_IhSaIhEEE3getIddEEDTcldtclL_ZSt7declvalIRKSC_EDTcl9__declvalIT_ELi0EEEvEE8get_implIT0_EcvNS_6detail12priority_tagILj4EEEilEEEv
0000000000000000 l    d  .text._ZNK8nlohmann10basic_jsonISt3mapSt6vectorNSt7__cxx1112basic_stringIcSt11char_traitsIcESaIcEEEblmdSaNS_14adl_serializerES2_IhSaIhEEE3getIS8_S8_EEDTcldtclL_ZSt7declvalIRKSC_EDTcl9__declvalIT_ELi0EEEvEE8get_implIT0_EcvNS_6detail12priority_tagILj4EEEilEEEv	0000000000000000 .text._ZNK8nlohmann10basic_jsonISt3mapSt6vectorNSt7__cxx1112basic_stringIcSt11char_traitsIcESaIcEEEblmdSaNS_14adl_serializerES2_IhSaIhEEE3getIS8_S8_EEDTcldtclL_ZSt7declvalIRKSC_EDTcl9__declvalIT_ELi0EEEvEE8get_implIT0_EcvNS_6detail12priority_tagILj4EEEilEEEv
0000000000000000 l    d  .text._ZNK8nlohmann10basic_jsonISt3mapSt6vectorNSt7__cxx1112basic_stringIcSt11char_traitsIcESaIcEEEblmdSaNS_14adl_serializerES2_IhSaIhEEE8is_arrayEv	0000000000000000 .text._ZNK8nlohmann10basic_jsonISt3mapSt6vectorNSt7__cxx1112basic_stringIcSt11char_traitsIcESaIcEEEblmdSaNS_14adl_serializerES2_IhSaIhEEE8is_arrayEv
0000000000000000 l    d  .text._ZNK8nlohmann10basic_jsonISt3mapSt6vectorNSt7__cxx1112basic_stringIcSt11char_traitsIcESaIcEEEblmdSaNS_14adl_serializerES2_IhSaIhEEE5beginEv	0000000000000000 .text._ZNK8nlohmann10basic_jsonISt3mapSt6vectorNSt7__cxx1112basic_stringIcSt11char_traitsIcESaIcEEEblmdSaNS_14adl_serializerES2_IhSaIhEEE5beginEv
0000000000000000 l    d  .text._ZNK8nlohmann10basic_jsonISt3mapSt6vectorNSt7__cxx1112basic_stringIcSt11char_traitsIcESaIcEEEblmdSaNS_14adl_serializerES2_IhSaIhEEE3endEv	0000000000000000 .text._ZNK8nlohmann10basic_jsonISt3mapSt6vectorNSt7__cxx1112basic_stringIcSt11char_traitsIcESaIcEEEblmdSaNS_14adl_serializerES2_IhSaIhEEE3endEv
0000000000000000 l    d  .text._ZNK8nlohmann10basic_jsonISt3mapSt6vectorNSt7__cxx1112basic_stringIcSt11char_traitsIcESaIcEEEblmdSaNS_14adl_serializerES2_IhSaIhEEE9is_objectEv	0000000000000000 .text._ZNK8nlohmann10basic_jsonISt3mapSt6vectorNSt7__cxx1112basic_stringIcSt11char_traitsIcESaIcEEEblmdSaNS_14adl_serializerES2_IhSaIhEEE9is_objectEv
0000000000000000 l    d  .text._ZN8nlohmann6detail16invalid_iteratorD2Ev	0000000000000000 .text._ZN8nlohmann6detail16invalid_iteratorD2Ev
0000000000000000 l    d  .text._ZN8nlohmann6detail16invalid_iteratorD0Ev	0000000000000000 .text._ZN8nlohmann6detail16invalid_iteratorD0Ev
0000000000000000 l    d  .text._ZNK8nlohmann6detail9iter_implIKNS_10basic_jsonISt3mapSt6vectorNSt7__cxx1112basic_stringIcSt11char_traitsIcESaIcEEEblmdSaNS_14adl_serializerES4_IhSaIhEEEEE3keyEv	0000000000000000 .text._ZNK8nlohmann6detail9iter_implIKNS_10basic_jsonISt3mapSt6vectorNSt7__cxx1112basic_stringIcSt11char_traitsIcESaIcEEEblmdSaNS_14adl_serializerES4_IhSaIhEEEEE3keyEv
0000000000000000 l    d  .text._ZNK8nlohmann10basic_jsonISt3mapSt6vectorNSt7__cxx1112basic_stringIcSt11char_traitsIcESaIcEEEblmdSaNS_14adl_serializerES2_IhSaIhEEE4findIRPKcEENS_6detail9iter_implIKSC_EEOT_	0000000000000000 .text._ZNK8nlohmann10basic_jsonISt3mapSt6vectorNSt7__cxx1112basic_stringIcSt11char_traitsIcESaIcEEEblmdSaNS_14adl_serializerES2_IhSaIhEEE4findIRPKcEENS_6detail9iter_implIKSC_EEOT_
0000000000000000 l    d  .text._ZNK8nlohmann6detail9iter_implIKNS_10basic_jsonISt3mapSt6vectorNSt7__cxx1112basic_stringIcSt11char_traitsIcESaIcEEEblmdSaNS_14adl_serializerES4_IhSaIhEEEEEneISG_LDnEEEbRKT_	0000000000000000 .text._ZNK8nlohmann6detail9iter_implIKNS_10basic_jsonISt3mapSt6vectorNSt7__cxx1112basic_stringIcSt11char_traitsIcESaIcEEEblmdSaNS_14adl_serializerES4_IhSaIhEEEEEneISG_LDnEEEbRKT_
0000000000000000 l    d  .text._ZN8nlohmann10basic_jsonISt3mapSt6vectorNSt7__cxx1112basic_stringIcSt11char_traitsIcESaIcEEEblmdSaNS_14adl_serializerES2_IhSaIhEEE4findIRPKcEENS_6detail9iter_implISC_EEOT_	0000000000000000 .text._ZN8nlohmann10basic_jsonISt3mapSt6vectorNSt7__cxx1112basic_stringIcSt11char_traitsIcESaIcEEEblmdSaNS_14adl_serializerES2_IhSaIhEEE4findIRPKcEENS_6detail9iter_implISC_EEOT_
0000000000000000 l    d  .text._ZN8nlohmann10basic_jsonISt3mapSt6vectorNSt7__cxx1112basic_stringIcSt11char_traitsIcESaIcEEEblmdSaNS_14adl_serializerES2_IhSaIhEEE3endEv	0000000000000000 .text._ZN8nlohmann10basic_jsonISt3mapSt6vectorNSt7__cxx1112basic_stringIcSt11char_traitsIcESaIcEEEblmdSaNS_14adl_serializerES2_IhSaIhEEE3endEv
0000000000000000 l    d  .text._ZNK8nlohmann6detail9iter_implINS_10basic_jsonISt3mapSt6vectorNSt7__cxx1112basic_stringIcSt11char_traitsIcESaIcEEEblmdSaNS_14adl_serializerES4_IhSaIhEEEEEneISF_LDnEEEbRKT_	0000000000000000 .text._ZNK8nlohmann6detail9iter_implINS_10basic_jsonISt3mapSt6vectorNSt7__cxx1112basic_stringIcSt11char_traitsIcESaIcEEEblmdSaNS_14adl_serializerES4_IhSaIhEEEEEneISF_LDnEEEbRKT_
0000000000000000 l    d  .text._ZN8nlohmann6detail9iter_implINS_10basic_jsonISt3mapSt6vectorNSt7__cxx1112basic_stringIcSt11char_traitsIcESaIcEEEblmdSaNS_14adl_serializerES4_IhSaIhEEEEEC2ERKSF_	0000000000000000 .text._ZN8nlohmann6detail9iter_implINS_10basic_jsonISt3mapSt6vectorNSt7__cxx1112basic_stringIcSt11char_traitsIcESaIcEEEblmdSaNS_14adl_serializerES4_IhSaIhEEEEEC2ERKSF_
0000000000000000 l    d  .text._ZN8nlohmann6detail10type_errorD2Ev	0000000000000000 .text._ZN8nlohmann6detail10type_errorD2Ev
0000000000000000 l    d  .text._ZN8nlohmann6detail10type_errorD0Ev	0000000000000000 .text._ZN8nlohmann6detail10type_errorD0Ev
0000000000000000 l    d  .text._ZN8nlohmann10basic_jsonISt3mapSt6vectorNSt7__cxx1112basic_stringIcSt11char_traitsIcESaIcEEEblmdSaNS_14adl_serializerES2_IhSaIhEEE5eraseINS_6detail9iter_implISC_EELi0EEET_SH_	0000000000000000 .text._ZN8nlohmann10basic_jsonISt3mapSt6vectorNSt7__cxx1112basic_stringIcSt11char_traitsIcESaIcEEEblmdSaNS_14adl_serializerES2_IhSaIhEEE5eraseINS_6detail9iter_implISC_EELi0EEET_SH_
0000000000000000 l    d  .text._ZNK8nlohmann10basic_jsonISt3mapSt6vectorNSt7__cxx1112basic_stringIcSt11char_traitsIcESaIcEEEblmdSaNS_14adl_serializerES2_IhSaIhEEE5emptyEv	0000000000000000 .text._ZNK8nlohmann10basic_jsonISt3mapSt6vectorNSt7__cxx1112basic_stringIcSt11char_traitsIcESaIcEEEblmdSaNS_14adl_serializerES2_IhSaIhEEE5emptyEv
0000000000000000 l    d  .text._ZNK8nlohmann6detail9iter_implIKNS_10basic_jsonISt3mapSt6vectorNSt7__cxx1112basic_stringIcSt11char_traitsIcESaIcEEEblmdSaNS_14adl_serializerES4_IhSaIhEEEEE5valueEv	0000000000000000 .text._ZNK8nlohmann6detail9iter_implIKNS_10basic_jsonISt3mapSt6vectorNSt7__cxx1112basic_stringIcSt11char_traitsIcESaIcEEEblmdSaNS_14adl_serializerES4_IhSaIhEEEEE5valueEv
0000000000000000 l    d  .text._ZNK8nlohmann6detail9iter_implINS_10basic_jsonISt3mapSt6vectorNSt7__cxx1112basic_stringIcSt11char_traitsIcESaIcEEEblmdSaNS_14adl_serializerES4_IhSaIhEEEEE5valueEv	0000000000000000 .text._ZNK8nlohmann6detail9iter_implINS_10basic_jsonISt3mapSt6vectorNSt7__cxx1112basic_stringIcSt11char_traitsIcESaIcEEEblmdSaNS_14adl_serializerES4_IhSaIhEEEEE5valueEv
0000000000000000 l    d  .text._ZNSt12__shared_ptrIN8nlohmann6detail23output_adapter_protocolIcEELN9__gnu_cxx12_Lock_policyE2EED2Ev	0000000000000000 .text._ZNSt12__shared_ptrIN8nlohmann6detail23output_adapter_protocolIcEELN9__gnu_cxx12_Lock_policyE2EED2Ev
0000000000000000 l    d  .text._ZNSt10shared_ptrIN8nlohmann6detail23output_adapter_protocolIcEEED2Ev	0000000000000000 .text._ZNSt10shared_ptrIN8nlohmann6detail23output_adapter_protocolIcEEED2Ev
0000000000000000 l    d  .text._ZN8nlohmann6detail14output_adapterIcNSt7__cxx1112basic_stringIcSt11char_traitsIcESaIcEEEED2Ev	0000000000000000 .text._ZN8nlohmann6detail14output_adapterIcNSt7__cxx1112basic_stringIcSt11char_traitsIcESaIcEEEED2Ev
0000000000000000 l    d  .text._ZN8nlohmann6detail10serializerINS_10basic_jsonISt3mapSt6vectorNSt7__cxx1112basic_stringIcSt11char_traitsIcESaIcEEEblmdSaNS_14adl_serializerES4_IhSaIhEEEEED2Ev	0000000000000000 .text._ZN8nlohmann6detail10serializerINS_10basic_jsonISt3mapSt6vectorNSt7__cxx1112basic_stringIcSt11char_traitsIcESaIcEEEblmdSaNS_14adl_serializerES4_IhSaIhEEEEED2Ev
0000000000000000 l    d  .text._ZNK8nlohmann10basic_jsonISt3mapSt6vectorNSt7__cxx1112basic_stringIcSt11char_traitsIcESaIcEEEblmdSaNS_14adl_serializerES2_IhSaIhEEE4dumpEicbNS_6detail15error_handler_tE	0000000000000000 .text._ZNK8nlohmann10basic_jsonISt3mapSt6vectorNSt7__cxx1112basic_stringIcSt11char_traitsIcESaIcEEEblmdSaNS_14adl_serializerES2_IhSaIhEEE4dumpEicbNS_6detail15error_handler_tE
0000000000000000 l    d  .text._ZN8nlohmann6detail9iter_implIKNS_10basic_jsonISt3mapSt6vectorNSt7__cxx1112basic_stringIcSt11char_traitsIcESaIcEEEblmdSaNS_14adl_serializerES4_IhSaIhEEEEEppEi	0000000000000000 .text._ZN8nlohmann6detail9iter_implIKNS_10basic_jsonISt3mapSt6vectorNSt7__cxx1112basic_stringIcSt11char_traitsIcESaIcEEEblmdSaNS_14adl_serializerES4_IhSaIhEEEEEppEi
0000000000000000 l    d  .text._ZSt4moveIRN8tinygltf5ValueEEONSt16remove_referenceIT_E4typeEOS4_	0000000000000000 .text._ZSt4moveIRN8tinygltf5ValueEEONSt16remove_referenceIT_E4typeEOS4_
0000000000000000 l    d  .text._ZNSt3mapINSt7__cxx1112basic_stringIcSt11char_traitsIcESaIcEEEN8tinygltf5ValueESt4lessIS5_ESaISt4pairIKS5_S7_EEE7emplaceIJRSB_S7_EEESA_ISt17_Rb_tree_iteratorISC_EbEDpOT_	0000000000000000 .text._ZNSt3mapINSt7__cxx1112basic_stringIcSt11char_traitsIcESaIcEEEN8tinygltf5ValueESt4lessIS5_ESaISt4pairIKS5_S7_EEE7emplaceIJRSB_S7_EEESA_ISt17_Rb_tree_iteratorISC_EbEDpOT_
0000000000000000 l    d  .text._ZNSt6vectorIhSaIhEEaSEOS1_	0000000000000000 .text._ZNSt6vectorIhSaIhEEaSEOS1_
0000000000000000 l    d  .text._ZNSt6vectorIN8tinygltf5ValueESaIS1_EEaSEOS3_	0000000000000000 .text._ZNSt6vectorIN8tinygltf5ValueESaIS1_EEaSEOS3_
0000000000000000 l    d  .text._ZNSt8_Rb_treeINSt7__cxx1112basic_stringIcSt11char_traitsIcESaIcEEESt4pairIKS5_N8tinygltf5ValueEESt10_Select1stISA_ESt4lessIS5_ESaISA_EEaSEOSG_	0000000000000000 .text._ZNSt8_Rb_treeINSt7__cxx1112basic_stringIcSt11char_traitsIcESaIcEEESt4pairIKS5_N8tinygltf5ValueEESt10_Select1stISA_ESt4lessIS5_ESaISA_EEaSEOSG_
0000000000000000 l    d  .text._ZNK8nlohmann10basic_jsonISt3mapSt6vectorNSt7__cxx1112basic_stringIcSt11char_traitsIcESaIcEEEblmdSaNS_14adl_serializerES2_IhSaIhEEE4sizeEv	0000000000000000 .text._ZNK8nlohmann10basic_jsonISt3mapSt6vectorNSt7__cxx1112basic_stringIcSt11char_traitsIcESaIcEEEblmdSaNS_14adl_serializerES2_IhSaIhEEE4sizeEv
0000000000000000 l    d  .text._ZNSt6vectorIN8tinygltf5ValueESaIS1_EE15_S_use_relocateEv	0000000000000000 .text._ZNSt6vectorIN8tinygltf5ValueESaIS1_EE15_S_use_relocateEv
0000000000000000 l    d  .text._ZNSt6vectorIN8tinygltf5ValueESaIS1_EE19_S_nothrow_relocateESt17integral_constantIbLb1EE	0000000000000000 .text._ZNSt6vectorIN8tinygltf5ValueESaIS1_EE19_S_nothrow_relocateESt17integral_constantIbLb1EE
0000000000000000 l    d  .text._ZNSt6vectorIN8tinygltf5ValueESaIS1_EE7reserveEm	0000000000000000 .text._ZNSt6vectorIN8tinygltf5ValueESaIS1_EE7reserveEm
0000000000000000 l    d  .text._ZNSt6vectorIN8tinygltf5ValueESaIS1_EE12emplace_backIJS1_EEEvDpOT_	0000000000000000 .text._ZNSt6vectorIN8tinygltf5ValueESaIS1_EE12emplace_backIJS1_EEEvDpOT_
0000000000000000 l    d  .text._ZNK8nlohmann10basic_jsonISt3mapSt6vectorNSt7__cxx1112basic_stringIcSt11char_traitsIcESaIcEEEblmdSaNS_14adl_serializerES2_IhSaIhEEE3getIbbEEDTcldtclL_ZSt7declvalIRKSC_EDTcl9__declvalIT_ELi0EEEvEE8get_implIT0_EcvNS_6detail12priority_tagILj4EEEilEEEv	0000000000000000 .text._ZNK8nlohmann10basic_jsonISt3mapSt6vectorNSt7__cxx1112basic_stringIcSt11char_traitsIcESaIcEEEblmdSaNS_14adl_serializerES2_IhSaIhEEE3getIbbEEDTcldtclL_ZSt7declvalIRKSC_EDTcl9__declvalIT_ELi0EEEvEE8get_implIT0_EcvNS_6detail12priority_tagILj4EEEilEEEv
0000000000000000 l    d  .text._ZNSt17_Rb_tree_iteratorISt4pairIKNSt7__cxx1112basic_stringIcSt11char_traitsIcESaIcEEEN8nlohmann10basic_jsonISt3mapSt6vectorS6_blmdSaNS8_14adl_serializerESB_IhSaIhEEEEEEC2Ev	0000000000000000 .text._ZNSt17_Rb_tree_iteratorISt4pairIKNSt7__cxx1112basic_stringIcSt11char_traitsIcESaIcEEEN8nlohmann10basic_jsonISt3mapSt6vectorS6_blmdSaNS8_14adl_serializerESB_IhSaIhEEEEEEC2Ev
0000000000000000 l    d  .text._ZN9__gnu_cxx17__normal_iteratorIPN8nlohmann10basic_jsonISt3mapSt6vectorNSt7__cxx1112basic_stringIcSt11char_traitsIcESaIcEEEblmdSaNS1_14adl_serializerES4_IhSaIhEEEES4_ISE_SaISE_EEEC2Ev	0000000000000000 .text._ZN9__gnu_cxx17__normal_iteratorIPN8nlohmann10basic_jsonISt3mapSt6vectorNSt7__cxx1112basic_stringIcSt11char_traitsIcESaIcEEEblmdSaNS1_14adl_serializerES4_IhSaIhEEEES4_ISE_SaISE_EEEC2Ev
0000000000000000 l    d  .text._ZNK8nlohmann10basic_jsonISt3mapSt6vectorNSt7__cxx1112basic_stringIcSt11char_traitsIcESaIcEEEblmdSaNS_14adl_serializerES2_IhSaIhEEE10is_booleanEv	0000000000000000 .text._ZNK8nlohmann10basic_jsonISt3mapSt6vectorNSt7__cxx1112basic_stringIcSt11char_traitsIcESaIcEEEblmdSaNS_14adl_serializerES2_IhSaIhEEE10is_booleanEv
0000000000000000 l    d  .text._ZNK8nlohmann10basic_jsonISt3mapSt6vectorNSt7__cxx1112basic_stringIcSt11char_traitsIcESaIcEEEblmdSaNS_14adl_serializerES2_IhSaIhEEE18is_number_unsignedEv	0000000000000000 .text._ZNK8nlohmann10basic_jsonISt3mapSt6vectorNSt7__cxx1112basic_stringIcSt11char_traitsIcESaIcEEEblmdSaNS_14adl_serializerES2_IhSaIhEEE18is_number_unsignedEv
0000000000000000 l    d  .text._ZNK8nlohmann10basic_jsonISt3mapSt6vectorNSt7__cxx1112basic_stringIcSt11char_traitsIcESaIcEEEblmdSaNS_14adl_serializerES2_IhSaIhEEE3getImmEEDTcldtclL_ZSt7declvalIRKSC_EDTcl9__declvalIT_ELi0EEEvEE8get_implIT0_EcvNS_6detail12priority_tagILj4EEEilEEEv	0000000000000000 .text._ZNK8nlohmann10basic_jsonISt3mapSt6vectorNSt7__cxx1112basic_stringIcSt11char_traitsIcESaIcEEEblmdSaNS_14adl_serializerES2_IhSaIhEEE3getImmEEDTcldtclL_ZSt7declvalIRKSC_EDTcl9__declvalIT_ELi0EEEvEE8get_implIT0_EcvNS_6detail12priority_tagILj4EEEilEEEv
0000000000000000 l    d  .text._ZNSt6vectorIdSaIdEE5clearEv	0000000000000000 .text._ZNSt6vectorIdSaIdEE5clearEv
0000000000000000 l    d  .text._ZN8nlohmann6detail9iter_implIKNS_10basic_jsonISt3mapSt6vectorNSt7__cxx1112basic_stringIcSt11char_traitsIcESaIcEEEblmdSaNS_14adl_serializerES4_IhSaIhEEEEEppEv	0000000000000000 .text._ZN8nlohmann6detail9iter_implIKNS_10basic_jsonISt3mapSt6vectorNSt7__cxx1112basic_stringIcSt11char_traitsIcESaIcEEEblmdSaNS_14adl_serializerES4_IhSaIhEEEEEppEv
0000000000000000 l    d  .text._ZNK8nlohmann6detail9iter_implIKNS_10basic_jsonISt3mapSt6vectorNSt7__cxx1112basic_stringIcSt11char_traitsIcESaIcEEEblmdSaNS_14adl_serializerES4_IhSaIhEEEEEdeEv	0000000000000000 .text._ZNK8nlohmann6detail9iter_implIKNS_10basic_jsonISt3mapSt6vectorNSt7__cxx1112basic_stringIcSt11char_traitsIcESaIcEEEblmdSaNS_14adl_serializerES4_IhSaIhEEEEEdeEv
0000000000000000 l    d  .text._ZNSt6vectorIdSaIdEE9push_backERKd	0000000000000000 .text._ZNSt6vectorIdSaIdEE9push_backERKd
0000000000000000 l    d  .text._ZNSt6vectorIiSaIiEE5clearEv	0000000000000000 .text._ZNSt6vectorIiSaIiEE5clearEv
0000000000000000 l    d  .text._ZNSt6vectorIiSaIiEE9push_backERKi	0000000000000000 .text._ZNSt6vectorIiSaIiEE9push_backERKi
0000000000000000 l    d  .text._ZNSt3mapINSt7__cxx1112basic_stringIcSt11char_traitsIcESaIcEEEiSt4lessIS5_ESaISt4pairIKS5_iEEE5clearEv	0000000000000000 .text._ZNSt3mapINSt7__cxx1112basic_stringIcSt11char_traitsIcESaIcEEEiSt4lessIS5_ESaISt4pairIKS5_iEEE5clearEv
0000000000000000 l    d  .text._ZNSt3mapINSt7__cxx1112basic_stringIcSt11char_traitsIcESaIcEEEiSt4lessIS5_ESaISt4pairIKS5_iEEEixEOS5_	0000000000000000 .text._ZNSt3mapINSt7__cxx1112basic_stringIcSt11char_traitsIcESaIcEEEiSt4lessIS5_ESaISt4pairIKS5_iEEEixEOS5_
0000000000000000 l    d  .text._ZNSt3mapINSt7__cxx1112basic_stringIcSt11char_traitsIcESaIcEEEdSt4lessIS5_ESaISt4pairIKS5_dEEE5clearEv	0000000000000000 .text._ZNSt3mapINSt7__cxx1112basic_stringIcSt11char_traitsIcESaIcEEEdSt4lessIS5_ESaISt4pairIKS5_dEEE5clearEv
0000000000000000 l    d  .text._ZNSt3mapINSt7__cxx1112basic_stringIcSt11char_traitsIcESaIcEEEdSt4lessIS5_ESaISt4pairIKS5_dEEE7emplaceIJS5_RdEEES8_ISt17_Rb_tree_iteratorISA_EbEDpOT_	0000000000000000 .text._ZNSt3mapINSt7__cxx1112basic_stringIcSt11char_traitsIcESaIcEEEdSt4lessIS5_ESaISt4pairIKS5_dEEE7emplaceIJS5_RdEEES8_ISt17_Rb_tree_iteratorISA_EbEDpOT_
0000000000000000 l    d  .text._ZNSt3mapINSt7__cxx1112basic_stringIcSt11char_traitsIcESaIcEEEN8tinygltf5ValueESt4lessIS5_ESaISt4pairIKS5_S7_EEEixERSB_	0000000000000000 .text._ZNSt3mapINSt7__cxx1112basic_stringIcSt11char_traitsIcESaIcEEEN8tinygltf5ValueESt4lessIS5_ESaISt4pairIKS5_S7_EEEixERSB_
0000000000000000 l    d  .text._ZNSt8_Rb_treeINSt7__cxx1112basic_stringIcSt11char_traitsIcESaIcEEESt4pairIKS5_iESt10_Select1stIS8_ESt4lessIS5_ESaIS8_EE13_Rb_tree_implISC_Lb1EEC2Ev	0000000000000000 .text._ZNSt8_Rb_treeINSt7__cxx1112basic_stringIcSt11char_traitsIcESaIcEEESt4pairIKS5_iESt10_Select1stIS8_ESt4lessIS5_ESaIS8_EE13_Rb_tree_implISC_Lb1EEC2Ev
0000000000000000 l    d  .text._ZNSt8_Rb_treeINSt7__cxx1112basic_stringIcSt11char_traitsIcESaIcEEESt4pairIKS5_iESt10_Select1stIS8_ESt4lessIS5_ESaIS8_EED2Ev	0000000000000000 .text._ZNSt8_Rb_treeINSt7__cxx1112basic_stringIcSt11char_traitsIcESaIcEEESt4pairIKS5_iESt10_Select1stIS8_ESt4lessIS5_ESaIS8_EED2Ev
0000000000000000 l    d  .text._ZSt4moveIRSt3mapINSt7__cxx1112basic_stringIcSt11char_traitsIcESaIcEEEiSt4lessIS6_ESaISt4pairIKS6_iEEEEONSt16remove_referenceIT_E4typeEOSG_	0000000000000000 .text._ZSt4moveIRSt3mapINSt7__cxx1112basic_stringIcSt11char_traitsIcESaIcEEEiSt4lessIS6_ESaISt4pairIKS6_iEEEEONSt16remove_referenceIT_E4typeEOSG_
0000000000000000 l    d  .text._ZNSt6vectorISt3mapINSt7__cxx1112basic_stringIcSt11char_traitsIcESaIcEEEiSt4lessIS6_ESaISt4pairIKS6_iEEESaISD_EE12emplace_backIJSD_EEEvDpOT_	0000000000000000 .text._ZNSt6vectorISt3mapINSt7__cxx1112basic_stringIcSt11char_traitsIcESaIcEEEiSt4lessIS6_ESaISt4pairIKS6_iEEESaISD_EE12emplace_backIJSD_EEEvDpOT_
0000000000000000 l    d  .text._ZNSt6vectorIN8tinygltf9PrimitiveESaIS1_EE5clearEv	0000000000000000 .text._ZNSt6vectorIN8tinygltf9PrimitiveESaIS1_EE5clearEv
0000000000000000 l    d  .text._ZNSt12_Vector_baseISt3mapINSt7__cxx1112basic_stringIcSt11char_traitsIcESaIcEEEiSt4lessIS6_ESaISt4pairIKS6_iEEESaISD_EE12_Vector_implC2Ev	0000000000000000 .text._ZNSt12_Vector_baseISt3mapINSt7__cxx1112basic_stringIcSt11char_traitsIcESaIcEEEiSt4lessIS6_ESaISt4pairIKS6_iEEESaISD_EE12_Vector_implC2Ev
0000000000000000 l    d  .text._ZNSt12_Vector_baseISt3mapINSt7__cxx1112basic_stringIcSt11char_traitsIcESaIcEEEiSt4lessIS6_ESaISt4pairIKS6_iEEESaISD_EED2Ev	0000000000000000 .text._ZNSt12_Vector_baseISt3mapINSt7__cxx1112basic_stringIcSt11char_traitsIcESaIcEEEiSt4lessIS6_ESaISt4pairIKS6_iEEESaISD_EED2Ev
0000000000000000 l    d  .text._ZNSt6vectorISt3mapINSt7__cxx1112basic_stringIcSt11char_traitsIcESaIcEEEiSt4lessIS6_ESaISt4pairIKS6_iEEESaISD_EED2Ev	0000000000000000 .text._ZNSt6vectorISt3mapINSt7__cxx1112basic_stringIcSt11char_traitsIcESaIcEEEiSt4lessIS6_ESaISt4pairIKS6_iEEESaISD_EED2Ev
0000000000000000 l    d  .text._ZSt4moveIRN8tinygltf9PrimitiveEEONSt16remove_referenceIT_E4typeEOS4_	0000000000000000 .text._ZSt4moveIRN8tinygltf9PrimitiveEEONSt16remove_referenceIT_E4typeEOS4_
0000000000000000 l    d  .text._ZNSt6vectorIN8tinygltf9PrimitiveESaIS1_EE12emplace_backIJS1_EEEvDpOT_	0000000000000000 .text._ZNSt6vectorIN8tinygltf9PrimitiveESaIS1_EE12emplace_backIJS1_EEEvDpOT_
0000000000000000 l    d  .text._ZNKSt3mapINSt7__cxx1112basic_stringIcSt11char_traitsIcESaIcEEEN8tinygltf5ValueESt4lessIS5_ESaISt4pairIKS5_S7_EEE5countERSB_	0000000000000000 .text._ZNKSt3mapINSt7__cxx1112basic_stringIcSt11char_traitsIcESaIcEEEN8tinygltf5ValueESt4lessIS5_ESaISt4pairIKS5_S7_EEE5countERSB_
0000000000000000 l    d  .text._ZNSt3mapINSt7__cxx1112basic_stringIcSt11char_traitsIcESaIcEEEN8tinygltf5ValueESt4lessIS5_ESaISt4pairIKS5_S7_EEEixEOS5_	0000000000000000 .text._ZNSt3mapINSt7__cxx1112basic_stringIcSt11char_traitsIcESaIcEEEN8tinygltf5ValueESt4lessIS5_ESaISt4pairIKS5_S7_EEEixEOS5_
0000000000000000 l    d  .text._ZNSt6vectorIhSaIhEEC2ERKS1_	0000000000000000 .text._ZNSt6vectorIhSaIhEEC2ERKS1_
0000000000000000 l    d  .text._ZNSt6vectorIN8tinygltf5ValueESaIS1_EEC2ERKS3_	0000000000000000 .text._ZNSt6vectorIN8tinygltf5ValueESaIS1_EEC2ERKS3_
0000000000000000 l    d  .text._ZNSt6vectorIiSaIiEE12emplace_backIJiEEEvDpOT_	0000000000000000 .text._ZNSt6vectorIiSaIiEE12emplace_backIJiEEEvDpOT_
0000000000000000 l    d  .text._ZNSt6vectorIdSaIdEEaSERKS1_	0000000000000000 .text._ZNSt6vectorIdSaIdEEaSERKS1_
0000000000000000 l    d  .text._ZNSt6vectorIdSaIdEEaSESt16initializer_listIdE	0000000000000000 .text._ZNSt6vectorIdSaIdEEaSESt16initializer_listIdE
0000000000000000 l    d  .text._ZNSt3mapINSt7__cxx1112basic_stringIcSt11char_traitsIcESaIcEEEN8tinygltf9ParameterESt4lessIS5_ESaISt4pairIKS5_S7_EEE5clearEv	0000000000000000 .text._ZNSt3mapINSt7__cxx1112basic_stringIcSt11char_traitsIcESaIcEEEN8tinygltf9ParameterESt4lessIS5_ESaISt4pairIKS5_S7_EEE5clearEv
0000000000000000 l    d  .text._ZNSt8_Rb_treeINSt7__cxx1112basic_stringIcSt11char_traitsIcESaIcEEESt4pairIKS5_dESt10_Select1stIS8_ESt4lessIS5_ESaIS8_EE13_Rb_tree_implISC_Lb1EEC2Ev	0000000000000000 .text._ZNSt8_Rb_treeINSt7__cxx1112basic_stringIcSt11char_traitsIcESaIcEEESt4pairIKS5_dESt10_Select1stIS8_ESt4lessIS5_ESaIS8_EE13_Rb_tree_implISC_Lb1EEC2Ev
0000000000000000 l    d  .text._ZNSt8_Rb_treeINSt7__cxx1112basic_stringIcSt11char_traitsIcESaIcEEESt4pairIKS5_dESt10_Select1stIS8_ESt4lessIS5_ESaIS8_EED2Ev	0000000000000000 .text._ZNSt8_Rb_treeINSt7__cxx1112basic_stringIcSt11char_traitsIcESaIcEEESt4pairIKS5_dESt10_Select1stIS8_ESt4lessIS5_ESaIS8_EED2Ev
0000000000000000 l    d  .text._ZSt4moveIRN8tinygltf9ParameterEEONSt16remove_referenceIT_E4typeEOS4_	0000000000000000 .text._ZSt4moveIRN8tinygltf9ParameterEEONSt16remove_referenceIT_E4typeEOS4_
0000000000000000 l    d  .text._ZNSt3mapINSt7__cxx1112basic_stringIcSt11char_traitsIcESaIcEEEN8tinygltf9ParameterESt4lessIS5_ESaISt4pairIKS5_S7_EEE7emplaceIJS5_S7_EEESA_ISt17_Rb_tree_iteratorISC_EbEDpOT_	0000000000000000 .text._ZNSt3mapINSt7__cxx1112basic_stringIcSt11char_traitsIcESaIcEEEN8tinygltf9ParameterESt4lessIS5_ESaISt4pairIKS5_S7_EEE7emplaceIJS5_S7_EEESA_ISt17_Rb_tree_iteratorISC_EbEDpOT_
0000000000000000 l    d  .text._ZStneIcSt11char_traitsIcESaIcEEbRKNSt7__cxx1112basic_stringIT_T0_T1_EEPKS5_	0000000000000000 .text._ZStneIcSt11char_traitsIcESaIcEEbRKNSt7__cxx1112basic_stringIT_T0_T1_EEPKS5_
0000000000000000 l    d  .text._ZNSt3mapINSt7__cxx1112basic_stringIcSt11char_traitsIcESaIcEEEN8tinygltf5ValueESt4lessIS5_ESaISt4pairIKS5_S7_EEE5clearEv	0000000000000000 .text._ZNSt3mapINSt7__cxx1112basic_stringIcSt11char_traitsIcESaIcEEEN8tinygltf5ValueESt4lessIS5_ESaISt4pairIKS5_S7_EEE5clearEv
0000000000000000 l    d  .text._ZSt4moveIRN8tinygltf16AnimationChannelEEONSt16remove_referenceIT_E4typeEOS4_	0000000000000000 .text._ZSt4moveIRN8tinygltf16AnimationChannelEEONSt16remove_referenceIT_E4typeEOS4_
0000000000000000 l    d  .text._ZNSt6vectorIN8tinygltf16AnimationChannelESaIS1_EE12emplace_backIJS1_EEEvDpOT_	0000000000000000 .text._ZNSt6vectorIN8tinygltf16AnimationChannelESaIS1_EE12emplace_backIJS1_EEEvDpOT_
0000000000000000 l    d  .text._ZSt4moveIRN8tinygltf16AnimationSamplerEEONSt16remove_referenceIT_E4typeEOS4_	0000000000000000 .text._ZSt4moveIRN8tinygltf16AnimationSamplerEEONSt16remove_referenceIT_E4typeEOS4_
0000000000000000 l    d  .text._ZNSt6vectorIN8tinygltf16AnimationSamplerESaIS1_EE12emplace_backIJS1_EEEvDpOT_	0000000000000000 .text._ZNSt6vectorIN8tinygltf16AnimationSamplerESaIS1_EE12emplace_backIJS1_EEEvDpOT_
0000000000000000 l    d  .text._ZNSt12_Vector_baseIiSaIiEE12_Vector_implC2Ev	0000000000000000 .text._ZNSt12_Vector_baseIiSaIiEE12_Vector_implC2Ev
0000000000000000 l    d  .text._ZNSt12_Vector_baseIiSaIiEED2Ev	0000000000000000 .text._ZNSt12_Vector_baseIiSaIiEED2Ev
0000000000000000 l    d  .text._ZNSt6vectorIiSaIiEED2Ev	0000000000000000 .text._ZNSt6vectorIiSaIiEED2Ev
0000000000000000 l    d  .text._ZSt4moveIRSt6vectorIiSaIiEEEONSt16remove_referenceIT_E4typeEOS5_	0000000000000000 .text._ZSt4moveIRSt6vectorIiSaIiEEEONSt16remove_referenceIT_E4typeEOS5_
0000000000000000 l    d  .text._ZNSt6vectorIiSaIiEEaSEOS1_	0000000000000000 .text._ZNSt6vectorIiSaIiEEaSEOS1_
0000000000000000 l    d  .text._ZN8nlohmann10basic_jsonISt3mapSt6vectorNSt7__cxx1112basic_stringIcSt11char_traitsIcESaIcEEEblmdSaNS_14adl_serializerES2_IhSaIhEEEC2EDn	0000000000000000 .text._ZN8nlohmann10basic_jsonISt3mapSt6vectorNSt7__cxx1112basic_stringIcSt11char_traitsIcESaIcEEEblmdSaNS_14adl_serializerES2_IhSaIhEEEC2EDn
0000000000000000 l    d  .text._ZNSt6vectorIN8tinygltf6BufferESaIS1_EE5clearEv	0000000000000000 .text._ZNSt6vectorIN8tinygltf6BufferESaIS1_EE5clearEv
0000000000000000 l    d  .text._ZNSt6vectorIN8tinygltf10BufferViewESaIS1_EE5clearEv	0000000000000000 .text._ZNSt6vectorIN8tinygltf10BufferViewESaIS1_EE5clearEv
0000000000000000 l    d  .text._ZNSt6vectorIN8tinygltf8AccessorESaIS1_EE5clearEv	0000000000000000 .text._ZNSt6vectorIN8tinygltf8AccessorESaIS1_EE5clearEv
0000000000000000 l    d  .text._ZNSt6vectorIN8tinygltf4MeshESaIS1_EE5clearEv	0000000000000000 .text._ZNSt6vectorIN8tinygltf4MeshESaIS1_EE5clearEv
0000000000000000 l    d  .text._ZNSt6vectorIN8tinygltf6CameraESaIS1_EE5clearEv	0000000000000000 .text._ZNSt6vectorIN8tinygltf6CameraESaIS1_EE5clearEv
0000000000000000 l    d  .text._ZNSt6vectorIN8tinygltf4NodeESaIS1_EE5clearEv	0000000000000000 .text._ZNSt6vectorIN8tinygltf4NodeESaIS1_EE5clearEv
0000000000000000 l    d  .text._ZNSt6vectorINSt7__cxx1112basic_stringIcSt11char_traitsIcESaIcEEESaIS5_EE5clearEv	0000000000000000 .text._ZNSt6vectorINSt7__cxx1112basic_stringIcSt11char_traitsIcESaIcEEESaIS5_EE5clearEv
0000000000000000 l    d  .text._ZNSt6vectorINSt7__cxx1112basic_stringIcSt11char_traitsIcESaIcEEESaIS5_EE12emplace_backIJS5_EEEvDpOT_	0000000000000000 .text._ZNSt6vectorINSt7__cxx1112basic_stringIcSt11char_traitsIcESaIcEEESaIS5_EE12emplace_backIJS5_EEEvDpOT_
0000000000000000 l    d  .text._ZSt4moveIRN8tinygltf6BufferEEONSt16remove_referenceIT_E4typeEOS4_	0000000000000000 .text._ZSt4moveIRN8tinygltf6BufferEEONSt16remove_referenceIT_E4typeEOS4_
0000000000000000 l    d  .text._ZNSt6vectorIN8tinygltf6BufferESaIS1_EE12emplace_backIJS1_EEEvDpOT_	0000000000000000 .text._ZNSt6vectorIN8tinygltf6BufferESaIS1_EE12emplace_backIJS1_EEEvDpOT_
0000000000000000 l    d  .text._ZSt4moveIRN8tinygltf10BufferViewEEONSt16remove_referenceIT_E4typeEOS4_	0000000000000000 .text._ZSt4moveIRN8tinygltf10BufferViewEEONSt16remove_referenceIT_E4typeEOS4_
0000000000000000 l    d  .text._ZNSt6vectorIN8tinygltf10BufferViewESaIS1_EE12emplace_backIJS1_EEEvDpOT_	0000000000000000 .text._ZNSt6vectorIN8tinygltf10BufferViewESaIS1_EE12emplace_backIJS1_EEEvDpOT_
0000000000000000 l    d  .text._ZSt4moveIRN8tinygltf8AccessorEEONSt16remove_referenceIT_E4typeEOS4_	0000000000000000 .text._ZSt4moveIRN8tinygltf8AccessorEEONSt16remove_referenceIT_E4typeEOS4_
0000000000000000 l    d  .text._ZNSt6vectorIN8tinygltf8AccessorESaIS1_EE12emplace_backIJS1_EEEvDpOT_	0000000000000000 .text._ZNSt6vectorIN8tinygltf8AccessorESaIS1_EE12emplace_backIJS1_EEEvDpOT_
0000000000000000 l    d  .text._ZNSt12_Vector_baseIN8tinygltf9PrimitiveESaIS1_EE12_Vector_implC2Ev	0000000000000000 .text._ZNSt12_Vector_baseIN8tinygltf9PrimitiveESaIS1_EE12_Vector_implC2Ev
0000000000000000 l    d  .text._ZNSt12_Vector_baseIN8tinygltf9PrimitiveESaIS1_EED2Ev	0000000000000000 .text._ZNSt12_Vector_baseIN8tinygltf9PrimitiveESaIS1_EED2Ev
0000000000000000 l    d  .text._ZNSt6vectorIN8tinygltf9PrimitiveESaIS1_EED2Ev	0000000000000000 .text._ZNSt6vectorIN8tinygltf9PrimitiveESaIS1_EED2Ev
0000000000000000 l    d  .text._ZSt4moveIRN8tinygltf4MeshEEONSt16remove_referenceIT_E4typeEOS4_	0000000000000000 .text._ZSt4moveIRN8tinygltf4MeshEEONSt16remove_referenceIT_E4typeEOS4_
0000000000000000 l    d  .text._ZNSt6vectorIN8tinygltf4MeshESaIS1_EE12emplace_backIJS1_EEEvDpOT_	0000000000000000 .text._ZNSt6vectorIN8tinygltf4MeshESaIS1_EE12emplace_backIJS1_EEEvDpOT_
0000000000000000 l    d  .text._ZNSt6vectorIN8tinygltf4MeshESaIS1_EE5beginEv	0000000000000000 .text._ZNSt6vectorIN8tinygltf4MeshESaIS1_EE5beginEv
0000000000000000 l    d  .text._ZNSt6vectorIN8tinygltf4MeshESaIS1_EE3endEv	0000000000000000 .text._ZNSt6vectorIN8tinygltf4MeshESaIS1_EE3endEv
0000000000000000 l    d  .text._ZN9__gnu_cxxneIPN8tinygltf4MeshESt6vectorIS2_SaIS2_EEEEbRKNS_17__normal_iteratorIT_T0_EESC_	0000000000000000 .text._ZN9__gnu_cxxneIPN8tinygltf4MeshESt6vectorIS2_SaIS2_EEEEbRKNS_17__normal_iteratorIT_T0_EESC_
0000000000000000 l    d  .text._ZN9__gnu_cxx17__normal_iteratorIPN8tinygltf4MeshESt6vectorIS2_SaIS2_EEEppEv	0000000000000000 .text._ZN9__gnu_cxx17__normal_iteratorIPN8tinygltf4MeshESt6vectorIS2_SaIS2_EEEppEv
0000000000000000 l    d  .text._ZNK9__gnu_cxx17__normal_iteratorIPN8tinygltf4MeshESt6vectorIS2_SaIS2_EEEdeEv	0000000000000000 .text._ZNK9__gnu_cxx17__normal_iteratorIPN8tinygltf4MeshESt6vectorIS2_SaIS2_EEEdeEv
0000000000000000 l    d  .text._ZNSt6vectorIN8tinygltf9PrimitiveESaIS1_EE5beginEv	0000000000000000 .text._ZNSt6vectorIN8tinygltf9PrimitiveESaIS1_EE5beginEv
0000000000000000 l    d  .text._ZNSt6vectorIN8tinygltf9PrimitiveESaIS1_EE3endEv	0000000000000000 .text._ZNSt6vectorIN8tinygltf9PrimitiveESaIS1_EE3endEv
0000000000000000 l    d  .text._ZN9__gnu_cxxneIPN8tinygltf9PrimitiveESt6vectorIS2_SaIS2_EEEEbRKNS_17__normal_iteratorIT_T0_EESC_	0000000000000000 .text._ZN9__gnu_cxxneIPN8tinygltf9PrimitiveESt6vectorIS2_SaIS2_EEEEbRKNS_17__normal_iteratorIT_T0_EESC_
0000000000000000 l    d  .text._ZN9__gnu_cxx17__normal_iteratorIPN8tinygltf9PrimitiveESt6vectorIS2_SaIS2_EEEppEv	0000000000000000 .text._ZN9__gnu_cxx17__normal_iteratorIPN8tinygltf9PrimitiveESt6vectorIS2_SaIS2_EEEppEv
0000000000000000 l    d  .text._ZNK9__gnu_cxx17__normal_iteratorIPN8tinygltf9PrimitiveESt6vectorIS2_SaIS2_EEEdeEv	0000000000000000 .text._ZNK9__gnu_cxx17__normal_iteratorIPN8tinygltf9PrimitiveESt6vectorIS2_SaIS2_EEEdeEv
0000000000000000 l    d  .text._ZNKSt6vectorIN8tinygltf8AccessorESaIS1_EE4sizeEv	0000000000000000 .text._ZNKSt6vectorIN8tinygltf8AccessorESaIS1_EE4sizeEv
0000000000000000 l    d  .text._ZNSt6vectorIN8tinygltf8AccessorESaIS1_EEixEm	0000000000000000 .text._ZNSt6vectorIN8tinygltf8AccessorESaIS1_EEixEm
0000000000000000 l    d  .text._ZNKSt6vectorIN8tinygltf10BufferViewESaIS1_EE4sizeEv	0000000000000000 .text._ZNKSt6vectorIN8tinygltf10BufferViewESaIS1_EE4sizeEv
0000000000000000 l    d  .text._ZNSt6vectorIN8tinygltf10BufferViewESaIS1_EEixEm	0000000000000000 .text._ZNSt6vectorIN8tinygltf10BufferViewESaIS1_EEixEm
0000000000000000 l    d  .text._ZNSt3mapINSt7__cxx1112basic_stringIcSt11char_traitsIcESaIcEEEiSt4lessIS5_ESaISt4pairIKS5_iEEE5beginEv	0000000000000000 .text._ZNSt3mapINSt7__cxx1112basic_stringIcSt11char_traitsIcESaIcEEEiSt4lessIS5_ESaISt4pairIKS5_iEEE5beginEv
0000000000000000 l    d  .text._ZNSt3mapINSt7__cxx1112basic_stringIcSt11char_traitsIcESaIcEEEiSt4lessIS5_ESaISt4pairIKS5_iEEE3endEv	0000000000000000 .text._ZNSt3mapINSt7__cxx1112basic_stringIcSt11char_traitsIcESaIcEEEiSt4lessIS5_ESaISt4pairIKS5_iEEE3endEv
0000000000000000 l    d  .text._ZStneRKSt17_Rb_tree_iteratorISt4pairIKNSt7__cxx1112basic_stringIcSt11char_traitsIcESaIcEEEiEESB_	0000000000000000 .text._ZStneRKSt17_Rb_tree_iteratorISt4pairIKNSt7__cxx1112basic_stringIcSt11char_traitsIcESaIcEEEiEESB_
0000000000000000 l    d  .text._ZNSt17_Rb_tree_iteratorISt4pairIKNSt7__cxx1112basic_stringIcSt11char_traitsIcESaIcEEEiEEppEv	0000000000000000 .text._ZNSt17_Rb_tree_iteratorISt4pairIKNSt7__cxx1112basic_stringIcSt11char_traitsIcESaIcEEEiEEppEv
0000000000000000 l    d  .text._ZNKSt17_Rb_tree_iteratorISt4pairIKNSt7__cxx1112basic_stringIcSt11char_traitsIcESaIcEEEiEEdeEv	0000000000000000 .text._ZNKSt17_Rb_tree_iteratorISt4pairIKNSt7__cxx1112basic_stringIcSt11char_traitsIcESaIcEEEiEEdeEv
0000000000000000 l    d  .text._ZNSt6vectorISt3mapINSt7__cxx1112basic_stringIcSt11char_traitsIcESaIcEEEiSt4lessIS6_ESaISt4pairIKS6_iEEESaISD_EE5beginEv	0000000000000000 .text._ZNSt6vectorISt3mapINSt7__cxx1112basic_stringIcSt11char_traitsIcESaIcEEEiSt4lessIS6_ESaISt4pairIKS6_iEEESaISD_EE5beginEv
0000000000000000 l    d  .text._ZNSt6vectorISt3mapINSt7__cxx1112basic_stringIcSt11char_traitsIcESaIcEEEiSt4lessIS6_ESaISt4pairIKS6_iEEESaISD_EE3endEv	0000000000000000 .text._ZNSt6vectorISt3mapINSt7__cxx1112basic_stringIcSt11char_traitsIcESaIcEEEiSt4lessIS6_ESaISt4pairIKS6_iEEESaISD_EE3endEv
0000000000000000 l    d  .text._ZN9__gnu_cxxneIPSt3mapINSt7__cxx1112basic_stringIcSt11char_traitsIcESaIcEEEiSt4lessIS7_ESaISt4pairIKS7_iEEESt6vectorISE_SaISE_EEEEbRKNS_17__normal_iteratorIT_T0_EESO_	0000000000000000 .text._ZN9__gnu_cxxneIPSt3mapINSt7__cxx1112basic_stringIcSt11char_traitsIcESaIcEEEiSt4lessIS7_ESaISt4pairIKS7_iEEESt6vectorISE_SaISE_EEEEbRKNS_17__normal_iteratorIT_T0_EESO_
0000000000000000 l    d  .text._ZN9__gnu_cxx17__normal_iteratorIPSt3mapINSt7__cxx1112basic_stringIcSt11char_traitsIcESaIcEEEiSt4lessIS7_ESaISt4pairIKS7_iEEESt6vectorISE_SaISE_EEEppEv	0000000000000000 .text._ZN9__gnu_cxx17__normal_iteratorIPSt3mapINSt7__cxx1112basic_stringIcSt11char_traitsIcESaIcEEEiSt4lessIS7_ESaISt4pairIKS7_iEEESt6vectorISE_SaISE_EEEppEv
0000000000000000 l    d  .text._ZNK9__gnu_cxx17__normal_iteratorIPSt3mapINSt7__cxx1112basic_stringIcSt11char_traitsIcESaIcEEEiSt4lessIS7_ESaISt4pairIKS7_iEEESt6vectorISE_SaISE_EEEdeEv	0000000000000000 .text._ZNK9__gnu_cxx17__normal_iteratorIPSt3mapINSt7__cxx1112basic_stringIcSt11char_traitsIcESaIcEEEiSt4lessIS7_ESaISt4pairIKS7_iEEESt6vectorISE_SaISE_EEEdeEv
0000000000000000 l    d  .text._ZSt4moveIRN8tinygltf4NodeEEONSt16remove_referenceIT_E4typeEOS4_	0000000000000000 .text._ZSt4moveIRN8tinygltf4NodeEEONSt16remove_referenceIT_E4typeEOS4_
0000000000000000 l    d  .text._ZNSt6vectorIN8tinygltf4NodeESaIS1_EE12emplace_backIJS1_EEEvDpOT_	0000000000000000 .text._ZNSt6vectorIN8tinygltf4NodeESaIS1_EE12emplace_backIJS1_EEEvDpOT_
0000000000000000 l    d  .text._ZSt4moveIRN8tinygltf5SceneEEONSt16remove_referenceIT_E4typeEOS4_	0000000000000000 .text._ZSt4moveIRN8tinygltf5SceneEEONSt16remove_referenceIT_E4typeEOS4_
0000000000000000 l    d  .text._ZNSt6vectorIN8tinygltf5SceneESaIS1_EE12emplace_backIJS1_EEEvDpOT_	0000000000000000 .text._ZNSt6vectorIN8tinygltf5SceneESaIS1_EE12emplace_backIJS1_EEEvDpOT_
0000000000000000 l    d  .text._ZSt4moveIRN8tinygltf8MaterialEEONSt16remove_referenceIT_E4typeEOS4_	0000000000000000 .text._ZSt4moveIRN8tinygltf8MaterialEEONSt16remove_referenceIT_E4typeEOS4_
0000000000000000 l    d  .text._ZNSt6vectorIN8tinygltf8MaterialESaIS1_EE12emplace_backIJS1_EEEvDpOT_	0000000000000000 .text._ZNSt6vectorIN8tinygltf8MaterialESaIS1_EE12emplace_backIJS1_EEEvDpOT_
0000000000000000 l    d  .text._ZNKSt6vectorIN8tinygltf6BufferESaIS1_EE4sizeEv	0000000000000000 .text._ZNKSt6vectorIN8tinygltf6BufferESaIS1_EE4sizeEv
0000000000000000 l    d  .text._ZNSt6vectorIN8tinygltf6BufferESaIS1_EEixEm	0000000000000000 .text._ZNSt6vectorIN8tinygltf6BufferESaIS1_EEixEm
0000000000000000 l    d  .text._ZSt4moveIRN8tinygltf5ImageEEONSt16remove_referenceIT_E4typeEOS4_	0000000000000000 .text._ZSt4moveIRN8tinygltf5ImageEEONSt16remove_referenceIT_E4typeEOS4_
0000000000000000 l    d  .text._ZNSt6vectorIN8tinygltf5ImageESaIS1_EE12emplace_backIJS1_EEEvDpOT_	0000000000000000 .text._ZNSt6vectorIN8tinygltf5ImageESaIS1_EE12emplace_backIJS1_EEEvDpOT_
0000000000000000 l    d  .text._ZSt4moveIRN8tinygltf7TextureEEONSt16remove_referenceIT_E4typeEOS4_	0000000000000000 .text._ZSt4moveIRN8tinygltf7TextureEEONSt16remove_referenceIT_E4typeEOS4_
0000000000000000 l    d  .text._ZNSt6vectorIN8tinygltf7TextureESaIS1_EE12emplace_backIJS1_EEEvDpOT_	0000000000000000 .text._ZNSt6vectorIN8tinygltf7TextureESaIS1_EE12emplace_backIJS1_EEEvDpOT_
0000000000000000 l    d  .text._ZNSt12_Vector_baseIN8tinygltf16AnimationChannelESaIS1_EE12_Vector_implC2Ev	0000000000000000 .text._ZNSt12_Vector_baseIN8tinygltf16AnimationChannelESaIS1_EE12_Vector_implC2Ev
0000000000000000 l    d  .text._ZNSt12_Vector_baseIN8tinygltf16AnimationChannelESaIS1_EED2Ev	0000000000000000 .text._ZNSt12_Vector_baseIN8tinygltf16AnimationChannelESaIS1_EED2Ev
0000000000000000 l    d  .text._ZNSt6vectorIN8tinygltf16AnimationChannelESaIS1_EED2Ev	0000000000000000 .text._ZNSt6vectorIN8tinygltf16AnimationChannelESaIS1_EED2Ev
0000000000000000 l    d  .text._ZNSt12_Vector_baseIN8tinygltf16AnimationSamplerESaIS1_EE12_Vector_implC2Ev	0000000000000000 .text._ZNSt12_Vector_baseIN8tinygltf16AnimationSamplerESaIS1_EE12_Vector_implC2Ev
0000000000000000 l    d  .text._ZNSt12_Vector_baseIN8tinygltf16AnimationSamplerESaIS1_EED2Ev	0000000000000000 .text._ZNSt12_Vector_baseIN8tinygltf16AnimationSamplerESaIS1_EED2Ev
0000000000000000 l    d  .text._ZNSt6vectorIN8tinygltf16AnimationSamplerESaIS1_EED2Ev	0000000000000000 .text._ZNSt6vectorIN8tinygltf16AnimationSamplerESaIS1_EED2Ev
0000000000000000 l    d  .text._ZSt4moveIRN8tinygltf9AnimationEEONSt16remove_referenceIT_E4typeEOS4_	0000000000000000 .text._ZSt4moveIRN8tinygltf9AnimationEEONSt16remove_referenceIT_E4typeEOS4_
0000000000000000 l    d  .text._ZNSt6vectorIN8tinygltf9AnimationESaIS1_EE12emplace_backIJS1_EEEvDpOT_	0000000000000000 .text._ZNSt6vectorIN8tinygltf9AnimationESaIS1_EE12emplace_backIJS1_EEEvDpOT_
0000000000000000 l    d  .text._ZSt4moveIRN8tinygltf4SkinEEONSt16remove_referenceIT_E4typeEOS4_	0000000000000000 .text._ZSt4moveIRN8tinygltf4SkinEEONSt16remove_referenceIT_E4typeEOS4_
0000000000000000 l    d  .text._ZNSt6vectorIN8tinygltf4SkinESaIS1_EE12emplace_backIJS1_EEEvDpOT_	0000000000000000 .text._ZNSt6vectorIN8tinygltf4SkinESaIS1_EE12emplace_backIJS1_EEEvDpOT_
0000000000000000 l    d  .text._ZSt4moveIRN8tinygltf7SamplerEEONSt16remove_referenceIT_E4typeEOS4_	0000000000000000 .text._ZSt4moveIRN8tinygltf7SamplerEEONSt16remove_referenceIT_E4typeEOS4_
0000000000000000 l    d  .text._ZNSt6vectorIN8tinygltf7SamplerESaIS1_EE12emplace_backIJS1_EEEvDpOT_	0000000000000000 .text._ZNSt6vectorIN8tinygltf7SamplerESaIS1_EE12emplace_backIJS1_EEEvDpOT_
0000000000000000 l    d  .text._ZSt4moveIRN8tinygltf6CameraEEONSt16remove_referenceIT_E4typeEOS4_	0000000000000000 .text._ZSt4moveIRN8tinygltf6CameraEEONSt16remove_referenceIT_E4typeEOS4_
0000000000000000 l    d  .text._ZNSt6vectorIN8tinygltf6CameraESaIS1_EE12emplace_backIJS1_EEEvDpOT_	0000000000000000 .text._ZNSt6vectorIN8tinygltf6CameraESaIS1_EE12emplace_backIJS1_EEEvDpOT_
0000000000000000 l    d  .text._ZSt4moveIRN8tinygltf5LightEEONSt16remove_referenceIT_E4typeEOS4_	0000000000000000 .text._ZSt4moveIRN8tinygltf5LightEEONSt16remove_referenceIT_E4typeEOS4_
0000000000000000 l    d  .text._ZNSt6vectorIN8tinygltf5LightESaIS1_EE12emplace_backIJS1_EEEvDpOT_	0000000000000000 .text._ZNSt6vectorIN8tinygltf5LightESaIS1_EE12emplace_backIJS1_EEEvDpOT_
0000000000000000 l    d  .text._ZSt4moveIRN8tinygltf12AudioEmitterEEONSt16remove_referenceIT_E4typeEOS4_	0000000000000000 .text._ZSt4moveIRN8tinygltf12AudioEmitterEEONSt16remove_referenceIT_E4typeEOS4_
0000000000000000 l    d  .text._ZNSt6vectorIN8tinygltf12AudioEmitterESaIS1_EE12emplace_backIJS1_EEEvDpOT_	0000000000000000 .text._ZNSt6vectorIN8tinygltf12AudioEmitterESaIS1_EE12emplace_backIJS1_EEEvDpOT_
0000000000000000 l    d  .text._ZSt4moveIRN8tinygltf11AudioSourceEEONSt16remove_referenceIT_E4typeEOS4_	0000000000000000 .text._ZSt4moveIRN8tinygltf11AudioSourceEEONSt16remove_referenceIT_E4typeEOS4_
0000000000000000 l    d  .text._ZNSt6vectorIN8tinygltf11AudioSourceESaIS1_EE12emplace_backIJS1_EEEvDpOT_	0000000000000000 .text._ZNSt6vectorIN8tinygltf11AudioSourceESaIS1_EE12emplace_backIJS1_EEEvDpOT_
0000000000000000 l    d  .text._ZN8nlohmann10basic_jsonISt3mapSt6vectorNSt7__cxx1112basic_stringIcSt11char_traitsIcESaIcEEEblmdSaNS_14adl_serializerES2_IhSaIhEEEC2IRPKcSF_Li0EEEOT_	0000000000000000 .text._ZN8nlohmann10basic_jsonISt3mapSt6vectorNSt7__cxx1112basic_stringIcSt11char_traitsIcESaIcEEEblmdSaNS_14adl_serializerES2_IhSaIhEEEC2IRPKcSF_Li0EEEOT_
0000000000000000 l    d  .text._ZN8nlohmann10basic_jsonISt3mapSt6vectorNSt7__cxx1112basic_stringIcSt11char_traitsIcESaIcEEEblmdSaNS_14adl_serializerES2_IhSaIhEEEC2ERKSC_	0000000000000000 .text._ZN8nlohmann10basic_jsonISt3mapSt6vectorNSt7__cxx1112basic_stringIcSt11char_traitsIcESaIcEEEblmdSaNS_14adl_serializerES2_IhSaIhEEEC2ERKSC_
0000000000000000 l    d  .rodata._ZN8nlohmann10basic_jsonISt3mapSt6vectorNSt7__cxx1112basic_stringIcSt11char_traitsIcESaIcEEEblmdSaNS_14adl_serializerES2_IhSaIhEEEC2ERKSC_	0000000000000000 .rodata._ZN8nlohmann10basic_jsonISt3mapSt6vectorNSt7__cxx1112basic_stringIcSt11char_traitsIcESaIcEEEblmdSaNS_14adl_serializerES2_IhSaIhEEEC2ERKSC_
0000000000000000 l    d  .text._ZN8nlohmann10basic_jsonISt3mapSt6vectorNSt7__cxx1112basic_stringIcSt11char_traitsIcESaIcEEEblmdSaNS_14adl_serializerES2_IhSaIhEEEixIKcEERSC_PT_	0000000000000000 .text._ZN8nlohmann10basic_jsonISt3mapSt6vectorNSt7__cxx1112basic_stringIcSt11char_traitsIcESaIcEEEblmdSaNS_14adl_serializerES2_IhSaIhEEEixIKcEERSC_PT_
0000000000000000 l    d  .text._ZSt4moveIRN8nlohmann10basic_jsonISt3mapSt6vectorNSt7__cxx1112basic_stringIcSt11char_traitsIcESaIcEEEblmdSaNS0_14adl_serializerES3_IhSaIhEEEEEONSt16remove_referenceIT_E4typeEOSG_	0000000000000000 .text._ZSt4moveIRN8nlohmann10basic_jsonISt3mapSt6vectorNSt7__cxx1112basic_stringIcSt11char_traitsIcESaIcEEEblmdSaNS0_14adl_serializerES3_IhSaIhEEEEEONSt16remove_referenceIT_E4typeEOSG_
0000000000000000 l    d  .text._ZN8nlohmann10basic_jsonISt3mapSt6vectorNSt7__cxx1112basic_stringIcSt11char_traitsIcESaIcEEEblmdSaNS_14adl_serializerES2_IhSaIhEEE9push_backEOSC_	0000000000000000 .text._ZN8nlohmann10basic_jsonISt3mapSt6vectorNSt7__cxx1112basic_stringIcSt11char_traitsIcESaIcEEEblmdSaNS_14adl_serializerES2_IhSaIhEEE9push_backEOSC_
0000000000000000 l    d  .text._ZNK8nlohmann10basic_jsonISt3mapSt6vectorNSt7__cxx1112basic_stringIcSt11char_traitsIcESaIcEEEblmdSaNS_14adl_serializerES2_IhSaIhEEE7is_nullEv	0000000000000000 .text._ZNK8nlohmann10basic_jsonISt3mapSt6vectorNSt7__cxx1112basic_stringIcSt11char_traitsIcESaIcEEEblmdSaNS_14adl_serializerES2_IhSaIhEEE7is_nullEv
0000000000000000 l    d  .text._ZN8nlohmann10basic_jsonISt3mapSt6vectorNSt7__cxx1112basic_stringIcSt11char_traitsIcESaIcEEEblmdSaNS_14adl_serializerES2_IhSaIhEEE6objectESt16initializer_listINS_6detail8json_refISC_EEE	0000000000000000 .text._ZN8nlohmann10basic_jsonISt3mapSt6vectorNSt7__cxx1112basic_stringIcSt11char_traitsIcESaIcEEEblmdSaNS_14adl_serializerES2_IhSaIhEEE6objectESt16initializer_listINS_6detail8json_refISC_EEE
0000000000000000 l    d  .text._ZNKSt6vectorINSt7__cxx1112basic_stringIcSt11char_traitsIcESaIcEEESaIS5_EE5beginEv	0000000000000000 .text._ZNKSt6vectorINSt7__cxx1112basic_stringIcSt11char_traitsIcESaIcEEESaIS5_EE5beginEv
0000000000000000 l    d  .text._ZNKSt6vectorINSt7__cxx1112basic_stringIcSt11char_traitsIcESaIcEEESaIS5_EE3endEv	0000000000000000 .text._ZNKSt6vectorINSt7__cxx1112basic_stringIcSt11char_traitsIcESaIcEEESaIS5_EE3endEv
0000000000000000 l    d  .text._ZN9__gnu_cxxneIPKNSt7__cxx1112basic_stringIcSt11char_traitsIcESaIcEEESt6vectorIS6_SaIS6_EEEEbRKNS_17__normal_iteratorIT_T0_EESH_	0000000000000000 .text._ZN9__gnu_cxxneIPKNSt7__cxx1112basic_stringIcSt11char_traitsIcESaIcEEESt6vectorIS6_SaIS6_EEEEbRKNS_17__normal_iteratorIT_T0_EESH_
0000000000000000 l    d  .text._ZN9__gnu_cxx17__normal_iteratorIPKNSt7__cxx1112basic_stringIcSt11char_traitsIcESaIcEEESt6vectorIS6_SaIS6_EEEppEv	0000000000000000 .text._ZN9__gnu_cxx17__normal_iteratorIPKNSt7__cxx1112basic_stringIcSt11char_traitsIcESaIcEEESt6vectorIS6_SaIS6_EEEppEv
0000000000000000 l    d  .text._ZNK9__gnu_cxx17__normal_iteratorIPKNSt7__cxx1112basic_stringIcSt11char_traitsIcESaIcEEESt6vectorIS6_SaIS6_EEEdeEv	0000000000000000 .text._ZNK9__gnu_cxx17__normal_iteratorIPKNSt7__cxx1112basic_stringIcSt11char_traitsIcESaIcEEESt6vectorIS6_SaIS6_EEEdeEv
0000000000000000 l    d  .text._ZN8nlohmann10basic_jsonISt3mapSt6vectorNSt7__cxx1112basic_stringIcSt11char_traitsIcESaIcEEEblmdSaNS_14adl_serializerES2_IhSaIhEEEC2IRKddLi0EEEOT_	0000000000000000 .text._ZN8nlohmann10basic_jsonISt3mapSt6vectorNSt7__cxx1112basic_stringIcSt11char_traitsIcESaIcEEEblmdSaNS_14adl_serializerES2_IhSaIhEEEC2IRKddLi0EEEOT_
0000000000000000 l    d  .text._ZN8nlohmann10basic_jsonISt3mapSt6vectorNSt7__cxx1112basic_stringIcSt11char_traitsIcESaIcEEEblmdSaNS_14adl_serializerES2_IhSaIhEEEC2IRKiiLi0EEEOT_	0000000000000000 .text._ZN8nlohmann10basic_jsonISt3mapSt6vectorNSt7__cxx1112basic_stringIcSt11char_traitsIcESaIcEEEblmdSaNS_14adl_serializerES2_IhSaIhEEEC2IRKiiLi0EEEOT_
0000000000000000 l    d  .text._ZN8nlohmann10basic_jsonISt3mapSt6vectorNSt7__cxx1112basic_stringIcSt11char_traitsIcESaIcEEEblmdSaNS_14adl_serializerES2_IhSaIhEEEC2IRKbbLi0EEEOT_	0000000000000000 .text._ZN8nlohmann10basic_jsonISt3mapSt6vectorNSt7__cxx1112basic_stringIcSt11char_traitsIcESaIcEEEblmdSaNS_14adl_serializerES2_IhSaIhEEEC2IRKbbLi0EEEOT_
0000000000000000 l    d  .text._ZN8nlohmann10basic_jsonISt3mapSt6vectorNSt7__cxx1112basic_stringIcSt11char_traitsIcESaIcEEEblmdSaNS_14adl_serializerES2_IhSaIhEEEC2IRKS8_S8_Li0EEEOT_	0000000000000000 .text._ZN8nlohmann10basic_jsonISt3mapSt6vectorNSt7__cxx1112basic_stringIcSt11char_traitsIcESaIcEEEblmdSaNS_14adl_serializerES2_IhSaIhEEEC2IRKS8_S8_Li0EEEOT_
0000000000000000 l    d  .text._ZN8nlohmann10basic_jsonISt3mapSt6vectorNSt7__cxx1112basic_stringIcSt11char_traitsIcESaIcEEEblmdSaNS_14adl_serializerES2_IhSaIhEEE9push_backERKSC_	0000000000000000 .text._ZN8nlohmann10basic_jsonISt3mapSt6vectorNSt7__cxx1112basic_stringIcSt11char_traitsIcESaIcEEEblmdSaNS_14adl_serializerES2_IhSaIhEEE9push_backERKSC_
0000000000000000 l    d  .text._ZN8nlohmann10basic_jsonISt3mapSt6vectorNSt7__cxx1112basic_stringIcSt11char_traitsIcESaIcEEEblmdSaNS_14adl_serializerES2_IhSaIhEEEixERKS8_	0000000000000000 .text._ZN8nlohmann10basic_jsonISt3mapSt6vectorNSt7__cxx1112basic_stringIcSt11char_traitsIcESaIcEEEblmdSaNS_14adl_serializerES2_IhSaIhEEEixERKS8_
0000000000000000 l    d  .text._ZNKSt6vectorIdSaIdEE5beginEv	0000000000000000 .text._ZNKSt6vectorIdSaIdEE5beginEv
0000000000000000 l    d  .text._ZNKSt6vectorIdSaIdEE3endEv	0000000000000000 .text._ZNKSt6vectorIdSaIdEE3endEv
0000000000000000 l    d  .text._ZSt13back_inserterISt6vectorIiSaIiEEESt20back_insert_iteratorIT_ERS4_	0000000000000000 .text._ZSt13back_inserterISt6vectorIiSaIiEEESt20back_insert_iteratorIT_ERS4_
0000000000000000 l    d  .text._ZN8tinygltf28SerializeExtrasAndExtensionsINS_8AccessorEEEvRKT_RN8nlohmann10basic_jsonISt3mapSt6vectorNSt7__cxx1112basic_stringIcSt11char_traitsIcESaIcEEEblmdSaNS5_14adl_serializerES8_IhSaIhEEEE	0000000000000000 .text._ZN8tinygltf28SerializeExtrasAndExtensionsINS_8AccessorEEEvRKT_RN8nlohmann10basic_jsonISt3mapSt6vectorNSt7__cxx1112basic_stringIcSt11char_traitsIcESaIcEEEblmdSaNS5_14adl_serializerES8_IhSaIhEEEE
0000000000000000 l    d  .text._ZN8tinygltf28SerializeExtrasAndExtensionsINS_8Accessor6SparseUt_EEEvRKT_RN8nlohmann10basic_jsonISt3mapSt6vectorNSt7__cxx1112basic_stringIcSt11char_traitsIcESaIcEEEblmdSaNS7_14adl_serializerESA_IhSaIhEEEE	0000000000000000 .text._ZN8tinygltf28SerializeExtrasAndExtensionsINS_8Accessor6SparseUt_EEEvRKT_RN8nlohmann10basic_jsonISt3mapSt6vectorNSt7__cxx1112basic_stringIcSt11char_traitsIcESaIcEEEblmdSaNS7_14adl_serializerESA_IhSaIhEEEE
0000000000000000 l    d  .text._ZN8tinygltf28SerializeExtrasAndExtensionsINS_8Accessor6SparseUt0_EEEvRKT_RN8nlohmann10basic_jsonISt3mapSt6vectorNSt7__cxx1112basic_stringIcSt11char_traitsIcESaIcEEEblmdSaNS7_14adl_serializerESA_IhSaIhEEEE	0000000000000000 .text._ZN8tinygltf28SerializeExtrasAndExtensionsINS_8Accessor6SparseUt0_EEEvRKT_RN8nlohmann10basic_jsonISt3mapSt6vectorNSt7__cxx1112basic_stringIcSt11char_traitsIcESaIcEEEblmdSaNS7_14adl_serializerESA_IhSaIhEEEE
0000000000000000 l    d  .text._ZN8tinygltf28SerializeExtrasAndExtensionsINS_8Accessor6SparseEEEvRKT_RN8nlohmann10basic_jsonISt3mapSt6vectorNSt7__cxx1112basic_stringIcSt11char_traitsIcESaIcEEEblmdSaNS6_14adl_serializerES9_IhSaIhEEEE	0000000000000000 .text._ZN8tinygltf28SerializeExtrasAndExtensionsINS_8Accessor6SparseEEEvRKT_RN8nlohmann10basic_jsonISt3mapSt6vectorNSt7__cxx1112basic_stringIcSt11char_traitsIcESaIcEEEblmdSaNS6_14adl_serializerES9_IhSaIhEEEE
0000000000000000 l    d  .text._ZN8tinygltf28SerializeExtrasAndExtensionsINS_16AnimationChannelEEEvRKT_RN8nlohmann10basic_jsonISt3mapSt6vectorNSt7__cxx1112basic_stringIcSt11char_traitsIcESaIcEEEblmdSaNS5_14adl_serializerES8_IhSaIhEEEE	0000000000000000 .text._ZN8tinygltf28SerializeExtrasAndExtensionsINS_16AnimationChannelEEEvRKT_RN8nlohmann10basic_jsonISt3mapSt6vectorNSt7__cxx1112basic_stringIcSt11char_traitsIcESaIcEEEblmdSaNS5_14adl_serializerES8_IhSaIhEEEE
0000000000000000 l    d  .text._ZN8tinygltf28SerializeExtrasAndExtensionsINS_16AnimationSamplerEEEvRKT_RN8nlohmann10basic_jsonISt3mapSt6vectorNSt7__cxx1112basic_stringIcSt11char_traitsIcESaIcEEEblmdSaNS5_14adl_serializerES8_IhSaIhEEEE	0000000000000000 .text._ZN8tinygltf28SerializeExtrasAndExtensionsINS_16AnimationSamplerEEEvRKT_RN8nlohmann10basic_jsonISt3mapSt6vectorNSt7__cxx1112basic_stringIcSt11char_traitsIcESaIcEEEblmdSaNS5_14adl_serializerES8_IhSaIhEEEE
0000000000000000 l    d  .text._ZNKSt6vectorIN8tinygltf16AnimationChannelESaIS1_EE4sizeEv	0000000000000000 .text._ZNKSt6vectorIN8tinygltf16AnimationChannelESaIS1_EE4sizeEv
0000000000000000 l    d  .text._ZNKSt6vectorIN8tinygltf16AnimationChannelESaIS1_EEixEm	0000000000000000 .text._ZNKSt6vectorIN8tinygltf16AnimationChannelESaIS1_EEixEm
0000000000000000 l    d  .text._ZNKSt6vectorIN8tinygltf16AnimationSamplerESaIS1_EE4sizeEv	0000000000000000 .text._ZNKSt6vectorIN8tinygltf16AnimationSamplerESaIS1_EE4sizeEv
0000000000000000 l    d  .text._ZNKSt6vectorIN8tinygltf16AnimationSamplerESaIS1_EEixEm	0000000000000000 .text._ZNKSt6vectorIN8tinygltf16AnimationSamplerESaIS1_EEixEm
0000000000000000 l    d  .text._ZN8tinygltf28SerializeExtrasAndExtensionsINS_9AnimationEEEvRKT_RN8nlohmann10basic_jsonISt3mapSt6vectorNSt7__cxx1112basic_stringIcSt11char_traitsIcESaIcEEEblmdSaNS5_14adl_serializerES8_IhSaIhEEEE	0000000000000000 .text._ZN8tinygltf28SerializeExtrasAndExtensionsINS_9AnimationEEEvRKT_RN8nlohmann10basic_jsonISt3mapSt6vectorNSt7__cxx1112basic_stringIcSt11char_traitsIcESaIcEEEblmdSaNS5_14adl_serializerES8_IhSaIhEEEE
0000000000000000 l    d  .text._ZN8tinygltf28SerializeExtrasAndExtensionsINS_5AssetEEEvRKT_RN8nlohmann10basic_jsonISt3mapSt6vectorNSt7__cxx1112basic_stringIcSt11char_traitsIcESaIcEEEblmdSaNS5_14adl_serializerES8_IhSaIhEEEE	0000000000000000 .text._ZN8tinygltf28SerializeExtrasAndExtensionsINS_5AssetEEEvRKT_RN8nlohmann10basic_jsonISt3mapSt6vectorNSt7__cxx1112basic_stringIcSt11char_traitsIcESaIcEEEblmdSaNS5_14adl_serializerES8_IhSaIhEEEE
0000000000000000 l    d  .text._ZNSt6vectorIhSaIhEEaSERKS1_	0000000000000000 .text._ZNSt6vectorIhSaIhEEaSERKS1_
0000000000000000 l    d  .text._ZN8tinygltf28SerializeExtrasAndExtensionsINS_6BufferEEEvRKT_RN8nlohmann10basic_jsonISt3mapSt6vectorNSt7__cxx1112basic_stringIcSt11char_traitsIcESaIcEEEblmdSaNS5_14adl_serializerES8_IhSaIhEEEE	0000000000000000 .text._ZN8tinygltf28SerializeExtrasAndExtensionsINS_6BufferEEEvRKT_RN8nlohmann10basic_jsonISt3mapSt6vectorNSt7__cxx1112basic_stringIcSt11char_traitsIcESaIcEEEblmdSaNS5_14adl_serializerES8_IhSaIhEEEE
0000000000000000 l    d  .text._ZN8tinygltf28SerializeExtrasAndExtensionsINS_10BufferViewEEEvRKT_RN8nlohmann10basic_jsonISt3mapSt6vectorNSt7__cxx1112basic_stringIcSt11char_traitsIcESaIcEEEblmdSaNS5_14adl_serializerES8_IhSaIhEEEE	0000000000000000 .text._ZN8tinygltf28SerializeExtrasAndExtensionsINS_10BufferViewEEEvRKT_RN8nlohmann10basic_jsonISt3mapSt6vectorNSt7__cxx1112basic_stringIcSt11char_traitsIcESaIcEEEblmdSaNS5_14adl_serializerES8_IhSaIhEEEE
0000000000000000 l    d  .text._ZN8tinygltf28SerializeExtrasAndExtensionsINS_5ImageEEEvRKT_RN8nlohmann10basic_jsonISt3mapSt6vectorNSt7__cxx1112basic_stringIcSt11char_traitsIcESaIcEEEblmdSaNS5_14adl_serializerES8_IhSaIhEEEE	0000000000000000 .text._ZN8tinygltf28SerializeExtrasAndExtensionsINS_5ImageEEEvRKT_RN8nlohmann10basic_jsonISt3mapSt6vectorNSt7__cxx1112basic_stringIcSt11char_traitsIcESaIcEEEblmdSaNS5_14adl_serializerES8_IhSaIhEEEE
0000000000000000 l    d  .text._ZN8tinygltf28SerializeExtrasAndExtensionsINS_11TextureInfoEEEvRKT_RN8nlohmann10basic_jsonISt3mapSt6vectorNSt7__cxx1112basic_stringIcSt11char_traitsIcESaIcEEEblmdSaNS5_14adl_serializerES8_IhSaIhEEEE	0000000000000000 .text._ZN8tinygltf28SerializeExtrasAndExtensionsINS_11TextureInfoEEEvRKT_RN8nlohmann10basic_jsonISt3mapSt6vectorNSt7__cxx1112basic_stringIcSt11char_traitsIcESaIcEEEblmdSaNS5_14adl_serializerES8_IhSaIhEEEE
0000000000000000 l    d  .text._ZN8tinygltf28SerializeExtrasAndExtensionsINS_17NormalTextureInfoEEEvRKT_RN8nlohmann10basic_jsonISt3mapSt6vectorNSt7__cxx1112basic_stringIcSt11char_traitsIcESaIcEEEblmdSaNS5_14adl_serializerES8_IhSaIhEEEE	0000000000000000 .text._ZN8tinygltf28SerializeExtrasAndExtensionsINS_17NormalTextureInfoEEEvRKT_RN8nlohmann10basic_jsonISt3mapSt6vectorNSt7__cxx1112basic_stringIcSt11char_traitsIcESaIcEEEblmdSaNS5_14adl_serializerES8_IhSaIhEEEE
0000000000000000 l    d  .text._ZN8tinygltf28SerializeExtrasAndExtensionsINS_20OcclusionTextureInfoEEEvRKT_RN8nlohmann10basic_jsonISt3mapSt6vectorNSt7__cxx1112basic_stringIcSt11char_traitsIcESaIcEEEblmdSaNS5_14adl_serializerES8_IhSaIhEEEE	0000000000000000 .text._ZN8tinygltf28SerializeExtrasAndExtensionsINS_20OcclusionTextureInfoEEEvRKT_RN8nlohmann10basic_jsonISt3mapSt6vectorNSt7__cxx1112basic_stringIcSt11char_traitsIcESaIcEEEblmdSaNS5_14adl_serializerES8_IhSaIhEEEE
0000000000000000 l    d  .text._ZN8tinygltf28SerializeExtrasAndExtensionsINS_20PbrMetallicRoughnessEEEvRKT_RN8nlohmann10basic_jsonISt3mapSt6vectorNSt7__cxx1112basic_stringIcSt11char_traitsIcESaIcEEEblmdSaNS5_14adl_serializerES8_IhSaIhEEEE	0000000000000000 .text._ZN8tinygltf28SerializeExtrasAndExtensionsINS_20PbrMetallicRoughnessEEEvRKT_RN8nlohmann10basic_jsonISt3mapSt6vectorNSt7__cxx1112basic_stringIcSt11char_traitsIcESaIcEEEblmdSaNS5_14adl_serializerES8_IhSaIhEEEE
0000000000000000 l    d  .text._ZN8tinygltf28SerializeExtrasAndExtensionsINS_8MaterialEEEvRKT_RN8nlohmann10basic_jsonISt3mapSt6vectorNSt7__cxx1112basic_stringIcSt11char_traitsIcESaIcEEEblmdSaNS5_14adl_serializerES8_IhSaIhEEEE	0000000000000000 .text._ZN8tinygltf28SerializeExtrasAndExtensionsINS_8MaterialEEEvRKT_RN8nlohmann10basic_jsonISt3mapSt6vectorNSt7__cxx1112basic_stringIcSt11char_traitsIcESaIcEEEblmdSaNS5_14adl_serializerES8_IhSaIhEEEE
0000000000000000 l    d  .text._ZNKSt6vectorIN8tinygltf9PrimitiveESaIS1_EE4sizeEv	0000000000000000 .text._ZNKSt6vectorIN8tinygltf9PrimitiveESaIS1_EE4sizeEv
0000000000000000 l    d  .text._ZNKSt6vectorIN8tinygltf9PrimitiveESaIS1_EEixEm	0000000000000000 .text._ZNKSt6vectorIN8tinygltf9PrimitiveESaIS1_EEixEm
0000000000000000 l    d  .text._ZNKSt3mapINSt7__cxx1112basic_stringIcSt11char_traitsIcESaIcEEEiSt4lessIS5_ESaISt4pairIKS5_iEEE5beginEv	0000000000000000 .text._ZNKSt3mapINSt7__cxx1112basic_stringIcSt11char_traitsIcESaIcEEEiSt4lessIS5_ESaISt4pairIKS5_iEEE5beginEv
0000000000000000 l    d  .text._ZNKSt3mapINSt7__cxx1112basic_stringIcSt11char_traitsIcESaIcEEEiSt4lessIS5_ESaISt4pairIKS5_iEEE3endEv	0000000000000000 .text._ZNKSt3mapINSt7__cxx1112basic_stringIcSt11char_traitsIcESaIcEEEiSt4lessIS5_ESaISt4pairIKS5_iEEE3endEv
0000000000000000 l    d  .text._ZStneRKSt23_Rb_tree_const_iteratorISt4pairIKNSt7__cxx1112basic_stringIcSt11char_traitsIcESaIcEEEiEESB_	0000000000000000 .text._ZStneRKSt23_Rb_tree_const_iteratorISt4pairIKNSt7__cxx1112basic_stringIcSt11char_traitsIcESaIcEEEiEESB_
0000000000000000 l    d  .text._ZNSt23_Rb_tree_const_iteratorISt4pairIKNSt7__cxx1112basic_stringIcSt11char_traitsIcESaIcEEEiEEppEv	0000000000000000 .text._ZNSt23_Rb_tree_const_iteratorISt4pairIKNSt7__cxx1112basic_stringIcSt11char_traitsIcESaIcEEEiEEppEv
0000000000000000 l    d  .text._ZNKSt23_Rb_tree_const_iteratorISt4pairIKNSt7__cxx1112basic_stringIcSt11char_traitsIcESaIcEEEiEEptEv	0000000000000000 .text._ZNKSt23_Rb_tree_const_iteratorISt4pairIKNSt7__cxx1112basic_stringIcSt11char_traitsIcESaIcEEEiEEptEv
0000000000000000 l    d  .text._ZNKSt6vectorISt3mapINSt7__cxx1112basic_stringIcSt11char_traitsIcESaIcEEEiSt4lessIS6_ESaISt4pairIKS6_iEEESaISD_EE4sizeEv	0000000000000000 .text._ZNKSt6vectorISt3mapINSt7__cxx1112basic_stringIcSt11char_traitsIcESaIcEEEiSt4lessIS6_ESaISt4pairIKS6_iEEESaISD_EE4sizeEv
0000000000000000 l    d  .text._ZNKSt6vectorISt3mapINSt7__cxx1112basic_stringIcSt11char_traitsIcESaIcEEEiSt4lessIS6_ESaISt4pairIKS6_iEEESaISD_EEixEm	0000000000000000 .text._ZNKSt6vectorISt3mapINSt7__cxx1112basic_stringIcSt11char_traitsIcESaIcEEEiSt4lessIS6_ESaISt4pairIKS6_iEEESaISD_EEixEm
0000000000000000 l    d  .text._ZNSt8_Rb_treeINSt7__cxx1112basic_stringIcSt11char_traitsIcESaIcEEESt4pairIKS5_iESt10_Select1stIS8_ESt4lessIS5_ESaIS8_EEC2ERKSE_	0000000000000000 .text._ZNSt8_Rb_treeINSt7__cxx1112basic_stringIcSt11char_traitsIcESaIcEEESt4pairIKS5_iESt10_Select1stIS8_ESt4lessIS5_ESaIS8_EEC2ERKSE_
0000000000000000 l    d  .text._ZNKSt17_Rb_tree_iteratorISt4pairIKNSt7__cxx1112basic_stringIcSt11char_traitsIcESaIcEEEiEEptEv	0000000000000000 .text._ZNKSt17_Rb_tree_iteratorISt4pairIKNSt7__cxx1112basic_stringIcSt11char_traitsIcESaIcEEEiEEptEv
0000000000000000 l    d  .text._ZN8tinygltf28SerializeExtrasAndExtensionsINS_9PrimitiveEEEvRKT_RN8nlohmann10basic_jsonISt3mapSt6vectorNSt7__cxx1112basic_stringIcSt11char_traitsIcESaIcEEEblmdSaNS5_14adl_serializerES8_IhSaIhEEEE	0000000000000000 .text._ZN8tinygltf28SerializeExtrasAndExtensionsINS_9PrimitiveEEEvRKT_RN8nlohmann10basic_jsonISt3mapSt6vectorNSt7__cxx1112basic_stringIcSt11char_traitsIcESaIcEEEblmdSaNS5_14adl_serializerES8_IhSaIhEEEE
0000000000000000 l    d  .text._ZN8tinygltf28SerializeExtrasAndExtensionsINS_4MeshEEEvRKT_RN8nlohmann10basic_jsonISt3mapSt6vectorNSt7__cxx1112basic_stringIcSt11char_traitsIcESaIcEEEblmdSaNS5_14adl_serializerES8_IhSaIhEEEE	0000000000000000 .text._ZN8tinygltf28SerializeExtrasAndExtensionsINS_4MeshEEEvRKT_RN8nlohmann10basic_jsonISt3mapSt6vectorNSt7__cxx1112basic_stringIcSt11char_traitsIcESaIcEEEblmdSaNS5_14adl_serializerES8_IhSaIhEEEE
0000000000000000 l    d  .text._ZN8tinygltf28SerializeExtrasAndExtensionsINS_9SpotLightEEEvRKT_RN8nlohmann10basic_jsonISt3mapSt6vectorNSt7__cxx1112basic_stringIcSt11char_traitsIcESaIcEEEblmdSaNS5_14adl_serializerES8_IhSaIhEEEE	0000000000000000 .text._ZN8tinygltf28SerializeExtrasAndExtensionsINS_9SpotLightEEEvRKT_RN8nlohmann10basic_jsonISt3mapSt6vectorNSt7__cxx1112basic_stringIcSt11char_traitsIcESaIcEEEblmdSaNS5_14adl_serializerES8_IhSaIhEEEE
0000000000000000 l    d  .text._ZN8tinygltf28SerializeExtrasAndExtensionsINS_5LightEEEvRKT_RN8nlohmann10basic_jsonISt3mapSt6vectorNSt7__cxx1112basic_stringIcSt11char_traitsIcESaIcEEEblmdSaNS5_14adl_serializerES8_IhSaIhEEEE	0000000000000000 .text._ZN8tinygltf28SerializeExtrasAndExtensionsINS_5LightEEEvRKT_RN8nlohmann10basic_jsonISt3mapSt6vectorNSt7__cxx1112basic_stringIcSt11char_traitsIcESaIcEEEblmdSaNS5_14adl_serializerES8_IhSaIhEEEE
0000000000000000 l    d  .text._ZN8tinygltf28SerializeExtrasAndExtensionsINS_17PositionalEmitterEEEvRKT_RN8nlohmann10basic_jsonISt3mapSt6vectorNSt7__cxx1112basic_stringIcSt11char_traitsIcESaIcEEEblmdSaNS5_14adl_serializerES8_IhSaIhEEEE	0000000000000000 .text._ZN8tinygltf28SerializeExtrasAndExtensionsINS_17PositionalEmitterEEEvRKT_RN8nlohmann10basic_jsonISt3mapSt6vectorNSt7__cxx1112basic_stringIcSt11char_traitsIcESaIcEEEblmdSaNS5_14adl_serializerES8_IhSaIhEEEE
0000000000000000 l    d  .text._ZN8tinygltf28SerializeExtrasAndExtensionsINS_12AudioEmitterEEEvRKT_RN8nlohmann10basic_jsonISt3mapSt6vectorNSt7__cxx1112basic_stringIcSt11char_traitsIcESaIcEEEblmdSaNS5_14adl_serializerES8_IhSaIhEEEE	0000000000000000 .text._ZN8tinygltf28SerializeExtrasAndExtensionsINS_12AudioEmitterEEEvRKT_RN8nlohmann10basic_jsonISt3mapSt6vectorNSt7__cxx1112basic_stringIcSt11char_traitsIcESaIcEEEblmdSaNS5_14adl_serializerES8_IhSaIhEEEE
0000000000000000 l    d  .text._ZN8tinygltf28SerializeExtrasAndExtensionsINS_11AudioSourceEEEvRKT_RN8nlohmann10basic_jsonISt3mapSt6vectorNSt7__cxx1112basic_stringIcSt11char_traitsIcESaIcEEEblmdSaNS5_14adl_serializerES8_IhSaIhEEEE	0000000000000000 .text._ZN8tinygltf28SerializeExtrasAndExtensionsINS_11AudioSourceEEEvRKT_RN8nlohmann10basic_jsonISt3mapSt6vectorNSt7__cxx1112basic_stringIcSt11char_traitsIcESaIcEEEblmdSaNS5_14adl_serializerES8_IhSaIhEEEE
0000000000000000 l    d  .text._ZN8tinygltf28SerializeExtrasAndExtensionsINS_4NodeEEEvRKT_RN8nlohmann10basic_jsonISt3mapSt6vectorNSt7__cxx1112basic_stringIcSt11char_traitsIcESaIcEEEblmdSaNS5_14adl_serializerES8_IhSaIhEEEE	0000000000000000 .text._ZN8tinygltf28SerializeExtrasAndExtensionsINS_4NodeEEEvRKT_RN8nlohmann10basic_jsonISt3mapSt6vectorNSt7__cxx1112basic_stringIcSt11char_traitsIcESaIcEEEblmdSaNS5_14adl_serializerES8_IhSaIhEEEE
0000000000000000 l    d  .text._ZN8tinygltf28SerializeExtrasAndExtensionsINS_7SamplerEEEvRKT_RN8nlohmann10basic_jsonISt3mapSt6vectorNSt7__cxx1112basic_stringIcSt11char_traitsIcESaIcEEEblmdSaNS5_14adl_serializerES8_IhSaIhEEEE	0000000000000000 .text._ZN8tinygltf28SerializeExtrasAndExtensionsINS_7SamplerEEEvRKT_RN8nlohmann10basic_jsonISt3mapSt6vectorNSt7__cxx1112basic_stringIcSt11char_traitsIcESaIcEEEblmdSaNS5_14adl_serializerES8_IhSaIhEEEE
0000000000000000 l    d  .text._ZN8tinygltf28SerializeExtrasAndExtensionsINS_18OrthographicCameraEEEvRKT_RN8nlohmann10basic_jsonISt3mapSt6vectorNSt7__cxx1112basic_stringIcSt11char_traitsIcESaIcEEEblmdSaNS5_14adl_serializerES8_IhSaIhEEEE	0000000000000000 .text._ZN8tinygltf28SerializeExtrasAndExtensionsINS_18OrthographicCameraEEEvRKT_RN8nlohmann10basic_jsonISt3mapSt6vectorNSt7__cxx1112basic_stringIcSt11char_traitsIcESaIcEEEblmdSaNS5_14adl_serializerES8_IhSaIhEEEE
0000000000000000 l    d  .text._ZN8tinygltf28SerializeExtrasAndExtensionsINS_17PerspectiveCameraEEEvRKT_RN8nlohmann10basic_jsonISt3mapSt6vectorNSt7__cxx1112basic_stringIcSt11char_traitsIcESaIcEEEblmdSaNS5_14adl_serializerES8_IhSaIhEEEE	0000000000000000 .text._ZN8tinygltf28SerializeExtrasAndExtensionsINS_17PerspectiveCameraEEEvRKT_RN8nlohmann10basic_jsonISt3mapSt6vectorNSt7__cxx1112basic_stringIcSt11char_traitsIcESaIcEEEblmdSaNS5_14adl_serializerES8_IhSaIhEEEE
0000000000000000 l    d  .text._ZN8tinygltf28SerializeExtrasAndExtensionsINS_6CameraEEEvRKT_RN8nlohmann10basic_jsonISt3mapSt6vectorNSt7__cxx1112basic_stringIcSt11char_traitsIcESaIcEEEblmdSaNS5_14adl_serializerES8_IhSaIhEEEE	0000000000000000 .text._ZN8tinygltf28SerializeExtrasAndExtensionsINS_6CameraEEEvRKT_RN8nlohmann10basic_jsonISt3mapSt6vectorNSt7__cxx1112basic_stringIcSt11char_traitsIcESaIcEEEblmdSaNS5_14adl_serializerES8_IhSaIhEEEE
0000000000000000 l    d  .text._ZN8tinygltf28SerializeExtrasAndExtensionsINS_5SceneEEEvRKT_RN8nlohmann10basic_jsonISt3mapSt6vectorNSt7__cxx1112basic_stringIcSt11char_traitsIcESaIcEEEblmdSaNS5_14adl_serializerES8_IhSaIhEEEE	0000000000000000 .text._ZN8tinygltf28SerializeExtrasAndExtensionsINS_5SceneEEEvRKT_RN8nlohmann10basic_jsonISt3mapSt6vectorNSt7__cxx1112basic_stringIcSt11char_traitsIcESaIcEEEblmdSaNS5_14adl_serializerES8_IhSaIhEEEE
0000000000000000 l    d  .text._ZNKSt6vectorIiSaIiEE5emptyEv	0000000000000000 .text._ZNKSt6vectorIiSaIiEE5emptyEv
0000000000000000 l    d  .text._ZN8tinygltf28SerializeExtrasAndExtensionsINS_4SkinEEEvRKT_RN8nlohmann10basic_jsonISt3mapSt6vectorNSt7__cxx1112basic_stringIcSt11char_traitsIcESaIcEEEblmdSaNS5_14adl_serializerES8_IhSaIhEEEE	0000000000000000 .text._ZN8tinygltf28SerializeExtrasAndExtensionsINS_4SkinEEEvRKT_RN8nlohmann10basic_jsonISt3mapSt6vectorNSt7__cxx1112basic_stringIcSt11char_traitsIcESaIcEEEblmdSaNS5_14adl_serializerES8_IhSaIhEEEE
0000000000000000 l    d  .text._ZN8tinygltf28SerializeExtrasAndExtensionsINS_7TextureEEEvRKT_RN8nlohmann10basic_jsonISt3mapSt6vectorNSt7__cxx1112basic_stringIcSt11char_traitsIcESaIcEEEblmdSaNS5_14adl_serializerES8_IhSaIhEEEE	0000000000000000 .text._ZN8tinygltf28SerializeExtrasAndExtensionsINS_7TextureEEEvRKT_RN8nlohmann10basic_jsonISt3mapSt6vectorNSt7__cxx1112basic_stringIcSt11char_traitsIcESaIcEEEblmdSaNS5_14adl_serializerES8_IhSaIhEEEE
0000000000000000 l    d  .text._ZNKSt6vectorIN8tinygltf8AccessorESaIS1_EEixEm	0000000000000000 .text._ZNKSt6vectorIN8tinygltf8AccessorESaIS1_EEixEm
0000000000000000 l    d  .text._ZNKSt6vectorIN8tinygltf9AnimationESaIS1_EE4sizeEv	0000000000000000 .text._ZNKSt6vectorIN8tinygltf9AnimationESaIS1_EE4sizeEv
0000000000000000 l    d  .text._ZNKSt6vectorIN8tinygltf9AnimationESaIS1_EEixEm	0000000000000000 .text._ZNKSt6vectorIN8tinygltf9AnimationESaIS1_EEixEm
0000000000000000 l    d  .text._ZNKSt6vectorIN8tinygltf10BufferViewESaIS1_EEixEm	0000000000000000 .text._ZNKSt6vectorIN8tinygltf10BufferViewESaIS1_EEixEm
0000000000000000 l    d  .text._ZNKSt6vectorIN8tinygltf8MaterialESaIS1_EE4sizeEv	0000000000000000 .text._ZNKSt6vectorIN8tinygltf8MaterialESaIS1_EE4sizeEv
0000000000000000 l    d  .text._ZNKSt6vectorIN8tinygltf8MaterialESaIS1_EEixEm	0000000000000000 .text._ZNKSt6vectorIN8tinygltf8MaterialESaIS1_EEixEm
0000000000000000 l    d  .text._ZNKSt6vectorIN8tinygltf4MeshESaIS1_EE4sizeEv	0000000000000000 .text._ZNKSt6vectorIN8tinygltf4MeshESaIS1_EE4sizeEv
0000000000000000 l    d  .text._ZNKSt6vectorIN8tinygltf4MeshESaIS1_EEixEm	0000000000000000 .text._ZNKSt6vectorIN8tinygltf4MeshESaIS1_EEixEm
0000000000000000 l    d  .text._ZNKSt6vectorIN8tinygltf4NodeESaIS1_EE4sizeEv	0000000000000000 .text._ZNKSt6vectorIN8tinygltf4NodeESaIS1_EE4sizeEv
0000000000000000 l    d  .text._ZNKSt6vectorIN8tinygltf4NodeESaIS1_EEixEm	0000000000000000 .text._ZNKSt6vectorIN8tinygltf4NodeESaIS1_EEixEm
0000000000000000 l    d  .text._ZNKSt6vectorIN8tinygltf5SceneESaIS1_EE4sizeEv	0000000000000000 .text._ZNKSt6vectorIN8tinygltf5SceneESaIS1_EE4sizeEv
0000000000000000 l    d  .text._ZNKSt6vectorIN8tinygltf5SceneESaIS1_EEixEm	0000000000000000 .text._ZNKSt6vectorIN8tinygltf5SceneESaIS1_EEixEm
0000000000000000 l    d  .text._ZNKSt6vectorIN8tinygltf4SkinESaIS1_EE4sizeEv	0000000000000000 .text._ZNKSt6vectorIN8tinygltf4SkinESaIS1_EE4sizeEv
0000000000000000 l    d  .text._ZNKSt6vectorIN8tinygltf4SkinESaIS1_EEixEm	0000000000000000 .text._ZNKSt6vectorIN8tinygltf4SkinESaIS1_EEixEm
0000000000000000 l    d  .text._ZNKSt6vectorIN8tinygltf7TextureESaIS1_EE4sizeEv	0000000000000000 .text._ZNKSt6vectorIN8tinygltf7TextureESaIS1_EE4sizeEv
0000000000000000 l    d  .text._ZNKSt6vectorIN8tinygltf7TextureESaIS1_EEixEm	0000000000000000 .text._ZNKSt6vectorIN8tinygltf7TextureESaIS1_EEixEm
0000000000000000 l    d  .text._ZNKSt6vectorIN8tinygltf7SamplerESaIS1_EE4sizeEv	0000000000000000 .text._ZNKSt6vectorIN8tinygltf7SamplerESaIS1_EE4sizeEv
0000000000000000 l    d  .text._ZNKSt6vectorIN8tinygltf7SamplerESaIS1_EEixEm	0000000000000000 .text._ZNKSt6vectorIN8tinygltf7SamplerESaIS1_EEixEm
0000000000000000 l    d  .text._ZNKSt6vectorIN8tinygltf6CameraESaIS1_EE4sizeEv	0000000000000000 .text._ZNKSt6vectorIN8tinygltf6CameraESaIS1_EE4sizeEv
0000000000000000 l    d  .text._ZNKSt6vectorIN8tinygltf6CameraESaIS1_EEixEm	0000000000000000 .text._ZNKSt6vectorIN8tinygltf6CameraESaIS1_EEixEm
0000000000000000 l    d  .text._ZN8tinygltf28SerializeExtrasAndExtensionsINS_5ModelEEEvRKT_RN8nlohmann10basic_jsonISt3mapSt6vectorNSt7__cxx1112basic_stringIcSt11char_traitsIcESaIcEEEblmdSaNS5_14adl_serializerES8_IhSaIhEEEE	0000000000000000 .text._ZN8tinygltf28SerializeExtrasAndExtensionsINS_5ModelEEEvRKT_RN8nlohmann10basic_jsonISt3mapSt6vectorNSt7__cxx1112basic_stringIcSt11char_traitsIcESaIcEEEblmdSaNS5_14adl_serializerES8_IhSaIhEEEE
0000000000000000 l    d  .text._ZNSt6vectorINSt7__cxx1112basic_stringIcSt11char_traitsIcESaIcEEESaIS5_EEC2ERKS7_	0000000000000000 .text._ZNSt6vectorINSt7__cxx1112basic_stringIcSt11char_traitsIcESaIcEEESaIS5_EEC2ERKS7_
0000000000000000 l    d  .text._ZNKSt6vectorIN8tinygltf5LightESaIS1_EE4sizeEv	0000000000000000 .text._ZNKSt6vectorIN8tinygltf5LightESaIS1_EE4sizeEv
0000000000000000 l    d  .text._ZNKSt6vectorIN8tinygltf5LightESaIS1_EEixEm	0000000000000000 .text._ZNKSt6vectorIN8tinygltf5LightESaIS1_EEixEm
0000000000000000 l    d  .text._ZNSt6vectorINSt7__cxx1112basic_stringIcSt11char_traitsIcESaIcEEESaIS5_EE5beginEv	0000000000000000 .text._ZNSt6vectorINSt7__cxx1112basic_stringIcSt11char_traitsIcESaIcEEESaIS5_EE5beginEv
0000000000000000 l    d  .text._ZNSt6vectorINSt7__cxx1112basic_stringIcSt11char_traitsIcESaIcEEESaIS5_EE3endEv	0000000000000000 .text._ZNSt6vectorINSt7__cxx1112basic_stringIcSt11char_traitsIcESaIcEEESaIS5_EE3endEv
000000000004a044 l     F .text	0000000000000023 _ZN9__gnu_cxx5__ops11__pred_iterIZN8tinygltfL18SerializeGltfModelEPKNS2_5ModelERN8nlohmann10basic_jsonISt3mapSt6vectorNSt7__cxx1112basic_stringIcSt11char_traitsIcESaIcEEEblmdSaNS6_14adl_serializerES9_IhSaIhEEEEEUlRKSF_E_EENS0_10_Iter_predIT_EESP_
000000000004a067 l     F .text	0000000000000026 _ZSt9__find_ifIN9__gnu_cxx17__normal_iteratorIPNSt7__cxx1112basic_stringIcSt11char_traitsIcESaIcEEESt6vectorIS7_SaIS7_EEEENS0_5__ops10_Iter_predIZN8tinygltfL18SerializeGltfModelEPKNSF_5ModelERN8nlohmann10basic_jsonISt3mapS9_S7_blmdSaNSJ_14adl_serializerES9_IhSaIhEEEEEUlRKS7_E_EEET_SV_SV_T0_
0000000000000000 l    d  .text._ZN9__gnu_cxxeqIPNSt7__cxx1112basic_stringIcSt11char_traitsIcESaIcEEESt6vectorIS6_SaIS6_EEEEbRKNS_17__normal_iteratorIT_T0_EESG_	0000000000000000 .text._ZN9__gnu_cxxeqIPNSt7__cxx1112basic_stringIcSt11char_traitsIcESaIcEEESt6vectorIS6_SaIS6_EEEEbRKNS_17__normal_iteratorIT_T0_EESG_
0000000000000000 l    d  .text._ZNKSt6vectorIN8tinygltf12AudioEmitterESaIS1_EE5emptyEv	0000000000000000 .text._ZNKSt6vectorIN8tinygltf12AudioEmitterESaIS1_EE5emptyEv
0000000000000000 l    d  .text._ZNKSt6vectorIN8tinygltf11AudioSourceESaIS1_EE5emptyEv	0000000000000000 .text._ZNKSt6vectorIN8tinygltf11AudioSourceESaIS1_EE5emptyEv
0000000000000000 l    d  .text._ZNKSt6vectorIN8tinygltf12AudioEmitterESaIS1_EE4sizeEv	0000000000000000 .text._ZNKSt6vectorIN8tinygltf12AudioEmitterESaIS1_EE4sizeEv
0000000000000000 l    d  .text._ZNKSt6vectorIN8tinygltf12AudioEmitterESaIS1_EEixEm	0000000000000000 .text._ZNKSt6vectorIN8tinygltf12AudioEmitterESaIS1_EEixEm
0000000000000000 l    d  .text._ZNKSt6vectorIN8tinygltf11AudioSourceESaIS1_EE4sizeEv	0000000000000000 .text._ZNKSt6vectorIN8tinygltf11AudioSourceESaIS1_EE4sizeEv
0000000000000000 l    d  .text._ZNKSt6vectorIN8tinygltf11AudioSourceESaIS1_EEixEm	0000000000000000 .text._ZNKSt6vectorIN8tinygltf11AudioSourceESaIS1_EEixEm
000000000004a08d l     F .text	0000000000000023 _ZN9__gnu_cxx5__ops11__pred_iterIZN8tinygltfL18SerializeGltfModelEPKNS2_5ModelERN8nlohmann10basic_jsonISt3mapSt6vectorNSt7__cxx1112basic_stringIcSt11char_traitsIcESaIcEEEblmdSaNS6_14adl_serializerES9_IhSaIhEEEEEUlRKSF_E0_EENS0_10_Iter_predIT_EESP_
000000000004a0b0 l     F .text	0000000000000026 _ZSt9__find_ifIN9__gnu_cxx17__normal_iteratorIPNSt7__cxx1112basic_stringIcSt11char_traitsIcESaIcEEESt6vectorIS7_SaIS7_EEEENS0_5__ops10_Iter_predIZN8tinygltfL18SerializeGltfModelEPKNSF_5ModelERN8nlohmann10basic_jsonISt3mapS9_S7_blmdSaNSJ_14adl_serializerES9_IhSaIhEEEEEUlRKS7_E0_EEET_SV_SV_T0_
0000000000000000 l    d  .text._ZNKSt6vectorIhSaIhEE4dataEv	0000000000000000 .text._ZNKSt6vectorIhSaIhEE4dataEv
0000000000000000 l    d  .text._ZNSt6vectorIhSaIhEEC2EmRKhRKS0_	0000000000000000 .text._ZNSt6vectorIhSaIhEEC2EmRKhRKS0_
0000000000000000 l    d  .text._ZNKSt6vectorIN8tinygltf6BufferESaIS1_EEixEm	0000000000000000 .text._ZNKSt6vectorIN8tinygltf6BufferESaIS1_EEixEm
0000000000000000 l    d  .text._ZNKSt6vectorIN8tinygltf5ImageESaIS1_EE4sizeEv	0000000000000000 .text._ZNKSt6vectorIN8tinygltf5ImageESaIS1_EE4sizeEv
0000000000000000 l    d  .text._ZNKSt6vectorIN8tinygltf5ImageESaIS1_EEixEm	0000000000000000 .text._ZNKSt6vectorIN8tinygltf5ImageESaIS1_EEixEm
0000000000000000 l    d  .text._ZN9__gnu_cxxneIPNSt7__cxx1112basic_stringIcSt11char_traitsIcESaIcEEESt6vectorIS6_SaIS6_EEEEbRKNS_17__normal_iteratorIT_T0_EESG_	0000000000000000 .text._ZN9__gnu_cxxneIPNSt7__cxx1112basic_stringIcSt11char_traitsIcESaIcEEESt6vectorIS6_SaIS6_EEEEbRKNS_17__normal_iteratorIT_T0_EESG_
0000000000000000 l    d  .text._ZN9__gnu_cxx17__normal_iteratorIPNSt7__cxx1112basic_stringIcSt11char_traitsIcESaIcEEESt6vectorIS6_SaIS6_EEEppEv	0000000000000000 .text._ZN9__gnu_cxx17__normal_iteratorIPNSt7__cxx1112basic_stringIcSt11char_traitsIcESaIcEEESt6vectorIS6_SaIS6_EEEppEv
0000000000000000 l    d  .text._ZNK9__gnu_cxx17__normal_iteratorIPNSt7__cxx1112basic_stringIcSt11char_traitsIcESaIcEEESt6vectorIS6_SaIS6_EEEdeEv	0000000000000000 .text._ZNK9__gnu_cxx17__normal_iteratorIPNSt7__cxx1112basic_stringIcSt11char_traitsIcESaIcEEESt6vectorIS6_SaIS6_EEEdeEv
0000000000000000 l    d  .text._ZNSt15__new_allocatorIcED2Ev	0000000000000000 .text._ZNSt15__new_allocatorIcED2Ev
0000000000000000 l    d  .text._ZNSt12_Vector_baseIhSaIhEE17_Vector_impl_dataC2Ev	0000000000000000 .text._ZNSt12_Vector_baseIhSaIhEE17_Vector_impl_dataC2Ev
0000000000000000 l    d  .text._ZNSt15__new_allocatorIhED2Ev	0000000000000000 .text._ZNSt15__new_allocatorIhED2Ev
0000000000000000 l    d  .text._ZNSt12_Vector_baseIhSaIhEE13_M_deallocateEPhm	0000000000000000 .text._ZNSt12_Vector_baseIhSaIhEE13_M_deallocateEPhm
0000000000000000 l    d  .text._ZNSt12_Vector_baseIhSaIhEE19_M_get_Tp_allocatorEv	0000000000000000 .text._ZNSt12_Vector_baseIhSaIhEE19_M_get_Tp_allocatorEv
0000000000000000 l    d  .text._ZNSt12_Vector_baseIN8tinygltf5ValueESaIS1_EE17_Vector_impl_dataC2Ev	0000000000000000 .text._ZNSt12_Vector_baseIN8tinygltf5ValueESaIS1_EE17_Vector_impl_dataC2Ev
0000000000000000 l    d  .text._ZNSt15__new_allocatorIN8tinygltf5ValueEED2Ev	0000000000000000 .text._ZNSt15__new_allocatorIN8tinygltf5ValueEED2Ev
0000000000000000 l    d  .text._ZNSt12_Vector_baseIN8tinygltf5ValueESaIS1_EE13_M_deallocateEPS1_m	0000000000000000 .text._ZNSt12_Vector_baseIN8tinygltf5ValueESaIS1_EE13_M_deallocateEPS1_m
0000000000000000 l    d  .text._ZNSt12_Vector_baseIN8tinygltf5ValueESaIS1_EE19_M_get_Tp_allocatorEv	0000000000000000 .text._ZNSt12_Vector_baseIN8tinygltf5ValueESaIS1_EE19_M_get_Tp_allocatorEv
0000000000000000 l    d  .text._ZNSt20_Rb_tree_key_compareISt4lessINSt7__cxx1112basic_stringIcSt11char_traitsIcESaIcEEEEEC2Ev	0000000000000000 .text._ZNSt20_Rb_tree_key_compareISt4lessINSt7__cxx1112basic_stringIcSt11char_traitsIcESaIcEEEEEC2Ev
0000000000000000 l    d  .text._ZNSt15__new_allocatorISt13_Rb_tree_nodeISt4pairIKNSt7__cxx1112basic_stringIcSt11char_traitsIcESaIcEEEN8tinygltf5ValueEEEED2Ev	0000000000000000 .text._ZNSt15__new_allocatorISt13_Rb_tree_nodeISt4pairIKNSt7__cxx1112basic_stringIcSt11char_traitsIcESaIcEEEN8tinygltf5ValueEEEED2Ev
0000000000000000 l    d  .text._ZNSt8_Rb_treeINSt7__cxx1112basic_stringIcSt11char_traitsIcESaIcEEESt4pairIKS5_N8tinygltf5ValueEESt10_Select1stISA_ESt4lessIS5_ESaISA_EE8_M_eraseEPSt13_Rb_tree_nodeISA_E	0000000000000000 .text._ZNSt8_Rb_treeINSt7__cxx1112basic_stringIcSt11char_traitsIcESaIcEEESt4pairIKS5_N8tinygltf5ValueEESt10_Select1stISA_ESt4lessIS5_ESaISA_EE8_M_eraseEPSt13_Rb_tree_nodeISA_E
0000000000000000 l    d  .text._ZNSt8_Rb_treeINSt7__cxx1112basic_stringIcSt11char_traitsIcESaIcEEESt4pairIKS5_N8tinygltf5ValueEESt10_Select1stISA_ESt4lessIS5_ESaISA_EE8_M_beginEv	0000000000000000 .text._ZNSt8_Rb_treeINSt7__cxx1112basic_stringIcSt11char_traitsIcESaIcEEESt4pairIKS5_N8tinygltf5ValueEESt10_Select1stISA_ESt4lessIS5_ESaISA_EE8_M_beginEv
0000000000000000 l    d  .text._ZNSt6vectorIhSaIhEE15_S_use_relocateEv	0000000000000000 .text._ZNSt6vectorIhSaIhEE15_S_use_relocateEv
0000000000000000 l    d  .text._ZNSt6vectorIhSaIhEE19_S_nothrow_relocateESt17integral_constantIbLb1EE	0000000000000000 .text._ZNSt6vectorIhSaIhEE19_S_nothrow_relocateESt17integral_constantIbLb1EE
0000000000000000 l    d  .text._ZNSt6vectorIhSaIhEE17_M_default_appendEm	0000000000000000 .text._ZNSt6vectorIhSaIhEE17_M_default_appendEm
0000000000000000 l    d  .text._ZNSt6vectorIhSaIhEE15_M_erase_at_endEPh	0000000000000000 .text._ZNSt6vectorIhSaIhEE15_M_erase_at_endEPh
0000000000000000 l    d  .text._ZNKSt6vectorIhSaIhEE11_M_data_ptrIhEEPT_S4_	0000000000000000 .text._ZNKSt6vectorIhSaIhEE11_M_data_ptrIhEEPT_S4_
0000000000000000 l    d  .text._ZSt4moveIRNSt12_Vector_baseIhSaIhEE12_Vector_implEEONSt16remove_referenceIT_E4typeEOS6_	0000000000000000 .text._ZSt4moveIRNSt12_Vector_baseIhSaIhEE12_Vector_implEEONSt16remove_referenceIT_E4typeEOS6_
0000000000000000 l    d  .text._ZNSt12_Vector_baseIhSaIhEE17_Vector_impl_dataC2EOS2_	0000000000000000 .text._ZNSt12_Vector_baseIhSaIhEE17_Vector_impl_dataC2EOS2_
0000000000000000 l    d  .text._ZNKSt12_Vector_baseIN8tinygltf5ValueESaIS1_EE19_M_get_Tp_allocatorEv	0000000000000000 .text._ZNKSt12_Vector_baseIN8tinygltf5ValueESaIS1_EE19_M_get_Tp_allocatorEv
0000000000000000 l    d  .text._ZNKSt6vectorIN8tinygltf5ValueESaIS1_EE8capacityEv	0000000000000000 .text._ZNKSt6vectorIN8tinygltf5ValueESaIS1_EE8capacityEv
0000000000000000 l    d  .text._ZNKSt6vectorIN8tinygltf5ValueESaIS1_EE5beginEv	0000000000000000 .text._ZNKSt6vectorIN8tinygltf5ValueESaIS1_EE5beginEv
0000000000000000 l    d  .text._ZNKSt6vectorIN8tinygltf5ValueESaIS1_EE3endEv	0000000000000000 .text._ZNKSt6vectorIN8tinygltf5ValueESaIS1_EE3endEv
0000000000000000 l    d  .text._ZNSt6vectorIN8tinygltf5ValueESaIS1_EE5beginEv	0000000000000000 .text._ZNSt6vectorIN8tinygltf5ValueESaIS1_EE5beginEv
0000000000000000 l    d  .text._ZNSt6vectorIN8tinygltf5ValueESaIS1_EE3endEv	0000000000000000 .text._ZNSt6vectorIN8tinygltf5ValueESaIS1_EE3endEv
0000000000000000 l    d  .text._ZSt4moveIRNSt12_Vector_baseIN8tinygltf5ValueESaIS2_EE12_Vector_implEEONSt16remove_referenceIT_E4typeEOS8_	0000000000000000 .text._ZSt4moveIRNSt12_Vector_baseIN8tinygltf5ValueESaIS2_EE12_Vector_implEEONSt16remove_referenceIT_E4typeEOS8_
0000000000000000 l    d  .text._ZNSt12_Vector_baseIN8tinygltf5ValueESaIS1_EE17_Vector_impl_dataC2EOS4_	0000000000000000 .text._ZNSt12_Vector_baseIN8tinygltf5ValueESaIS1_EE17_Vector_impl_dataC2EOS4_
0000000000000000 l    d  .text._ZNSt8_Rb_treeINSt7__cxx1112basic_stringIcSt11char_traitsIcESaIcEEESt4pairIKS5_N8tinygltf5ValueEESt10_Select1stISA_ESt4lessIS5_ESaISA_EE21_M_get_Node_allocatorEv	0000000000000000 .text._ZNSt8_Rb_treeINSt7__cxx1112basic_stringIcSt11char_traitsIcESaIcEEESt4pairIKS5_N8tinygltf5ValueEESt10_Select1stISA_ESt4lessIS5_ESaISA_EE21_M_get_Node_allocatorEv
0000000000000000 l    d  .text._ZNSt8_Rb_treeINSt7__cxx1112basic_stringIcSt11char_traitsIcESaIcEEESt4pairIKS5_N8tinygltf5ValueEESt10_Select1stISA_ESt4lessIS5_ESaISA_EE5clearEv	0000000000000000 .text._ZNSt8_Rb_treeINSt7__cxx1112basic_stringIcSt11char_traitsIcESaIcEEESt4pairIKS5_N8tinygltf5ValueEESt10_Select1stISA_ESt4lessIS5_ESaISA_EE5clearEv
0000000000000000 l    d  .text._ZNKSt8_Rb_treeINSt7__cxx1112basic_stringIcSt11char_traitsIcESaIcEEESt4pairIKS5_N8tinygltf5ValueEESt10_Select1stISA_ESt4lessIS5_ESaISA_EE7_M_rootEv	0000000000000000 .text._ZNKSt8_Rb_treeINSt7__cxx1112basic_stringIcSt11char_traitsIcESaIcEEESt4pairIKS5_N8tinygltf5ValueEESt10_Select1stISA_ESt4lessIS5_ESaISA_EE7_M_rootEv
0000000000000000 l    d  .text._ZNSt8_Rb_treeINSt7__cxx1112basic_stringIcSt11char_traitsIcESaIcEEESt4pairIKS5_N8tinygltf5ValueEESt10_Select1stISA_ESt4lessIS5_ESaISA_EE7_M_rootEv	0000000000000000 .text._ZNSt8_Rb_treeINSt7__cxx1112basic_stringIcSt11char_traitsIcESaIcEEESt4pairIKS5_N8tinygltf5ValueEESt10_Select1stISA_ESt4lessIS5_ESaISA_EE7_M_rootEv
0000000000000000 l    d  .text._ZNKSt8_Rb_treeINSt7__cxx1112basic_stringIcSt11char_traitsIcESaIcEEESt4pairIKS5_N8tinygltf5ValueEESt10_Select1stISA_ESt4lessIS5_ESaISA_EE4findERS7_	0000000000000000 .text._ZNKSt8_Rb_treeINSt7__cxx1112basic_stringIcSt11char_traitsIcESaIcEEESt4pairIKS5_N8tinygltf5ValueEESt10_Select1stISA_ESt4lessIS5_ESaISA_EE4findERS7_
0000000000000000 l    d  .text._ZNKSt8_Rb_treeINSt7__cxx1112basic_stringIcSt11char_traitsIcESaIcEEESt4pairIKS5_N8tinygltf5ValueEESt10_Select1stISA_ESt4lessIS5_ESaISA_EE3endEv	0000000000000000 .text._ZNKSt8_Rb_treeINSt7__cxx1112basic_stringIcSt11char_traitsIcESaIcEEESt4pairIKS5_N8tinygltf5ValueEESt10_Select1stISA_ESt4lessIS5_ESaISA_EE3endEv
0000000000000000 l    d  .text._ZNKSt13_Rb_tree_nodeISt4pairIKNSt7__cxx1112basic_stringIcSt11char_traitsIcESaIcEEEN8tinygltf5ValueEEE9_M_valptrEv	0000000000000000 .text._ZNKSt13_Rb_tree_nodeISt4pairIKNSt7__cxx1112basic_stringIcSt11char_traitsIcESaIcEEEN8tinygltf5ValueEEE9_M_valptrEv
0000000000000000 l    d  .text._ZNSt12_Vector_baseINSt7__cxx1112basic_stringIcSt11char_traitsIcESaIcEEESaIS5_EE17_Vector_impl_dataC2Ev	0000000000000000 .text._ZNSt12_Vector_baseINSt7__cxx1112basic_stringIcSt11char_traitsIcESaIcEEESaIS5_EE17_Vector_impl_dataC2Ev
0000000000000000 l    d  .text._ZNSt15__new_allocatorINSt7__cxx1112basic_stringIcSt11char_traitsIcESaIcEEEED2Ev	0000000000000000 .text._ZNSt15__new_allocatorINSt7__cxx1112basic_stringIcSt11char_traitsIcESaIcEEEED2Ev
0000000000000000 l    d  .text._ZNSt12_Vector_baseINSt7__cxx1112basic_stringIcSt11char_traitsIcESaIcEEESaIS5_EE13_M_deallocateEPS5_m	0000000000000000 .text._ZNSt12_Vector_baseINSt7__cxx1112basic_stringIcSt11char_traitsIcESaIcEEESaIS5_EE13_M_deallocateEPS5_m
0000000000000000 l    d  .text._ZNSt12_Vector_baseINSt7__cxx1112basic_stringIcSt11char_traitsIcESaIcEEESaIS5_EE19_M_get_Tp_allocatorEv	0000000000000000 .text._ZNSt12_Vector_baseINSt7__cxx1112basic_stringIcSt11char_traitsIcESaIcEEESaIS5_EE19_M_get_Tp_allocatorEv
0000000000000000 l    d  .text._ZNKSt8_Rb_treeINSt7__cxx1112basic_stringIcSt11char_traitsIcESaIcEEESt4pairIKS5_N8tinygltf5ValueEESt10_Select1stISA_ESt4lessIS5_ESaISA_EE5beginEv	0000000000000000 .text._ZNKSt8_Rb_treeINSt7__cxx1112basic_stringIcSt11char_traitsIcESaIcEEESt4pairIKS5_N8tinygltf5ValueEESt10_Select1stISA_ESt4lessIS5_ESaISA_EE5beginEv
0000000000000000 l    d  .text._ZNSt6vectorINSt7__cxx1112basic_stringIcSt11char_traitsIcESaIcEEESaIS5_EE15_S_use_relocateEv	0000000000000000 .text._ZNSt6vectorINSt7__cxx1112basic_stringIcSt11char_traitsIcESaIcEEESaIS5_EE15_S_use_relocateEv
0000000000000000 l    d  .text._ZNSt6vectorINSt7__cxx1112basic_stringIcSt11char_traitsIcESaIcEEESaIS5_EE19_S_nothrow_relocateESt17integral_constantIbLb1EE	0000000000000000 .text._ZNSt6vectorINSt7__cxx1112basic_stringIcSt11char_traitsIcESaIcEEESaIS5_EE19_S_nothrow_relocateESt17integral_constantIbLb1EE
0000000000000000 l    d  .text._ZNSt6vectorINSt7__cxx1112basic_stringIcSt11char_traitsIcESaIcEEESaIS5_EE17_M_realloc_insertIJRKS5_EEEvN9__gnu_cxx17__normal_iteratorIPS5_S7_EEDpOT_	0000000000000000 .text._ZNSt6vectorINSt7__cxx1112basic_stringIcSt11char_traitsIcESaIcEEESaIS5_EE17_M_realloc_insertIJRKS5_EEEvN9__gnu_cxx17__normal_iteratorIPS5_S7_EEDpOT_
0000000000000000 l    d  .text._ZNKSt8_Rb_treeINSt7__cxx1112basic_stringIcSt11char_traitsIcESaIcEEESt4pairIKS5_dESt10_Select1stIS8_ESt4lessIS5_ESaIS8_EE4findERS7_	0000000000000000 .text._ZNKSt8_Rb_treeINSt7__cxx1112basic_stringIcSt11char_traitsIcESaIcEEESt4pairIKS5_dESt10_Select1stIS8_ESt4lessIS5_ESaIS8_EE4findERS7_
0000000000000000 l    d  .text._ZNKSt13_Rb_tree_nodeISt4pairIKNSt7__cxx1112basic_stringIcSt11char_traitsIcESaIcEEEdEE9_M_valptrEv	0000000000000000 .text._ZNKSt13_Rb_tree_nodeISt4pairIKNSt7__cxx1112basic_stringIcSt11char_traitsIcESaIcEEEdEE9_M_valptrEv
0000000000000000 l    d  .text._ZNSt15__new_allocatorIdED2Ev	0000000000000000 .text._ZNSt15__new_allocatorIdED2Ev
0000000000000000 l    d  .text._ZNSt12_Vector_baseIdSaIdEEC2ERKS0_	0000000000000000 .text._ZNSt12_Vector_baseIdSaIdEEC2ERKS0_
0000000000000000 l    d  .text._ZNKSt16initializer_listIdE5beginEv	0000000000000000 .text._ZNKSt16initializer_listIdE5beginEv
0000000000000000 l    d  .text._ZNKSt16initializer_listIdE3endEv	0000000000000000 .text._ZNKSt16initializer_listIdE3endEv
0000000000000000 l    d  .text._ZNSt6vectorIdSaIdEE19_M_range_initializeIPKdEEvT_S5_St20forward_iterator_tag	0000000000000000 .text._ZNSt6vectorIdSaIdEE19_M_range_initializeIPKdEEvT_S5_St20forward_iterator_tag
0000000000000000 l    d  .text._ZNSt12_Vector_baseIdSaIdEE19_M_get_Tp_allocatorEv	0000000000000000 .text._ZNSt12_Vector_baseIdSaIdEE19_M_get_Tp_allocatorEv
0000000000000000 l    d  .text._ZSt4moveIRNSt12_Vector_baseIdSaIdEE12_Vector_implEEONSt16remove_referenceIT_E4typeEOS6_	0000000000000000 .text._ZSt4moveIRNSt12_Vector_baseIdSaIdEE12_Vector_implEEONSt16remove_referenceIT_E4typeEOS6_
0000000000000000 l    d  .text._ZNSt12_Vector_baseIdSaIdEE17_Vector_impl_dataC2EOS2_	0000000000000000 .text._ZNSt12_Vector_baseIdSaIdEE17_Vector_impl_dataC2EOS2_
0000000000000000 l    d  .text._ZNSt12_Vector_baseIdSaIdEE13_M_deallocateEPdm	0000000000000000 .text._ZNSt12_Vector_baseIdSaIdEE13_M_deallocateEPdm
0000000000000000 l    d  .text._ZNSt12_Vector_baseIdSaIdEE17_Vector_impl_dataC2Ev	0000000000000000 .text._ZNSt12_Vector_baseIdSaIdEE17_Vector_impl_dataC2Ev
0000000000000000 l    d  .text._ZNSt15__new_allocatorISt13_Rb_tree_nodeISt4pairIKNSt7__cxx1112basic_stringIcSt11char_traitsIcESaIcEEEN8tinygltf9ParameterEEEED2Ev	0000000000000000 .text._ZNSt15__new_allocatorISt13_Rb_tree_nodeISt4pairIKNSt7__cxx1112basic_stringIcSt11char_traitsIcESaIcEEEN8tinygltf9ParameterEEEED2Ev
0000000000000000 l    d  .text._ZNSt8_Rb_treeINSt7__cxx1112basic_stringIcSt11char_traitsIcESaIcEEESt4pairIKS5_N8tinygltf9ParameterEESt10_Select1stISA_ESt4lessIS5_ESaISA_EE8_M_eraseEPSt13_Rb_tree_nodeISA_E	0000000000000000 .text._ZNSt8_Rb_treeINSt7__cxx1112basic_stringIcSt11char_traitsIcESaIcEEESt4pairIKS5_N8tinygltf9ParameterEESt10_Select1stISA_ESt4lessIS5_ESaISA_EE8_M_eraseEPSt13_Rb_tree_nodeISA_E
0000000000000000 l    d  .text._ZNSt8_Rb_treeINSt7__cxx1112basic_stringIcSt11char_traitsIcESaIcEEESt4pairIKS5_N8tinygltf9ParameterEESt10_Select1stISA_ESt4lessIS5_ESaISA_EE8_M_beginEv	0000000000000000 .text._ZNSt8_Rb_treeINSt7__cxx1112basic_stringIcSt11char_traitsIcESaIcEEESt4pairIKS5_N8tinygltf9ParameterEESt10_Select1stISA_ESt4lessIS5_ESaISA_EE8_M_beginEv
0000000000000000 l    d  .text._ZSt12__str_concatINSt7__cxx1112basic_stringIcSt11char_traitsIcESaIcEEEET_PKNS6_10value_typeENS6_9size_typeES9_SA_RKNS6_14allocator_typeE	0000000000000000 .text._ZSt12__str_concatINSt7__cxx1112basic_stringIcSt11char_traitsIcESaIcEEEET_PKNS6_10value_typeENS6_9size_typeES9_SA_RKNS6_14allocator_typeE
0000000000000000 l    d  .text._ZNSt16_Sp_counted_baseILN9__gnu_cxx12_Lock_policyE2EED2Ev	0000000000000000 .text._ZNSt16_Sp_counted_baseILN9__gnu_cxx12_Lock_policyE2EED2Ev
0000000000000000 l    d  .text._ZNSt16_Sp_counted_baseILN9__gnu_cxx12_Lock_policyE2EED0Ev	0000000000000000 .text._ZNSt16_Sp_counted_baseILN9__gnu_cxx12_Lock_policyE2EED0Ev
0000000000000000 l    d  .text._ZSt7forwardIbEOT_RNSt16remove_referenceIS0_E4typeE	0000000000000000 .text._ZSt7forwardIbEOT_RNSt16remove_referenceIS0_E4typeE
0000000000000000 l    d  .text._ZSt7forwardIiEOT_RNSt16remove_referenceIS0_E4typeE	0000000000000000 .text._ZSt7forwardIiEOT_RNSt16remove_referenceIS0_E4typeE
0000000000000000 l    d  .text._ZNK8nlohmann27byte_container_with_subtypeISt6vectorIhSaIhEEE11has_subtypeEv	0000000000000000 .text._ZNK8nlohmann27byte_container_with_subtypeISt6vectorIhSaIhEEE11has_subtypeEv
0000000000000000 l    d  .text._ZNK8nlohmann27byte_container_with_subtypeISt6vectorIhSaIhEEE7subtypeEv	0000000000000000 .text._ZNK8nlohmann27byte_container_with_subtypeISt6vectorIhSaIhEEE7subtypeEv
0000000000000000 l    d  .text._ZNKSt6vectorIhSaIhEE5beginEv	0000000000000000 .text._ZNKSt6vectorIhSaIhEE5beginEv
0000000000000000 l    d  .text._ZNKSt6vectorIhSaIhEE3endEv	0000000000000000 .text._ZNKSt6vectorIhSaIhEE3endEv
0000000000000000 l    d  .text._ZN9__gnu_cxxneIPKhSt6vectorIhSaIhEEEEbRKNS_17__normal_iteratorIT_T0_EESB_	0000000000000000 .text._ZN9__gnu_cxxneIPKhSt6vectorIhSaIhEEEEbRKNS_17__normal_iteratorIT_T0_EESB_
0000000000000000 l    d  .text._ZN9__gnu_cxx17__normal_iteratorIPKhSt6vectorIhSaIhEEEppEv	0000000000000000 .text._ZN9__gnu_cxx17__normal_iteratorIPKhSt6vectorIhSaIhEEEppEv
0000000000000000 l    d  .text._ZNK9__gnu_cxx17__normal_iteratorIPKhSt6vectorIhSaIhEEEdeEv	0000000000000000 .text._ZNK9__gnu_cxx17__normal_iteratorIPKhSt6vectorIhSaIhEEEdeEv
0000000000000000 l    d  .text._ZSt4swapIN8nlohmann6detail7value_tEENSt9enable_ifIXsrSt6__and_IJSt6__not_ISt15__is_tuple_likeIT_EESt21is_move_constructibleIS7_ESt18is_move_assignableIS7_EEE5valueEvE4typeERS7_SH_	0000000000000000 .text._ZSt4swapIN8nlohmann6detail7value_tEENSt9enable_ifIXsrSt6__and_IJSt6__not_ISt15__is_tuple_likeIT_EESt21is_move_constructibleIS7_ESt18is_move_assignableIS7_EEE5valueEvE4typeERS7_SH_
0000000000000000 l    d  .text._ZSt4swapIN8nlohmann10basic_jsonISt3mapSt6vectorNSt7__cxx1112basic_stringIcSt11char_traitsIcESaIcEEEblmdSaNS0_14adl_serializerES3_IhSaIhEEE10json_valueEENSt9enable_ifIXsrSt6__and_IJSt6__not_ISt15__is_tuple_likeIT_EESt21is_move_constructibleISJ_ESt18is_move_assignableISJ_EEE5valueEvE4typeERSJ_ST_	0000000000000000 .text._ZSt4swapIN8nlohmann10basic_jsonISt3mapSt6vectorNSt7__cxx1112basic_stringIcSt11char_traitsIcESaIcEEEblmdSaNS0_14adl_serializerES3_IhSaIhEEE10json_valueEENSt9enable_ifIXsrSt6__and_IJSt6__not_ISt15__is_tuple_likeIT_EESt21is_move_constructibleISJ_ESt18is_move_assignableISJ_EEE5valueEvE4typeERSJ_ST_
0000000000000000 l    d  .text._ZN8nlohmann10basic_jsonISt3mapSt6vectorNSt7__cxx1112basic_stringIcSt11char_traitsIcESaIcEEEblmdSaNS_14adl_serializerES2_IhSaIhEEE11set_parentsEv	0000000000000000 .text._ZN8nlohmann10basic_jsonISt3mapSt6vectorNSt7__cxx1112basic_stringIcSt11char_traitsIcESaIcEEEblmdSaNS_14adl_serializerES2_IhSaIhEEE11set_parentsEv
0000000000000000 l    d  .text._ZNK8nlohmann10basic_jsonISt3mapSt6vectorNSt7__cxx1112basic_stringIcSt11char_traitsIcESaIcEEEblmdSaNS_14adl_serializerES2_IhSaIhEEE16assert_invariantEb	0000000000000000 .text._ZNK8nlohmann10basic_jsonISt3mapSt6vectorNSt7__cxx1112basic_stringIcSt11char_traitsIcESaIcEEEblmdSaNS_14adl_serializerES2_IhSaIhEEE16assert_invariantEb
0000000000000000 l    d  .text._ZNKSt8functionIFbiN8nlohmann6detail13parse_event_tERNS0_10basic_jsonISt3mapSt6vectorNSt7__cxx1112basic_stringIcSt11char_traitsIcESaIcEEEblmdSaNS0_14adl_serializerES5_IhSaIhEEEEEEcvbEv	0000000000000000 .text._ZNKSt8functionIFbiN8nlohmann6detail13parse_event_tERNS0_10basic_jsonISt3mapSt6vectorNSt7__cxx1112basic_stringIcSt11char_traitsIcESaIcEEEblmdSaNS0_14adl_serializerES5_IhSaIhEEEEEEcvbEv
0000000000000000 l    d  .text._ZSt4moveIRPKcEONSt16remove_referenceIT_E4typeEOS4_	0000000000000000 .text._ZSt4moveIRPKcEONSt16remove_referenceIT_E4typeEOS4_
0000000000000000 l    d  .text._ZN8nlohmann6detail13input_adapterIPKcEENS0_30iterator_input_adapter_factoryIT_vE12adapter_typeES5_S5_	0000000000000000 .text._ZN8nlohmann6detail13input_adapterIPKcEENS0_30iterator_input_adapter_factoryIT_vE12adapter_typeES5_S5_
0000000000000000 l    d  .text._ZNSt8functionIFbiN8nlohmann6detail13parse_event_tERNS0_10basic_jsonISt3mapSt6vectorNSt7__cxx1112basic_stringIcSt11char_traitsIcESaIcEEEblmdSaNS0_14adl_serializerES5_IhSaIhEEEEEEC2ERKSI_	0000000000000000 .text._ZNSt8functionIFbiN8nlohmann6detail13parse_event_tERNS0_10basic_jsonISt3mapSt6vectorNSt7__cxx1112basic_stringIcSt11char_traitsIcESaIcEEEblmdSaNS0_14adl_serializerES5_IhSaIhEEEEEEC2ERKSI_
0000000000000000 l    d  .text._ZNSt12_Vector_baseIcSaIcEE12_Vector_implD2Ev	0000000000000000 .text._ZNSt12_Vector_baseIcSaIcEE12_Vector_implD2Ev
0000000000000000 l    d  .text._ZN8nlohmann10basic_jsonISt3mapSt6vectorNSt7__cxx1112basic_stringIcSt11char_traitsIcESaIcEEEblmdSaNS_14adl_serializerES2_IhSaIhEEE6parserINS_6detail22iterator_input_adapterIPKcEEEENSE_6parserISC_T_EESK_St8functionIFbiNSE_13parse_event_tERSC_EEbb	0000000000000000 .text._ZN8nlohmann10basic_jsonISt3mapSt6vectorNSt7__cxx1112basic_stringIcSt11char_traitsIcESaIcEEEblmdSaNS_14adl_serializerES2_IhSaIhEEE6parserINS_6detail22iterator_input_adapterIPKcEEEENSE_6parserISC_T_EESK_St8functionIFbiNSE_13parse_event_tERSC_EEbb
0000000000000000 l    d  .text._ZNSt6vectorIcSaIcEED2Ev	0000000000000000 .text._ZNSt6vectorIcSaIcEED2Ev
0000000000000000 l    d  .text._ZN8nlohmann6detail28json_sax_dom_callback_parserINS_10basic_jsonISt3mapSt6vectorNSt7__cxx1112basic_stringIcSt11char_traitsIcESaIcEEEblmdSaNS_14adl_serializerES4_IhSaIhEEEEED2Ev	0000000000000000 .text._ZN8nlohmann6detail28json_sax_dom_callback_parserINS_10basic_jsonISt3mapSt6vectorNSt7__cxx1112basic_stringIcSt11char_traitsIcESaIcEEEblmdSaNS_14adl_serializerES4_IhSaIhEEEEED2Ev
0000000000000000 l    d  .text._ZN8nlohmann6detail11parse_errorD2Ev	0000000000000000 .text._ZN8nlohmann6detail11parse_errorD2Ev
0000000000000000 l    d  .text._ZN8nlohmann6detail11parse_errorD0Ev	0000000000000000 .text._ZN8nlohmann6detail11parse_errorD0Ev
0000000000000000 l    d  .text._ZN8nlohmann6detail19json_sax_dom_parserINS_10basic_jsonISt3mapSt6vectorNSt7__cxx1112basic_stringIcSt11char_traitsIcESaIcEEEblmdSaNS_14adl_serializerES4_IhSaIhEEEEED2Ev	0000000000000000 .text._ZN8nlohmann6detail19json_sax_dom_parserINS_10basic_jsonISt3mapSt6vectorNSt7__cxx1112basic_stringIcSt11char_traitsIcESaIcEEEblmdSaNS_14adl_serializerES4_IhSaIhEEEEED2Ev
0000000000000000 l    d  .text._ZN8nlohmann6detail6parserINS_10basic_jsonISt3mapSt6vectorNSt7__cxx1112basic_stringIcSt11char_traitsIcESaIcEEEblmdSaNS_14adl_serializerES4_IhSaIhEEEENS0_22iterator_input_adapterIPKcEEE5parseEbRSE_	0000000000000000 .text._ZN8nlohmann6detail6parserINS_10basic_jsonISt3mapSt6vectorNSt7__cxx1112basic_stringIcSt11char_traitsIcESaIcEEEblmdSaNS_14adl_serializerES4_IhSaIhEEEENS0_22iterator_input_adapterIPKcEEE5parseEbRSE_
0000000000000000 l    d  .text._ZNSt12_Vector_baseIN8nlohmann10basic_jsonISt3mapSt6vectorNSt7__cxx1112basic_stringIcSt11char_traitsIcESaIcEEEblmdSaNS0_14adl_serializerES3_IhSaIhEEEESaISD_EE12_Vector_implD2Ev	0000000000000000 .text._ZNSt12_Vector_baseIN8nlohmann10basic_jsonISt3mapSt6vectorNSt7__cxx1112basic_stringIcSt11char_traitsIcESaIcEEEblmdSaNS0_14adl_serializerES3_IhSaIhEEEESaISD_EE12_Vector_implD2Ev
0000000000000000 l    d  .text._ZNSt12_Vector_baseIN8nlohmann10basic_jsonISt3mapSt6vectorNSt7__cxx1112basic_stringIcSt11char_traitsIcESaIcEEEblmdSaNS0_14adl_serializerES3_IhSaIhEEEESaISD_EEC2Ev	0000000000000000 .text._ZNSt12_Vector_baseIN8nlohmann10basic_jsonISt3mapSt6vectorNSt7__cxx1112basic_stringIcSt11char_traitsIcESaIcEEEblmdSaNS0_14adl_serializerES3_IhSaIhEEEESaISD_EEC2Ev
0000000000000000 l    d  .text._ZNSt6vectorIN8nlohmann10basic_jsonISt3mapS_NSt7__cxx1112basic_stringIcSt11char_traitsIcESaIcEEEblmdSaNS0_14adl_serializerES_IhSaIhEEEESaISC_EEC2Ev	0000000000000000 .text._ZNSt6vectorIN8nlohmann10basic_jsonISt3mapS_NSt7__cxx1112basic_stringIcSt11char_traitsIcESaIcEEEblmdSaNS0_14adl_serializerES_IhSaIhEEEESaISC_EEC2Ev
0000000000000000 l    d  .text._ZN8nlohmann10basic_jsonISt3mapSt6vectorNSt7__cxx1112basic_stringIcSt11char_traitsIcESaIcEEEblmdSaNS_14adl_serializerES2_IhSaIhEEE10json_value7destroyENS_6detail7value_tE	0000000000000000 .text._ZN8nlohmann10basic_jsonISt3mapSt6vectorNSt7__cxx1112basic_stringIcSt11char_traitsIcESaIcEEEblmdSaNS_14adl_serializerES2_IhSaIhEEE10json_value7destroyENS_6detail7value_tE
0000000000000000 l    d  .text._ZSt4moveIRN8nlohmann6detail7value_tEEONSt16remove_referenceIT_E4typeEOS5_	0000000000000000 .text._ZSt4moveIRN8nlohmann6detail7value_tEEONSt16remove_referenceIT_E4typeEOS5_
0000000000000000 l    d  .text._ZSt4moveIRN8nlohmann10basic_jsonISt3mapSt6vectorNSt7__cxx1112basic_stringIcSt11char_traitsIcESaIcEEEblmdSaNS0_14adl_serializerES3_IhSaIhEEE10json_valueEEONSt16remove_referenceIT_E4typeEOSH_	0000000000000000 .text._ZSt4moveIRN8nlohmann10basic_jsonISt3mapSt6vectorNSt7__cxx1112basic_stringIcSt11char_traitsIcESaIcEEEblmdSaNS0_14adl_serializerES3_IhSaIhEEE10json_valueEEONSt16remove_referenceIT_E4typeEOSH_
0000000000000000 l    d  .text._ZNSt8_Rb_treeINSt7__cxx1112basic_stringIcSt11char_traitsIcESaIcEEESt4pairIKS5_N8tinygltf5ValueEESt10_Select1stISA_ESt4lessIS5_ESaISA_EE13_Rb_tree_implISE_Lb1EEC2ERKSI_	0000000000000000 .text._ZNSt8_Rb_treeINSt7__cxx1112basic_stringIcSt11char_traitsIcESaIcEEESt4pairIKS5_N8tinygltf5ValueEESt10_Select1stISA_ESt4lessIS5_ESaISA_EE13_Rb_tree_implISE_Lb1EEC2ERKSI_
0000000000000000 l    d  .text._ZNSt8_Rb_treeINSt7__cxx1112basic_stringIcSt11char_traitsIcESaIcEEESt4pairIKS5_N8tinygltf5ValueEESt10_Select1stISA_ESt4lessIS5_ESaISA_EE7_M_copyERKSG_	0000000000000000 .text._ZNSt8_Rb_treeINSt7__cxx1112basic_stringIcSt11char_traitsIcESaIcEEESt4pairIKS5_N8tinygltf5ValueEESt10_Select1stISA_ESt4lessIS5_ESaISA_EE7_M_copyERKSG_
0000000000000000 l    d  .text._ZNKSt8_Rb_treeINSt7__cxx1112basic_stringIcSt11char_traitsIcESaIcEEESt4pairIKS5_N8tinygltf5ValueEESt10_Select1stISA_ESt4lessIS5_ESaISA_EE4sizeEv	0000000000000000 .text._ZNKSt8_Rb_treeINSt7__cxx1112basic_stringIcSt11char_traitsIcESaIcEEESt4pairIKS5_N8tinygltf5ValueEESt10_Select1stISA_ESt4lessIS5_ESaISA_EE4sizeEv
0000000000000000 l    d  .text._ZNSt8_Rb_treeINSt7__cxx1112basic_stringIcSt11char_traitsIcESaIcEEESt4pairIKS5_N8tinygltf5ValueEESt10_Select1stISA_ESt4lessIS5_ESaISA_EE5beginEv	0000000000000000 .text._ZNSt8_Rb_treeINSt7__cxx1112basic_stringIcSt11char_traitsIcESaIcEEESt4pairIKS5_N8tinygltf5ValueEESt10_Select1stISA_ESt4lessIS5_ESaISA_EE5beginEv
0000000000000000 l    d  .text._ZNSt8_Rb_treeINSt7__cxx1112basic_stringIcSt11char_traitsIcESaIcEEESt4pairIKS5_N8tinygltf5ValueEESt10_Select1stISA_ESt4lessIS5_ESaISA_EE3endEv	0000000000000000 .text._ZNSt8_Rb_treeINSt7__cxx1112basic_stringIcSt11char_traitsIcESaIcEEESt4pairIKS5_N8tinygltf5ValueEESt10_Select1stISA_ESt4lessIS5_ESaISA_EE3endEv
0000000000000000 l    d  .text._ZNSt13_Rb_tree_nodeISt4pairIKNSt7__cxx1112basic_stringIcSt11char_traitsIcESaIcEEEN8tinygltf5ValueEEE9_M_valptrEv	0000000000000000 .text._ZNSt13_Rb_tree_nodeISt4pairIKNSt7__cxx1112basic_stringIcSt11char_traitsIcESaIcEEEN8tinygltf5ValueEEE9_M_valptrEv
0000000000000000 l    d  .text._ZNSt8_Rb_treeINSt7__cxx1112basic_stringIcSt11char_traitsIcESaIcEEESt4pairIKS5_N8tinygltf5ValueEESt10_Select1stISA_ESt4lessIS5_ESaISA_EE4findERS7_	0000000000000000 .text._ZNSt8_Rb_treeINSt7__cxx1112basic_stringIcSt11char_traitsIcESaIcEEESt4pairIKS5_N8tinygltf5ValueEESt10_Select1stISA_ESt4lessIS5_ESaISA_EE4findERS7_
0000000000000000 l    d  .text._ZSt5equalIN9__gnu_cxx17__normal_iteratorIPKhSt6vectorIhSaIhEEEES7_EbT_S8_T0_	0000000000000000 .text._ZSt5equalIN9__gnu_cxx17__normal_iteratorIPKhSt6vectorIhSaIhEEEES7_EbT_S8_T0_
0000000000000000 l    d  .text._ZSteqRKSt8_Rb_treeINSt7__cxx1112basic_stringIcSt11char_traitsIcESaIcEEESt4pairIKS5_N8tinygltf5ValueEESt10_Select1stISA_ESt4lessIS5_ESaISA_EESI_	0000000000000000 .text._ZSteqRKSt8_Rb_treeINSt7__cxx1112basic_stringIcSt11char_traitsIcESaIcEEESt4pairIKS5_N8tinygltf5ValueEESt10_Select1stISA_ESt4lessIS5_ESaISA_EESI_
0000000000000000 l    d  .text._ZNKSt6vectorIN8tinygltf16AnimationChannelESaIS1_EE5beginEv	0000000000000000 .text._ZNKSt6vectorIN8tinygltf16AnimationChannelESaIS1_EE5beginEv
0000000000000000 l    d  .text._ZNKSt6vectorIN8tinygltf16AnimationChannelESaIS1_EE3endEv	0000000000000000 .text._ZNKSt6vectorIN8tinygltf16AnimationChannelESaIS1_EE3endEv
0000000000000000 l    d  .text._ZSt5equalIN9__gnu_cxx17__normal_iteratorIPKN8tinygltf16AnimationChannelESt6vectorIS3_SaIS3_EEEES9_EbT_SA_T0_	0000000000000000 .text._ZSt5equalIN9__gnu_cxx17__normal_iteratorIPKN8tinygltf16AnimationChannelESt6vectorIS3_SaIS3_EEEES9_EbT_SA_T0_
0000000000000000 l    d  .text._ZNKSt6vectorIN8tinygltf16AnimationSamplerESaIS1_EE5beginEv	0000000000000000 .text._ZNKSt6vectorIN8tinygltf16AnimationSamplerESaIS1_EE5beginEv
0000000000000000 l    d  .text._ZNKSt6vectorIN8tinygltf16AnimationSamplerESaIS1_EE3endEv	0000000000000000 .text._ZNKSt6vectorIN8tinygltf16AnimationSamplerESaIS1_EE3endEv
0000000000000000 l    d  .text._ZSt5equalIN9__gnu_cxx17__normal_iteratorIPKN8tinygltf16AnimationSamplerESt6vectorIS3_SaIS3_EEEES9_EbT_SA_T0_	0000000000000000 .text._ZSt5equalIN9__gnu_cxx17__normal_iteratorIPKN8tinygltf16AnimationSamplerESt6vectorIS3_SaIS3_EEEES9_EbT_SA_T0_
0000000000000000 l    d  .text._ZSteqRKSt8_Rb_treeINSt7__cxx1112basic_stringIcSt11char_traitsIcESaIcEEESt4pairIKS5_N8tinygltf9ParameterEESt10_Select1stISA_ESt4lessIS5_ESaISA_EESI_	0000000000000000 .text._ZSteqRKSt8_Rb_treeINSt7__cxx1112basic_stringIcSt11char_traitsIcESaIcEEESt4pairIKS5_N8tinygltf9ParameterEESt10_Select1stISA_ESt4lessIS5_ESaISA_EESI_
0000000000000000 l    d  .text._ZNKSt6vectorIN8tinygltf9PrimitiveESaIS1_EE5beginEv	0000000000000000 .text._ZNKSt6vectorIN8tinygltf9PrimitiveESaIS1_EE5beginEv
0000000000000000 l    d  .text._ZNKSt6vectorIN8tinygltf9PrimitiveESaIS1_EE3endEv	0000000000000000 .text._ZNKSt6vectorIN8tinygltf9PrimitiveESaIS1_EE3endEv
0000000000000000 l    d  .text._ZSt5equalIN9__gnu_cxx17__normal_iteratorIPKN8tinygltf9PrimitiveESt6vectorIS3_SaIS3_EEEES9_EbT_SA_T0_	0000000000000000 .text._ZSt5equalIN9__gnu_cxx17__normal_iteratorIPKN8tinygltf9PrimitiveESt6vectorIS3_SaIS3_EEEES9_EbT_SA_T0_
0000000000000000 l    d  .text._ZNKSt6vectorIN8tinygltf8AccessorESaIS1_EE5beginEv	0000000000000000 .text._ZNKSt6vectorIN8tinygltf8AccessorESaIS1_EE5beginEv
0000000000000000 l    d  .text._ZNKSt6vectorIN8tinygltf8AccessorESaIS1_EE3endEv	0000000000000000 .text._ZNKSt6vectorIN8tinygltf8AccessorESaIS1_EE3endEv
0000000000000000 l    d  .text._ZSt5equalIN9__gnu_cxx17__normal_iteratorIPKN8tinygltf8AccessorESt6vectorIS3_SaIS3_EEEES9_EbT_SA_T0_	0000000000000000 .text._ZSt5equalIN9__gnu_cxx17__normal_iteratorIPKN8tinygltf8AccessorESt6vectorIS3_SaIS3_EEEES9_EbT_SA_T0_
0000000000000000 l    d  .text._ZNKSt6vectorIN8tinygltf9AnimationESaIS1_EE5beginEv	0000000000000000 .text._ZNKSt6vectorIN8tinygltf9AnimationESaIS1_EE5beginEv
0000000000000000 l    d  .text._ZNKSt6vectorIN8tinygltf9AnimationESaIS1_EE3endEv	0000000000000000 .text._ZNKSt6vectorIN8tinygltf9AnimationESaIS1_EE3endEv
0000000000000000 l    d  .text._ZSt5equalIN9__gnu_cxx17__normal_iteratorIPKN8tinygltf9AnimationESt6vectorIS3_SaIS3_EEEES9_EbT_SA_T0_	0000000000000000 .text._ZSt5equalIN9__gnu_cxx17__normal_iteratorIPKN8tinygltf9AnimationESt6vectorIS3_SaIS3_EEEES9_EbT_SA_T0_
0000000000000000 l    d  .text._ZNKSt6vectorIN8tinygltf6BufferESaIS1_EE5beginEv	0000000000000000 .text._ZNKSt6vectorIN8tinygltf6BufferESaIS1_EE5beginEv
0000000000000000 l    d  .text._ZNKSt6vectorIN8tinygltf6BufferESaIS1_EE3endEv	0000000000000000 .text._ZNKSt6vectorIN8tinygltf6BufferESaIS1_EE3endEv
0000000000000000 l    d  .text._ZSt5equalIN9__gnu_cxx17__normal_iteratorIPKN8tinygltf6BufferESt6vectorIS3_SaIS3_EEEES9_EbT_SA_T0_	0000000000000000 .text._ZSt5equalIN9__gnu_cxx17__normal_iteratorIPKN8tinygltf6BufferESt6vectorIS3_SaIS3_EEEES9_EbT_SA_T0_
0000000000000000 l    d  .text._ZNKSt6vectorIN8tinygltf10BufferViewESaIS1_EE5beginEv	0000000000000000 .text._ZNKSt6vectorIN8tinygltf10BufferViewESaIS1_EE5beginEv
0000000000000000 l    d  .text._ZNKSt6vectorIN8tinygltf10BufferViewESaIS1_EE3endEv	0000000000000000 .text._ZNKSt6vectorIN8tinygltf10BufferViewESaIS1_EE3endEv
0000000000000000 l    d  .text._ZSt5equalIN9__gnu_cxx17__normal_iteratorIPKN8tinygltf10BufferViewESt6vectorIS3_SaIS3_EEEES9_EbT_SA_T0_	0000000000000000 .text._ZSt5equalIN9__gnu_cxx17__normal_iteratorIPKN8tinygltf10BufferViewESt6vectorIS3_SaIS3_EEEES9_EbT_SA_T0_
0000000000000000 l    d  .text._ZNKSt6vectorIN8tinygltf6CameraESaIS1_EE5beginEv	0000000000000000 .text._ZNKSt6vectorIN8tinygltf6CameraESaIS1_EE5beginEv
0000000000000000 l    d  .text._ZNKSt6vectorIN8tinygltf6CameraESaIS1_EE3endEv	0000000000000000 .text._ZNKSt6vectorIN8tinygltf6CameraESaIS1_EE3endEv
0000000000000000 l    d  .text._ZSt5equalIN9__gnu_cxx17__normal_iteratorIPKN8tinygltf6CameraESt6vectorIS3_SaIS3_EEEES9_EbT_SA_T0_	0000000000000000 .text._ZSt5equalIN9__gnu_cxx17__normal_iteratorIPKN8tinygltf6CameraESt6vectorIS3_SaIS3_EEEES9_EbT_SA_T0_
0000000000000000 l    d  .text._ZSt5equalIN9__gnu_cxx17__normal_iteratorIPKNSt7__cxx1112basic_stringIcSt11char_traitsIcESaIcEEESt6vectorIS7_SaIS7_EEEESD_EbT_SE_T0_	0000000000000000 .text._ZSt5equalIN9__gnu_cxx17__normal_iteratorIPKNSt7__cxx1112basic_stringIcSt11char_traitsIcESaIcEEESt6vectorIS7_SaIS7_EEEESD_EbT_SE_T0_
0000000000000000 l    d  .text._ZNKSt6vectorIN8tinygltf5ImageESaIS1_EE5beginEv	0000000000000000 .text._ZNKSt6vectorIN8tinygltf5ImageESaIS1_EE5beginEv
0000000000000000 l    d  .text._ZNKSt6vectorIN8tinygltf5ImageESaIS1_EE3endEv	0000000000000000 .text._ZNKSt6vectorIN8tinygltf5ImageESaIS1_EE3endEv
0000000000000000 l    d  .text._ZSt5equalIN9__gnu_cxx17__normal_iteratorIPKN8tinygltf5ImageESt6vectorIS3_SaIS3_EEEES9_EbT_SA_T0_	0000000000000000 .text._ZSt5equalIN9__gnu_cxx17__normal_iteratorIPKN8tinygltf5ImageESt6vectorIS3_SaIS3_EEEES9_EbT_SA_T0_
0000000000000000 l    d  .text._ZNKSt6vectorIN8tinygltf5LightESaIS1_EE5beginEv	0000000000000000 .text._ZNKSt6vectorIN8tinygltf5LightESaIS1_EE5beginEv
0000000000000000 l    d  .text._ZNKSt6vectorIN8tinygltf5LightESaIS1_EE3endEv	0000000000000000 .text._ZNKSt6vectorIN8tinygltf5LightESaIS1_EE3endEv
0000000000000000 l    d  .text._ZSt5equalIN9__gnu_cxx17__normal_iteratorIPKN8tinygltf5LightESt6vectorIS3_SaIS3_EEEES9_EbT_SA_T0_	0000000000000000 .text._ZSt5equalIN9__gnu_cxx17__normal_iteratorIPKN8tinygltf5LightESt6vectorIS3_SaIS3_EEEES9_EbT_SA_T0_
0000000000000000 l    d  .text._ZNKSt6vectorIN8tinygltf8MaterialESaIS1_EE5beginEv	0000000000000000 .text._ZNKSt6vectorIN8tinygltf8MaterialESaIS1_EE5beginEv
0000000000000000 l    d  .text._ZNKSt6vectorIN8tinygltf8MaterialESaIS1_EE3endEv	0000000000000000 .text._ZNKSt6vectorIN8tinygltf8MaterialESaIS1_EE3endEv
0000000000000000 l    d  .text._ZSt5equalIN9__gnu_cxx17__normal_iteratorIPKN8tinygltf8MaterialESt6vectorIS3_SaIS3_EEEES9_EbT_SA_T0_	0000000000000000 .text._ZSt5equalIN9__gnu_cxx17__normal_iteratorIPKN8tinygltf8MaterialESt6vectorIS3_SaIS3_EEEES9_EbT_SA_T0_
0000000000000000 l    d  .text._ZNKSt6vectorIN8tinygltf4MeshESaIS1_EE5beginEv	0000000000000000 .text._ZNKSt6vectorIN8tinygltf4MeshESaIS1_EE5beginEv
0000000000000000 l    d  .text._ZNKSt6vectorIN8tinygltf4MeshESaIS1_EE3endEv	0000000000000000 .text._ZNKSt6vectorIN8tinygltf4MeshESaIS1_EE3endEv
0000000000000000 l    d  .text._ZSt5equalIN9__gnu_cxx17__normal_iteratorIPKN8tinygltf4MeshESt6vectorIS3_SaIS3_EEEES9_EbT_SA_T0_	0000000000000000 .text._ZSt5equalIN9__gnu_cxx17__normal_iteratorIPKN8tinygltf4MeshESt6vectorIS3_SaIS3_EEEES9_EbT_SA_T0_
0000000000000000 l    d  .text._ZNKSt6vectorIN8tinygltf4NodeESaIS1_EE5beginEv	0000000000000000 .text._ZNKSt6vectorIN8tinygltf4NodeESaIS1_EE5beginEv
0000000000000000 l    d  .text._ZNKSt6vectorIN8tinygltf4NodeESaIS1_EE3endEv	0000000000000000 .text._ZNKSt6vectorIN8tinygltf4NodeESaIS1_EE3endEv
0000000000000000 l    d  .text._ZSt5equalIN9__gnu_cxx17__normal_iteratorIPKN8tinygltf4NodeESt6vectorIS3_SaIS3_EEEES9_EbT_SA_T0_	0000000000000000 .text._ZSt5equalIN9__gnu_cxx17__normal_iteratorIPKN8tinygltf4NodeESt6vectorIS3_SaIS3_EEEES9_EbT_SA_T0_
0000000000000000 l    d  .text._ZNKSt6vectorIN8tinygltf7SamplerESaIS1_EE5beginEv	0000000000000000 .text._ZNKSt6vectorIN8tinygltf7SamplerESaIS1_EE5beginEv
0000000000000000 l    d  .text._ZNKSt6vectorIN8tinygltf7SamplerESaIS1_EE3endEv	0000000000000000 .text._ZNKSt6vectorIN8tinygltf7SamplerESaIS1_EE3endEv
0000000000000000 l    d  .text._ZSt5equalIN9__gnu_cxx17__normal_iteratorIPKN8tinygltf7SamplerESt6vectorIS3_SaIS3_EEEES9_EbT_SA_T0_	0000000000000000 .text._ZSt5equalIN9__gnu_cxx17__normal_iteratorIPKN8tinygltf7SamplerESt6vectorIS3_SaIS3_EEEES9_EbT_SA_T0_
0000000000000000 l    d  .text._ZNKSt6vectorIN8tinygltf5SceneESaIS1_EE5beginEv	0000000000000000 .text._ZNKSt6vectorIN8tinygltf5SceneESaIS1_EE5beginEv
0000000000000000 l    d  .text._ZNKSt6vectorIN8tinygltf5SceneESaIS1_EE3endEv	0000000000000000 .text._ZNKSt6vectorIN8tinygltf5SceneESaIS1_EE3endEv
0000000000000000 l    d  .text._ZSt5equalIN9__gnu_cxx17__normal_iteratorIPKN8tinygltf5SceneESt6vectorIS3_SaIS3_EEEES9_EbT_SA_T0_	0000000000000000 .text._ZSt5equalIN9__gnu_cxx17__normal_iteratorIPKN8tinygltf5SceneESt6vectorIS3_SaIS3_EEEES9_EbT_SA_T0_
0000000000000000 l    d  .text._ZNKSt6vectorIN8tinygltf4SkinESaIS1_EE5beginEv	0000000000000000 .text._ZNKSt6vectorIN8tinygltf4SkinESaIS1_EE5beginEv
0000000000000000 l    d  .text._ZNKSt6vectorIN8tinygltf4SkinESaIS1_EE3endEv	0000000000000000 .text._ZNKSt6vectorIN8tinygltf4SkinESaIS1_EE3endEv
0000000000000000 l    d  .text._ZSt5equalIN9__gnu_cxx17__normal_iteratorIPKN8tinygltf4SkinESt6vectorIS3_SaIS3_EEEES9_EbT_SA_T0_	0000000000000000 .text._ZSt5equalIN9__gnu_cxx17__normal_iteratorIPKN8tinygltf4SkinESt6vectorIS3_SaIS3_EEEES9_EbT_SA_T0_
0000000000000000 l    d  .text._ZNKSt6vectorIN8tinygltf7TextureESaIS1_EE5beginEv	0000000000000000 .text._ZNKSt6vectorIN8tinygltf7TextureESaIS1_EE5beginEv
0000000000000000 l    d  .text._ZNKSt6vectorIN8tinygltf7TextureESaIS1_EE3endEv	0000000000000000 .text._ZNKSt6vectorIN8tinygltf7TextureESaIS1_EE3endEv
0000000000000000 l    d  .text._ZSt5equalIN9__gnu_cxx17__normal_iteratorIPKN8tinygltf7TextureESt6vectorIS3_SaIS3_EEEES9_EbT_SA_T0_	0000000000000000 .text._ZSt5equalIN9__gnu_cxx17__normal_iteratorIPKN8tinygltf7TextureESt6vectorIS3_SaIS3_EEEES9_EbT_SA_T0_
0000000000000000 l    d  .text._ZNKSt6vectorIiSaIiEE4sizeEv	0000000000000000 .text._ZNKSt6vectorIiSaIiEE4sizeEv
0000000000000000 l    d  .text._ZNKSt6vectorIiSaIiEE5beginEv	0000000000000000 .text._ZNKSt6vectorIiSaIiEE5beginEv
0000000000000000 l    d  .text._ZNKSt6vectorIiSaIiEE3endEv	0000000000000000 .text._ZNKSt6vectorIiSaIiEE3endEv
0000000000000000 l    d  .text._ZSt5equalIN9__gnu_cxx17__normal_iteratorIPKiSt6vectorIiSaIiEEEES7_EbT_S8_T0_	0000000000000000 .text._ZSt5equalIN9__gnu_cxx17__normal_iteratorIPKiSt6vectorIiSaIiEEEES7_EbT_S8_T0_
0000000000000000 l    d  .text._ZNKSt8_Rb_treeINSt7__cxx1112basic_stringIcSt11char_traitsIcESaIcEEESt4pairIKS5_dESt10_Select1stIS8_ESt4lessIS5_ESaIS8_EE4sizeEv	0000000000000000 .text._ZNKSt8_Rb_treeINSt7__cxx1112basic_stringIcSt11char_traitsIcESaIcEEESt4pairIKS5_dESt10_Select1stIS8_ESt4lessIS5_ESaIS8_EE4sizeEv
0000000000000000 l    d  .text._ZNKSt8_Rb_treeINSt7__cxx1112basic_stringIcSt11char_traitsIcESaIcEEESt4pairIKS5_dESt10_Select1stIS8_ESt4lessIS5_ESaIS8_EE5beginEv	0000000000000000 .text._ZNKSt8_Rb_treeINSt7__cxx1112basic_stringIcSt11char_traitsIcESaIcEEESt4pairIKS5_dESt10_Select1stIS8_ESt4lessIS5_ESaIS8_EE5beginEv
0000000000000000 l    d  .text._ZNKSt8_Rb_treeINSt7__cxx1112basic_stringIcSt11char_traitsIcESaIcEEESt4pairIKS5_dESt10_Select1stIS8_ESt4lessIS5_ESaIS8_EE3endEv	0000000000000000 .text._ZNKSt8_Rb_treeINSt7__cxx1112basic_stringIcSt11char_traitsIcESaIcEEESt4pairIKS5_dESt10_Select1stIS8_ESt4lessIS5_ESaIS8_EE3endEv
0000000000000000 l    d  .text._ZSteqRKSt8_Rb_treeINSt7__cxx1112basic_stringIcSt11char_traitsIcESaIcEEESt4pairIKS5_iESt10_Select1stIS8_ESt4lessIS5_ESaIS8_EESG_	0000000000000000 .text._ZSteqRKSt8_Rb_treeINSt7__cxx1112basic_stringIcSt11char_traitsIcESaIcEEESt4pairIKS5_iESt10_Select1stIS8_ESt4lessIS5_ESaIS8_EESG_
0000000000000000 l    d  .text._ZNKSt6vectorISt3mapINSt7__cxx1112basic_stringIcSt11char_traitsIcESaIcEEEiSt4lessIS6_ESaISt4pairIKS6_iEEESaISD_EE5beginEv	0000000000000000 .text._ZNKSt6vectorISt3mapINSt7__cxx1112basic_stringIcSt11char_traitsIcESaIcEEEiSt4lessIS6_ESaISt4pairIKS6_iEEESaISD_EE5beginEv
0000000000000000 l    d  .text._ZNKSt6vectorISt3mapINSt7__cxx1112basic_stringIcSt11char_traitsIcESaIcEEEiSt4lessIS6_ESaISt4pairIKS6_iEEESaISD_EE3endEv	0000000000000000 .text._ZNKSt6vectorISt3mapINSt7__cxx1112basic_stringIcSt11char_traitsIcESaIcEEEiSt4lessIS6_ESaISt4pairIKS6_iEEESaISD_EE3endEv
0000000000000000 l    d  .text._ZSt5equalIN9__gnu_cxx17__normal_iteratorIPKSt3mapINSt7__cxx1112basic_stringIcSt11char_traitsIcESaIcEEEiSt4lessIS8_ESaISt4pairIKS8_iEEESt6vectorISF_SaISF_EEEESL_EbT_SM_T0_	0000000000000000 .text._ZSt5equalIN9__gnu_cxx17__normal_iteratorIPKSt3mapINSt7__cxx1112basic_stringIcSt11char_traitsIcESaIcEEEiSt4lessIS8_ESaISt4pairIKS8_iEEESt6vectorISF_SaISF_EEEESL_EbT_SM_T0_
0000000000000000 l    d  .text._ZN9__gnu_cxx17__normal_iteratorIPKcNSt7__cxx1112basic_stringIcSt11char_traitsIcESaIcEEEEmmEv	0000000000000000 .text._ZN9__gnu_cxx17__normal_iteratorIPKcNSt7__cxx1112basic_stringIcSt11char_traitsIcESaIcEEEEmmEv
0000000000000000 l    d  .text._ZNK9__gnu_cxx17__normal_iteratorIPKcNSt7__cxx1112basic_stringIcSt11char_traitsIcESaIcEEEEdeEv	0000000000000000 .text._ZNK9__gnu_cxx17__normal_iteratorIPKcNSt7__cxx1112basic_stringIcSt11char_traitsIcESaIcEEEEdeEv
0000000000000000 l    d  .text._ZNSt12_Vector_baseIhSaIhEE17_Vector_impl_data12_M_swap_dataERS2_	0000000000000000 .text._ZNSt12_Vector_baseIhSaIhEE17_Vector_impl_data12_M_swap_dataERS2_
0000000000000000 l    d  .text._ZN9__gnu_cxx17__normal_iteratorIPhSt6vectorIhSaIhEEEC2ERKS1_	0000000000000000 .text._ZN9__gnu_cxx17__normal_iteratorIPhSt6vectorIhSaIhEEEC2ERKS1_
0000000000000000 l    d  .text._ZSt12__miter_baseIPhET_S1_	0000000000000000 .text._ZSt12__miter_baseIPhET_S1_
0000000000000000 l    d  .text._ZSt13__copy_move_aILb0EPhN9__gnu_cxx17__normal_iteratorIS0_St6vectorIhSaIhEEEEET1_T0_S8_S7_	0000000000000000 .text._ZSt13__copy_move_aILb0EPhN9__gnu_cxx17__normal_iteratorIS0_St6vectorIhSaIhEEEEET1_T0_S8_S7_
0000000000000000 l    d  .text._ZNK9__gnu_cxx17__normal_iteratorIPhSt6vectorIhSaIhEEE4baseEv	0000000000000000 .text._ZNK9__gnu_cxx17__normal_iteratorIPhSt6vectorIhSaIhEEE4baseEv
0000000000000000 l    d  .text._ZNKSt6vectorIhSaIhEE6cbeginEv	0000000000000000 .text._ZNKSt6vectorIhSaIhEE6cbeginEv
0000000000000000 l    d  .text._ZN9__gnu_cxxmiIPKhSt6vectorIhSaIhEEEENS_17__normal_iteratorIT_T0_E15difference_typeERKS9_SC_	0000000000000000 .text._ZN9__gnu_cxxmiIPKhSt6vectorIhSaIhEEEENS_17__normal_iteratorIT_T0_E15difference_typeERKS9_SC_
0000000000000000 l    d  .text._ZNK9__gnu_cxx17__normal_iteratorIPhSt6vectorIhSaIhEEEplEl	0000000000000000 .text._ZNK9__gnu_cxx17__normal_iteratorIPhSt6vectorIhSaIhEEEplEl
0000000000000000 l    d  .text._ZNSt6vectorIhSaIhEE15_M_range_insertIPhEEvN9__gnu_cxx17__normal_iteratorIS3_S1_EET_S7_St20forward_iterator_tag	0000000000000000 .text._ZNSt6vectorIhSaIhEE15_M_range_insertIPhEEvN9__gnu_cxx17__normal_iteratorIS3_S1_EET_S7_St20forward_iterator_tag
0000000000000000 l    d  .text._ZSt11__addressofINSt7__cxx1112basic_stringIcSt11char_traitsIcESaIcEEEEPT_RS6_	0000000000000000 .text._ZSt11__addressofINSt7__cxx1112basic_stringIcSt11char_traitsIcESaIcEEEEPT_RS6_
0000000000000000 l    d  .text._ZNKSt6vectorIhSaIhEE14_M_range_checkEm	0000000000000000 .text._ZNKSt6vectorIhSaIhEE14_M_range_checkEm
0000000000000000 l    d  .text._ZN9__gnu_cxxeqIPKhSt6vectorIhSaIhEEEEbRKNS_17__normal_iteratorIT_T0_EESB_	0000000000000000 .text._ZN9__gnu_cxxeqIPKhSt6vectorIhSaIhEEEEbRKNS_17__normal_iteratorIT_T0_EESB_
0000000000000000 l    d  .text._ZSt12__miter_baseIN9__gnu_cxx17__normal_iteratorIPcNSt7__cxx1112basic_stringIcSt11char_traitsIcESaIcEEEEEET_SA_	0000000000000000 .text._ZSt12__miter_baseIN9__gnu_cxx17__normal_iteratorIPcNSt7__cxx1112basic_stringIcSt11char_traitsIcESaIcEEEEEET_SA_
0000000000000000 l    d  .text._ZSt13__copy_move_aILb0EN9__gnu_cxx17__normal_iteratorIPcNSt7__cxx1112basic_stringIcSt11char_traitsIcESaIcEEEEENS1_IPhSt6vectorIhSaIhEEEEET1_T0_SG_SF_	0000000000000000 .text._ZSt13__copy_move_aILb0EN9__gnu_cxx17__normal_iteratorIPcNSt7__cxx1112basic_stringIcSt11char_traitsIcESaIcEEEEENS1_IPhSt6vectorIhSaIhEEEEET1_T0_SG_SF_
0000000000000000 l    d  .text._ZNK8nlohmann10basic_jsonISt3mapSt6vectorNSt7__cxx1112basic_stringIcSt11char_traitsIcESaIcEEEblmdSaNS_14adl_serializerES2_IhSaIhEEE8get_implIlLi0EEET_NS_6detail12priority_tagILj0EEE	0000000000000000 .text._ZNK8nlohmann10basic_jsonISt3mapSt6vectorNSt7__cxx1112basic_stringIcSt11char_traitsIcESaIcEEEblmdSaNS_14adl_serializerES2_IhSaIhEEE8get_implIlLi0EEET_NS_6detail12priority_tagILj0EEE
0000000000000000 l    d  .text._ZNK8nlohmann10basic_jsonISt3mapSt6vectorNSt7__cxx1112basic_stringIcSt11char_traitsIcESaIcEEEblmdSaNS_14adl_serializerES2_IhSaIhEEE17is_number_integerEv	0000000000000000 .text._ZNK8nlohmann10basic_jsonISt3mapSt6vectorNSt7__cxx1112basic_stringIcSt11char_traitsIcESaIcEEEblmdSaNS_14adl_serializerES2_IhSaIhEEE17is_number_integerEv
0000000000000000 l    d  .text._ZNK8nlohmann10basic_jsonISt3mapSt6vectorNSt7__cxx1112basic_stringIcSt11char_traitsIcESaIcEEEblmdSaNS_14adl_serializerES2_IhSaIhEEE15is_number_floatEv	0000000000000000 .text._ZNK8nlohmann10basic_jsonISt3mapSt6vectorNSt7__cxx1112basic_stringIcSt11char_traitsIcESaIcEEEblmdSaNS_14adl_serializerES2_IhSaIhEEE15is_number_floatEv
0000000000000000 l    d  .text._ZNK8nlohmann10basic_jsonISt3mapSt6vectorNSt7__cxx1112basic_stringIcSt11char_traitsIcESaIcEEEblmdSaNS_14adl_serializerES2_IhSaIhEEE8get_implIdLi0EEET_NS_6detail12priority_tagILj0EEE	0000000000000000 .text._ZNK8nlohmann10basic_jsonISt3mapSt6vectorNSt7__cxx1112basic_stringIcSt11char_traitsIcESaIcEEEblmdSaNS_14adl_serializerES2_IhSaIhEEE8get_implIdLi0EEET_NS_6detail12priority_tagILj0EEE
0000000000000000 l    d  .text._ZNK8nlohmann10basic_jsonISt3mapSt6vectorNSt7__cxx1112basic_stringIcSt11char_traitsIcESaIcEEEblmdSaNS_14adl_serializerES2_IhSaIhEEE8get_implIS8_Li0EEET_NS_6detail12priority_tagILj0EEE	0000000000000000 .text._ZNK8nlohmann10basic_jsonISt3mapSt6vectorNSt7__cxx1112basic_stringIcSt11char_traitsIcESaIcEEEblmdSaNS_14adl_serializerES2_IhSaIhEEE8get_implIS8_Li0EEET_NS_6detail12priority_tagILj0EEE
0000000000000000 l    d  .text._ZNK8nlohmann10basic_jsonISt3mapSt6vectorNSt7__cxx1112basic_stringIcSt11char_traitsIcESaIcEEEblmdSaNS_14adl_serializerES2_IhSaIhEEE6cbeginEv	0000000000000000 .text._ZNK8nlohmann10basic_jsonISt3mapSt6vectorNSt7__cxx1112basic_stringIcSt11char_traitsIcESaIcEEEblmdSaNS_14adl_serializerES2_IhSaIhEEE6cbeginEv
0000000000000000 l    d  .text._ZNK8nlohmann10basic_jsonISt3mapSt6vectorNSt7__cxx1112basic_stringIcSt11char_traitsIcESaIcEEEblmdSaNS_14adl_serializerES2_IhSaIhEEE4cendEv	0000000000000000 .text._ZNK8nlohmann10basic_jsonISt3mapSt6vectorNSt7__cxx1112basic_stringIcSt11char_traitsIcESaIcEEEblmdSaNS_14adl_serializerES2_IhSaIhEEE4cendEv
0000000000000000 l    d  .text._ZNKSt17_Rb_tree_iteratorISt4pairIKNSt7__cxx1112basic_stringIcSt11char_traitsIcESaIcEEEN8nlohmann10basic_jsonISt3mapSt6vectorS6_blmdSaNS8_14adl_serializerESB_IhSaIhEEEEEEptEv	0000000000000000 .text._ZNKSt17_Rb_tree_iteratorISt4pairIKNSt7__cxx1112basic_stringIcSt11char_traitsIcESaIcEEEN8nlohmann10basic_jsonISt3mapSt6vectorS6_blmdSaNS8_14adl_serializerESB_IhSaIhEEEEEEptEv
0000000000000000 l    d  .text._ZN8nlohmann6detail16invalid_iterator6createINS_10basic_jsonISt3mapSt6vectorNSt7__cxx1112basic_stringIcSt11char_traitsIcESaIcEEEblmdSaNS_14adl_serializerES5_IhSaIhEEEEEES1_iRKSB_RKT_	0000000000000000 .text._ZN8nlohmann6detail16invalid_iterator6createINS_10basic_jsonISt3mapSt6vectorNSt7__cxx1112basic_stringIcSt11char_traitsIcESaIcEEEblmdSaNS_14adl_serializerES5_IhSaIhEEEEEES1_iRKSB_RKT_
0000000000000000 l    d  .text._ZSt7forwardIRPKcEOT_RNSt16remove_referenceIS3_E4typeE	0000000000000000 .text._ZSt7forwardIRPKcEOT_RNSt16remove_referenceIS3_E4typeE
0000000000000000 l    d  .text._ZNSt3mapINSt7__cxx1112basic_stringIcSt11char_traitsIcESaIcEEEN8nlohmann10basic_jsonIS_St6vectorS5_blmdSaNS6_14adl_serializerES8_IhSaIhEEEESt4lessIS5_ESaISt4pairIKS5_SC_EEE4findERSG_	0000000000000000 .text._ZNSt3mapINSt7__cxx1112basic_stringIcSt11char_traitsIcESaIcEEEN8nlohmann10basic_jsonIS_St6vectorS5_blmdSaNS6_14adl_serializerES8_IhSaIhEEEESt4lessIS5_ESaISt4pairIKS5_SC_EEE4findERSG_
0000000000000000 l    d  .text._ZNK8nlohmann6detail9iter_implIKNS_10basic_jsonISt3mapSt6vectorNSt7__cxx1112basic_stringIcSt11char_traitsIcESaIcEEEblmdSaNS_14adl_serializerES4_IhSaIhEEEEEeqISG_LDnEEEbRKT_	0000000000000000 .text._ZNK8nlohmann6detail9iter_implIKNS_10basic_jsonISt3mapSt6vectorNSt7__cxx1112basic_stringIcSt11char_traitsIcESaIcEEEblmdSaNS_14adl_serializerES4_IhSaIhEEEEEeqISG_LDnEEEbRKT_
0000000000000000 l    d  .text._ZN8nlohmann6detail9iter_implINS_10basic_jsonISt3mapSt6vectorNSt7__cxx1112basic_stringIcSt11char_traitsIcESaIcEEEblmdSaNS_14adl_serializerES4_IhSaIhEEEEEC2EPSE_	0000000000000000 .text._ZN8nlohmann6detail9iter_implINS_10basic_jsonISt3mapSt6vectorNSt7__cxx1112basic_stringIcSt11char_traitsIcESaIcEEEblmdSaNS_14adl_serializerES4_IhSaIhEEEEEC2EPSE_
0000000000000000 l    d  .text._ZN8nlohmann6detail9iter_implINS_10basic_jsonISt3mapSt6vectorNSt7__cxx1112basic_stringIcSt11char_traitsIcESaIcEEEblmdSaNS_14adl_serializerES4_IhSaIhEEEEE7set_endEv	0000000000000000 .text._ZN8nlohmann6detail9iter_implINS_10basic_jsonISt3mapSt6vectorNSt7__cxx1112basic_stringIcSt11char_traitsIcESaIcEEEblmdSaNS_14adl_serializerES4_IhSaIhEEEEE7set_endEv
0000000000000000 l    d  .text._ZNK8nlohmann6detail9iter_implINS_10basic_jsonISt3mapSt6vectorNSt7__cxx1112basic_stringIcSt11char_traitsIcESaIcEEEblmdSaNS_14adl_serializerES4_IhSaIhEEEEEeqISF_LDnEEEbRKT_	0000000000000000 .text._ZNK8nlohmann6detail9iter_implINS_10basic_jsonISt3mapSt6vectorNSt7__cxx1112basic_stringIcSt11char_traitsIcESaIcEEEblmdSaNS_14adl_serializerES4_IhSaIhEEEEEeqISF_LDnEEEbRKT_
0000000000000000 l    d  .text._ZNK8nlohmann10basic_jsonISt3mapSt6vectorNSt7__cxx1112basic_stringIcSt11char_traitsIcESaIcEEEblmdSaNS_14adl_serializerES2_IhSaIhEEE9is_stringEv	0000000000000000 .text._ZNK8nlohmann10basic_jsonISt3mapSt6vectorNSt7__cxx1112basic_stringIcSt11char_traitsIcESaIcEEEblmdSaNS_14adl_serializerES2_IhSaIhEEE9is_stringEv
0000000000000000 l    d  .text._ZNK8nlohmann10basic_jsonISt3mapSt6vectorNSt7__cxx1112basic_stringIcSt11char_traitsIcESaIcEEEblmdSaNS_14adl_serializerES2_IhSaIhEEE9is_binaryEv	0000000000000000 .text._ZNK8nlohmann10basic_jsonISt3mapSt6vectorNSt7__cxx1112basic_stringIcSt11char_traitsIcESaIcEEEblmdSaNS_14adl_serializerES2_IhSaIhEEE9is_binaryEv
0000000000000000 l    d  .text._ZNSt3mapINSt7__cxx1112basic_stringIcSt11char_traitsIcESaIcEEEN8nlohmann10basic_jsonIS_St6vectorS5_blmdSaNS6_14adl_serializerES8_IhSaIhEEEESt4lessIS5_ESaISt4pairIKS5_SC_EEE5eraseB5cxx11ESt17_Rb_tree_iteratorISH_E	0000000000000000 .text._ZNSt3mapINSt7__cxx1112basic_stringIcSt11char_traitsIcESaIcEEEN8nlohmann10basic_jsonIS_St6vectorS5_blmdSaNS6_14adl_serializerES8_IhSaIhEEEESt4lessIS5_ESaISt4pairIKS5_SC_EEE5eraseB5cxx11ESt17_Rb_tree_iteratorISH_E
0000000000000000 l    d  .text._ZN9__gnu_cxx17__normal_iteratorIPKN8nlohmann10basic_jsonISt3mapSt6vectorNSt7__cxx1112basic_stringIcSt11char_traitsIcESaIcEEEblmdSaNS1_14adl_serializerES4_IhSaIhEEEES4_ISE_SaISE_EEEC2IPSE_vEERKNS0_IT_SI_EE	0000000000000000 .text._ZN9__gnu_cxx17__normal_iteratorIPKN8nlohmann10basic_jsonISt3mapSt6vectorNSt7__cxx1112basic_stringIcSt11char_traitsIcESaIcEEEblmdSaNS1_14adl_serializerES4_IhSaIhEEEES4_ISE_SaISE_EEEC2IPSE_vEERKNS0_IT_SI_EE
0000000000000000 l    d  .text._ZNSt6vectorIN8nlohmann10basic_jsonISt3mapS_NSt7__cxx1112basic_stringIcSt11char_traitsIcESaIcEEEblmdSaNS0_14adl_serializerES_IhSaIhEEEESaISC_EE5eraseEN9__gnu_cxx17__normal_iteratorIPKSC_SE_EE	0000000000000000 .text._ZNSt6vectorIN8nlohmann10basic_jsonISt3mapS_NSt7__cxx1112basic_stringIcSt11char_traitsIcESaIcEEEblmdSaNS0_14adl_serializerES_IhSaIhEEEESaISC_EE5eraseEN9__gnu_cxx17__normal_iteratorIPKSC_SE_EE
0000000000000000 l    d  .text._ZNK8nlohmann10basic_jsonISt3mapSt6vectorNSt7__cxx1112basic_stringIcSt11char_traitsIcESaIcEEEblmdSaNS_14adl_serializerES2_IhSaIhEEE9type_nameEv	0000000000000000 .text._ZNK8nlohmann10basic_jsonISt3mapSt6vectorNSt7__cxx1112basic_stringIcSt11char_traitsIcESaIcEEEblmdSaNS_14adl_serializerES2_IhSaIhEEE9type_nameEv
0000000000000000 l    d  .rodata._ZNK8nlohmann10basic_jsonISt3mapSt6vectorNSt7__cxx1112basic_stringIcSt11char_traitsIcESaIcEEEblmdSaNS_14adl_serializerES2_IhSaIhEEE9type_nameEv	0000000000000000 .rodata._ZNK8nlohmann10basic_jsonISt3mapSt6vectorNSt7__cxx1112basic_stringIcSt11char_traitsIcESaIcEEEblmdSaNS_14adl_serializerES2_IhSaIhEEE9type_nameEv
0000000000000000 l    d  .text._ZN8nlohmann6detail10type_error6createINS_10basic_jsonISt3mapSt6vectorNSt7__cxx1112basic_stringIcSt11char_traitsIcESaIcEEEblmdSaNS_14adl_serializerES5_IhSaIhEEEEEES1_iRKSB_RKT_	0000000000000000 .text._ZN8nlohmann6detail10type_error6createINS_10basic_jsonISt3mapSt6vectorNSt7__cxx1112basic_stringIcSt11char_traitsIcESaIcEEEblmdSaNS_14adl_serializerES5_IhSaIhEEEEEES1_iRKSB_RKT_
0000000000000000 l    d  .text._ZNKSt6vectorIN8nlohmann10basic_jsonISt3mapS_NSt7__cxx1112basic_stringIcSt11char_traitsIcESaIcEEEblmdSaNS0_14adl_serializerES_IhSaIhEEEESaISC_EE5emptyEv	0000000000000000 .text._ZNKSt6vectorIN8nlohmann10basic_jsonISt3mapS_NSt7__cxx1112basic_stringIcSt11char_traitsIcESaIcEEEblmdSaNS0_14adl_serializerES_IhSaIhEEEESaISC_EE5emptyEv
0000000000000000 l    d  .text._ZNKSt3mapINSt7__cxx1112basic_stringIcSt11char_traitsIcESaIcEEEN8nlohmann10basic_jsonIS_St6vectorS5_blmdSaNS6_14adl_serializerES8_IhSaIhEEEESt4lessIS5_ESaISt4pairIKS5_SC_EEE5emptyEv	0000000000000000 .text._ZNKSt3mapINSt7__cxx1112basic_stringIcSt11char_traitsIcESaIcEEEN8nlohmann10basic_jsonIS_St6vectorS5_blmdSaNS6_14adl_serializerES8_IhSaIhEEEESt4lessIS5_ESaISt4pairIKS5_SC_EEE5emptyEv
0000000000000000 l    d  .text._ZNK8nlohmann6detail9iter_implINS_10basic_jsonISt3mapSt6vectorNSt7__cxx1112basic_stringIcSt11char_traitsIcESaIcEEEblmdSaNS_14adl_serializerES4_IhSaIhEEEEEdeEv	0000000000000000 .text._ZNK8nlohmann6detail9iter_implINS_10basic_jsonISt3mapSt6vectorNSt7__cxx1112basic_stringIcSt11char_traitsIcESaIcEEEblmdSaNS_14adl_serializerES4_IhSaIhEEEEEdeEv
0000000000000000 l    d  .text._ZNSt12__shared_ptrIN8nlohmann6detail21output_string_adapterIcNSt7__cxx1112basic_stringIcSt11char_traitsIcESaIcEEEEELN9__gnu_cxx12_Lock_policyE2EED2Ev	0000000000000000 .text._ZNSt12__shared_ptrIN8nlohmann6detail21output_string_adapterIcNSt7__cxx1112basic_stringIcSt11char_traitsIcESaIcEEEEELN9__gnu_cxx12_Lock_policyE2EED2Ev
0000000000000000 l    d  .text._ZNSt10shared_ptrIN8nlohmann6detail21output_string_adapterIcNSt7__cxx1112basic_stringIcSt11char_traitsIcESaIcEEEEEED2Ev	0000000000000000 .text._ZNSt10shared_ptrIN8nlohmann6detail21output_string_adapterIcNSt7__cxx1112basic_stringIcSt11char_traitsIcESaIcEEEEEED2Ev
0000000000000000 l    d  .text._ZN8nlohmann6detail14output_adapterIcNSt7__cxx1112basic_stringIcSt11char_traitsIcESaIcEEEEC2ERS7_	0000000000000000 .text._ZN8nlohmann6detail14output_adapterIcNSt7__cxx1112basic_stringIcSt11char_traitsIcESaIcEEEEC2ERS7_
0000000000000000 l    d  .text._ZNSt14__shared_countILN9__gnu_cxx12_Lock_policyE2EED2Ev	0000000000000000 .text._ZNSt14__shared_countILN9__gnu_cxx12_Lock_policyE2EED2Ev
0000000000000000 l    d  .text._ZNSt12__shared_ptrIN8nlohmann6detail23output_adapter_protocolIcEELN9__gnu_cxx12_Lock_policyE2EEC2ERKS6_	0000000000000000 .text._ZNSt12__shared_ptrIN8nlohmann6detail23output_adapter_protocolIcEELN9__gnu_cxx12_Lock_policyE2EEC2ERKS6_
0000000000000000 l    d  .text._ZNSt10shared_ptrIN8nlohmann6detail23output_adapter_protocolIcEEEC2ERKS4_	0000000000000000 .text._ZNSt10shared_ptrIN8nlohmann6detail23output_adapter_protocolIcEEEC2ERKS4_
0000000000000000 l    d  .text._ZN8nlohmann6detail14output_adapterIcNSt7__cxx1112basic_stringIcSt11char_traitsIcESaIcEEEEcvSt10shared_ptrINS0_23output_adapter_protocolIcEEEEv	0000000000000000 .text._ZN8nlohmann6detail14output_adapterIcNSt7__cxx1112basic_stringIcSt11char_traitsIcESaIcEEEEcvSt10shared_ptrINS0_23output_adapter_protocolIcEEEEv
0000000000000000 l    d  .text._ZNSt10shared_ptrIN8nlohmann6detail23output_adapter_protocolIcEEEC2EOS4_	0000000000000000 .text._ZNSt10shared_ptrIN8nlohmann6detail23output_adapter_protocolIcEEEC2EOS4_
0000000000000000 l    d  .text._ZN8nlohmann6detail10serializerINS_10basic_jsonISt3mapSt6vectorNSt7__cxx1112basic_stringIcSt11char_traitsIcESaIcEEEblmdSaNS_14adl_serializerES4_IhSaIhEEEEEC2ESt10shared_ptrINS0_23output_adapter_protocolIcEEEcNS0_15error_handler_tE	0000000000000000 .text._ZN8nlohmann6detail10serializerINS_10basic_jsonISt3mapSt6vectorNSt7__cxx1112basic_stringIcSt11char_traitsIcESaIcEEEblmdSaNS_14adl_serializerES4_IhSaIhEEEEEC2ESt10shared_ptrINS0_23output_adapter_protocolIcEEEcNS0_15error_handler_tE
0000000000000000 l    d  .text._ZN8nlohmann6detail10serializerINS_10basic_jsonISt3mapSt6vectorNSt7__cxx1112basic_stringIcSt11char_traitsIcESaIcEEEblmdSaNS_14adl_serializerES4_IhSaIhEEEEE4dumpERKSE_bbjj	0000000000000000 .text._ZN8nlohmann6detail10serializerINS_10basic_jsonISt3mapSt6vectorNSt7__cxx1112basic_stringIcSt11char_traitsIcESaIcEEEblmdSaNS_14adl_serializerES4_IhSaIhEEEEE4dumpERKSE_bbjj
0000000000000000 l    d  .rodata._ZN8nlohmann6detail10serializerINS_10basic_jsonISt3mapSt6vectorNSt7__cxx1112basic_stringIcSt11char_traitsIcESaIcEEEblmdSaNS_14adl_serializerES4_IhSaIhEEEEE4dumpERKSE_bbjj	0000000000000000 .rodata._ZN8nlohmann6detail10serializerINS_10basic_jsonISt3mapSt6vectorNSt7__cxx1112basic_stringIcSt11char_traitsIcESaIcEEEblmdSaNS_14adl_serializerES4_IhSaIhEEEEE4dumpERKSE_bbjj
0000000000000000 l    d  .text._ZN8nlohmann6detail9iter_implIKNS_10basic_jsonISt3mapSt6vectorNSt7__cxx1112basic_stringIcSt11char_traitsIcESaIcEEEblmdSaNS_14adl_serializerES4_IhSaIhEEEEEC2ERKSG_	0000000000000000 .text._ZN8nlohmann6detail9iter_implIKNS_10basic_jsonISt3mapSt6vectorNSt7__cxx1112basic_stringIcSt11char_traitsIcESaIcEEEblmdSaNS_14adl_serializerES4_IhSaIhEEEEEC2ERKSG_
0000000000000000 l    d  .text._ZSt7forwardIRKNSt7__cxx1112basic_stringIcSt11char_traitsIcESaIcEEEEOT_RNSt16remove_referenceIS8_E4typeE	0000000000000000 .text._ZSt7forwardIRKNSt7__cxx1112basic_stringIcSt11char_traitsIcESaIcEEEEOT_RNSt16remove_referenceIS8_E4typeE
0000000000000000 l    d  .text._ZSt7forwardIN8tinygltf5ValueEEOT_RNSt16remove_referenceIS2_E4typeE	0000000000000000 .text._ZSt7forwardIN8tinygltf5ValueEEOT_RNSt16remove_referenceIS2_E4typeE
0000000000000000 l    d  .text._ZNSt8_Rb_treeINSt7__cxx1112basic_stringIcSt11char_traitsIcESaIcEEESt4pairIKS5_N8tinygltf5ValueEESt10_Select1stISA_ESt4lessIS5_ESaISA_EE17_M_emplace_uniqueIJRS7_S9_EEES6_ISt17_Rb_tree_iteratorISA_EbEDpOT_	0000000000000000 .text._ZNSt8_Rb_treeINSt7__cxx1112basic_stringIcSt11char_traitsIcESaIcEEESt4pairIKS5_N8tinygltf5ValueEESt10_Select1stISA_ESt4lessIS5_ESaISA_EE17_M_emplace_uniqueIJRS7_S9_EEES6_ISt17_Rb_tree_iteratorISA_EbEDpOT_
0000000000000000 l    d  .text._ZNSt6vectorIhSaIhEE14_M_move_assignEOS1_St17integral_constantIbLb1EE	0000000000000000 .text._ZNSt6vectorIhSaIhEE14_M_move_assignEOS1_St17integral_constantIbLb1EE
0000000000000000 l    d  .text._ZNSt6vectorIN8tinygltf5ValueESaIS1_EE14_M_move_assignEOS3_St17integral_constantIbLb1EE	0000000000000000 .text._ZNSt6vectorIN8tinygltf5ValueESaIS1_EE14_M_move_assignEOS3_St17integral_constantIbLb1EE
0000000000000000 l    d  .text._ZSt4moveIRSt4lessINSt7__cxx1112basic_stringIcSt11char_traitsIcESaIcEEEEEONSt16remove_referenceIT_E4typeEOSA_	0000000000000000 .text._ZSt4moveIRSt4lessINSt7__cxx1112basic_stringIcSt11char_traitsIcESaIcEEEEEONSt16remove_referenceIT_E4typeEOSA_
0000000000000000 l    d  .text._ZNSt8_Rb_treeINSt7__cxx1112basic_stringIcSt11char_traitsIcESaIcEEESt4pairIKS5_N8tinygltf5ValueEESt10_Select1stISA_ESt4lessIS5_ESaISA_EE14_M_move_assignERSG_St17integral_constantIbLb1EE	0000000000000000 .text._ZNSt8_Rb_treeINSt7__cxx1112basic_stringIcSt11char_traitsIcESaIcEEESt4pairIKS5_N8tinygltf5ValueEESt10_Select1stISA_ESt4lessIS5_ESaISA_EE14_M_move_assignERSG_St17integral_constantIbLb1EE
0000000000000000 l    d  .text._ZNKSt6vectorIN8nlohmann10basic_jsonISt3mapS_NSt7__cxx1112basic_stringIcSt11char_traitsIcESaIcEEEblmdSaNS0_14adl_serializerES_IhSaIhEEEESaISC_EE4sizeEv	0000000000000000 .text._ZNKSt6vectorIN8nlohmann10basic_jsonISt3mapS_NSt7__cxx1112basic_stringIcSt11char_traitsIcESaIcEEEblmdSaNS0_14adl_serializerES_IhSaIhEEEESaISC_EE4sizeEv
0000000000000000 l    d  .text._ZNKSt3mapINSt7__cxx1112basic_stringIcSt11char_traitsIcESaIcEEEN8nlohmann10basic_jsonIS_St6vectorS5_blmdSaNS6_14adl_serializerES8_IhSaIhEEEESt4lessIS5_ESaISt4pairIKS5_SC_EEE4sizeEv	0000000000000000 .text._ZNKSt3mapINSt7__cxx1112basic_stringIcSt11char_traitsIcESaIcEEEN8nlohmann10basic_jsonIS_St6vectorS5_blmdSaNS6_14adl_serializerES8_IhSaIhEEEESt4lessIS5_ESaISt4pairIKS5_SC_EEE4sizeEv
0000000000000000 l    d  .text._ZNKSt6vectorIN8tinygltf5ValueESaIS1_EE8max_sizeEv	0000000000000000 .text._ZNKSt6vectorIN8tinygltf5ValueESaIS1_EE8max_sizeEv
0000000000000000 l    d  .text._ZNSt12_Vector_baseIN8tinygltf5ValueESaIS1_EE11_M_allocateEm	0000000000000000 .text._ZNSt12_Vector_baseIN8tinygltf5ValueESaIS1_EE11_M_allocateEm
0000000000000000 l    d  .text._ZNSt6vectorIN8tinygltf5ValueESaIS1_EE11_S_relocateEPS1_S4_S4_RS2_	0000000000000000 .text._ZNSt6vectorIN8tinygltf5ValueESaIS1_EE11_S_relocateEPS1_S4_S4_RS2_
0000000000000000 l    d  .text._ZSt32__make_move_if_noexcept_iteratorIN8tinygltf5ValueESt13move_iteratorIPS1_EET0_PT_	0000000000000000 .text._ZSt32__make_move_if_noexcept_iteratorIN8tinygltf5ValueESt13move_iteratorIPS1_EET0_PT_
0000000000000000 l    d  .text._ZNSt6vectorIN8tinygltf5ValueESaIS1_EE20_M_allocate_and_copyISt13move_iteratorIPS1_EEES6_mT_S8_	0000000000000000 .text._ZNSt6vectorIN8tinygltf5ValueESaIS1_EE20_M_allocate_and_copyISt13move_iteratorIPS1_EEES6_mT_S8_
0000000000000000 l    d  .text._ZNSt6vectorIN8tinygltf5ValueESaIS1_EE17_M_realloc_insertIJS1_EEEvN9__gnu_cxx17__normal_iteratorIPS1_S3_EEDpOT_	0000000000000000 .text._ZNSt6vectorIN8tinygltf5ValueESaIS1_EE17_M_realloc_insertIJS1_EEEvN9__gnu_cxx17__normal_iteratorIPS1_S3_EEDpOT_
0000000000000000 l    d  .text._ZNK8nlohmann10basic_jsonISt3mapSt6vectorNSt7__cxx1112basic_stringIcSt11char_traitsIcESaIcEEEblmdSaNS_14adl_serializerES2_IhSaIhEEE8get_implIbLi0EEET_NS_6detail12priority_tagILj0EEE	0000000000000000 .text._ZNK8nlohmann10basic_jsonISt3mapSt6vectorNSt7__cxx1112basic_stringIcSt11char_traitsIcESaIcEEEblmdSaNS_14adl_serializerES2_IhSaIhEEE8get_implIbLi0EEET_NS_6detail12priority_tagILj0EEE
0000000000000000 l    d  .text._ZNK8nlohmann10basic_jsonISt3mapSt6vectorNSt7__cxx1112basic_stringIcSt11char_traitsIcESaIcEEEblmdSaNS_14adl_serializerES2_IhSaIhEEE8get_implImLi0EEET_NS_6detail12priority_tagILj0EEE	0000000000000000 .text._ZNK8nlohmann10basic_jsonISt3mapSt6vectorNSt7__cxx1112basic_stringIcSt11char_traitsIcESaIcEEEblmdSaNS_14adl_serializerES2_IhSaIhEEE8get_implImLi0EEET_NS_6detail12priority_tagILj0EEE
0000000000000000 l    d  .text._ZNSt6vectorIdSaIdEE15_M_erase_at_endEPd	0000000000000000 .text._ZNSt6vectorIdSaIdEE15_M_erase_at_endEPd
0000000000000000 l    d  .text._ZNSt3mapINSt7__cxx1112basic_stringIcSt11char_traitsIcESaIcEEEN8nlohmann10basic_jsonIS_St6vectorS5_blmdSaNS6_14adl_serializerES8_IhSaIhEEEESt4lessIS5_ESaISt4pairIKS5_SC_EEE3endEv	0000000000000000 .text._ZNSt3mapINSt7__cxx1112basic_stringIcSt11char_traitsIcESaIcEEEN8nlohmann10basic_jsonIS_St6vectorS5_blmdSaNS6_14adl_serializerES8_IhSaIhEEEESt4lessIS5_ESaISt4pairIKS5_SC_EEE3endEv
0000000000000000 l    d  .text._ZStneRKSt17_Rb_tree_iteratorISt4pairIKNSt7__cxx1112basic_stringIcSt11char_traitsIcESaIcEEEN8nlohmann10basic_jsonISt3mapSt6vectorS6_blmdSaNS8_14adl_serializerESB_IhSaIhEEEEEESJ_	0000000000000000 .text._ZStneRKSt17_Rb_tree_iteratorISt4pairIKNSt7__cxx1112basic_stringIcSt11char_traitsIcESaIcEEEN8nlohmann10basic_jsonISt3mapSt6vectorS6_blmdSaNS8_14adl_serializerESB_IhSaIhEEEEEESJ_
0000000000000000 l    d  .text._ZNSt6vectorIN8nlohmann10basic_jsonISt3mapS_NSt7__cxx1112basic_stringIcSt11char_traitsIcESaIcEEEblmdSaNS0_14adl_serializerES_IhSaIhEEEESaISC_EE3endEv	0000000000000000 .text._ZNSt6vectorIN8nlohmann10basic_jsonISt3mapS_NSt7__cxx1112basic_stringIcSt11char_traitsIcESaIcEEEblmdSaNS0_14adl_serializerES_IhSaIhEEEESaISC_EE3endEv
0000000000000000 l    d  .text._ZN9__gnu_cxxneIPN8nlohmann10basic_jsonISt3mapSt6vectorNSt7__cxx1112basic_stringIcSt11char_traitsIcESaIcEEEblmdSaNS1_14adl_serializerES4_IhSaIhEEEES4_ISE_SaISE_EEEEbRKNS_17__normal_iteratorIT_T0_EESN_	0000000000000000 .text._ZN9__gnu_cxxneIPN8nlohmann10basic_jsonISt3mapSt6vectorNSt7__cxx1112basic_stringIcSt11char_traitsIcESaIcEEEblmdSaNS1_14adl_serializerES4_IhSaIhEEEES4_ISE_SaISE_EEEEbRKNS_17__normal_iteratorIT_T0_EESN_
0000000000000000 l    d  .text._ZNK9__gnu_cxx17__normal_iteratorIPN8nlohmann10basic_jsonISt3mapSt6vectorNSt7__cxx1112basic_stringIcSt11char_traitsIcESaIcEEEblmdSaNS1_14adl_serializerES4_IhSaIhEEEES4_ISE_SaISE_EEEdeEv	0000000000000000 .text._ZNK9__gnu_cxx17__normal_iteratorIPN8nlohmann10basic_jsonISt3mapSt6vectorNSt7__cxx1112basic_stringIcSt11char_traitsIcESaIcEEEblmdSaNS1_14adl_serializerES4_IhSaIhEEEES4_ISE_SaISE_EEEdeEv
0000000000000000 l    d  .text._ZNSt6vectorIdSaIdEE3endEv	0000000000000000 .text._ZNSt6vectorIdSaIdEE3endEv
0000000000000000 l    d  .text._ZNSt6vectorIdSaIdEE15_S_use_relocateEv	0000000000000000 .text._ZNSt6vectorIdSaIdEE15_S_use_relocateEv
0000000000000000 l    d  .text._ZNSt6vectorIdSaIdEE19_S_nothrow_relocateESt17integral_constantIbLb1EE	0000000000000000 .text._ZNSt6vectorIdSaIdEE19_S_nothrow_relocateESt17integral_constantIbLb1EE
0000000000000000 l    d  .text._ZNSt6vectorIdSaIdEE17_M_realloc_insertIJRKdEEEvN9__gnu_cxx17__normal_iteratorIPdS1_EEDpOT_	0000000000000000 .text._ZNSt6vectorIdSaIdEE17_M_realloc_insertIJRKdEEEvN9__gnu_cxx17__normal_iteratorIPdS1_EEDpOT_
0000000000000000 l    d  .text._ZNSt6vectorIiSaIiEE15_M_erase_at_endEPi	0000000000000000 .text._ZNSt6vectorIiSaIiEE15_M_erase_at_endEPi
0000000000000000 l    d  .text._ZNSt6vectorIiSaIiEE3endEv	0000000000000000 .text._ZNSt6vectorIiSaIiEE3endEv
0000000000000000 l    d  .text._ZNSt6vectorIiSaIiEE15_S_use_relocateEv	0000000000000000 .text._ZNSt6vectorIiSaIiEE15_S_use_relocateEv
0000000000000000 l    d  .text._ZNSt6vectorIiSaIiEE19_S_nothrow_relocateESt17integral_constantIbLb1EE	0000000000000000 .text._ZNSt6vectorIiSaIiEE19_S_nothrow_relocateESt17integral_constantIbLb1EE
0000000000000000 l    d  .text._ZNSt6vectorIiSaIiEE17_M_realloc_insertIJRKiEEEvN9__gnu_cxx17__normal_iteratorIPiS1_EEDpOT_	0000000000000000 .text._ZNSt6vectorIiSaIiEE17_M_realloc_insertIJRKiEEEvN9__gnu_cxx17__normal_iteratorIPiS1_EEDpOT_
0000000000000000 l    d  .text._ZNSt8_Rb_treeINSt7__cxx1112basic_stringIcSt11char_traitsIcESaIcEEESt4pairIKS5_iESt10_Select1stIS8_ESt4lessIS5_ESaIS8_EE5clearEv	0000000000000000 .text._ZNSt8_Rb_treeINSt7__cxx1112basic_stringIcSt11char_traitsIcESaIcEEESt4pairIKS5_iESt10_Select1stIS8_ESt4lessIS5_ESaIS8_EE5clearEv
0000000000000000 l    d  .text._ZNSt3mapINSt7__cxx1112basic_stringIcSt11char_traitsIcESaIcEEEiSt4lessIS5_ESaISt4pairIKS5_iEEE11lower_boundERS9_	0000000000000000 .text._ZNSt3mapINSt7__cxx1112basic_stringIcSt11char_traitsIcESaIcEEEiSt4lessIS5_ESaISt4pairIKS5_iEEE11lower_boundERS9_
0000000000000000 l    d  .text._ZSteqRKSt17_Rb_tree_iteratorISt4pairIKNSt7__cxx1112basic_stringIcSt11char_traitsIcESaIcEEEiEESB_	0000000000000000 .text._ZSteqRKSt17_Rb_tree_iteratorISt4pairIKNSt7__cxx1112basic_stringIcSt11char_traitsIcESaIcEEEiEESB_
0000000000000000 l    d  .text._ZNKSt3mapINSt7__cxx1112basic_stringIcSt11char_traitsIcESaIcEEEiSt4lessIS5_ESaISt4pairIKS5_iEEE8key_compEv	0000000000000000 .text._ZNKSt3mapINSt7__cxx1112basic_stringIcSt11char_traitsIcESaIcEEEiSt4lessIS5_ESaISt4pairIKS5_iEEE8key_compEv
0000000000000000 l    d  .text._ZNKSt4lessINSt7__cxx1112basic_stringIcSt11char_traitsIcESaIcEEEEclERKS5_S8_	0000000000000000 .text._ZNKSt4lessINSt7__cxx1112basic_stringIcSt11char_traitsIcESaIcEEEEclERKS5_S8_
0000000000000000 l    d  .text._ZNSt5tupleIJONSt7__cxx1112basic_stringIcSt11char_traitsIcESaIcEEEEEC2EOS7_	0000000000000000 .text._ZNSt5tupleIJONSt7__cxx1112basic_stringIcSt11char_traitsIcESaIcEEEEEC2EOS7_
0000000000000000 l    d  .text._ZSt16forward_as_tupleIJNSt7__cxx1112basic_stringIcSt11char_traitsIcESaIcEEEEESt5tupleIJDpOT_EES9_	0000000000000000 .text._ZSt16forward_as_tupleIJNSt7__cxx1112basic_stringIcSt11char_traitsIcESaIcEEEEESt5tupleIJDpOT_EES9_
0000000000000000 l    d  .text._ZNSt23_Rb_tree_const_iteratorISt4pairIKNSt7__cxx1112basic_stringIcSt11char_traitsIcESaIcEEEiEEC2ERKSt17_Rb_tree_iteratorIS8_E	0000000000000000 .text._ZNSt23_Rb_tree_const_iteratorISt4pairIKNSt7__cxx1112basic_stringIcSt11char_traitsIcESaIcEEEiEEC2ERKSt17_Rb_tree_iteratorIS8_E
0000000000000000 l    d  .text._ZNSt8_Rb_treeINSt7__cxx1112basic_stringIcSt11char_traitsIcESaIcEEESt4pairIKS5_iESt10_Select1stIS8_ESt4lessIS5_ESaIS8_EE22_M_emplace_hint_uniqueIJRKSt21piecewise_construct_tSt5tupleIJOS5_EESJ_IJEEEEESt17_Rb_tree_iteratorIS8_ESt23_Rb_tree_const_iteratorIS8_EDpOT_	0000000000000000 .text._ZNSt8_Rb_treeINSt7__cxx1112basic_stringIcSt11char_traitsIcESaIcEEESt4pairIKS5_iESt10_Select1stIS8_ESt4lessIS5_ESaIS8_EE22_M_emplace_hint_uniqueIJRKSt21piecewise_construct_tSt5tupleIJOS5_EESJ_IJEEEEESt17_Rb_tree_iteratorIS8_ESt23_Rb_tree_const_iteratorIS8_EDpOT_
0000000000000000 l    d  .text._ZNSt8_Rb_treeINSt7__cxx1112basic_stringIcSt11char_traitsIcESaIcEEESt4pairIKS5_dESt10_Select1stIS8_ESt4lessIS5_ESaIS8_EE5clearEv	0000000000000000 .text._ZNSt8_Rb_treeINSt7__cxx1112basic_stringIcSt11char_traitsIcESaIcEEESt4pairIKS5_dESt10_Select1stIS8_ESt4lessIS5_ESaIS8_EE5clearEv
0000000000000000 l    d  .text._ZSt7forwardINSt7__cxx1112basic_stringIcSt11char_traitsIcESaIcEEEEOT_RNSt16remove_referenceIS6_E4typeE	0000000000000000 .text._ZSt7forwardINSt7__cxx1112basic_stringIcSt11char_traitsIcESaIcEEEEOT_RNSt16remove_referenceIS6_E4typeE
0000000000000000 l    d  .text._ZSt7forwardIRdEOT_RNSt16remove_referenceIS1_E4typeE	0000000000000000 .text._ZSt7forwardIRdEOT_RNSt16remove_referenceIS1_E4typeE
0000000000000000 l    d  .text._ZNSt8_Rb_treeINSt7__cxx1112basic_stringIcSt11char_traitsIcESaIcEEESt4pairIKS5_dESt10_Select1stIS8_ESt4lessIS5_ESaIS8_EE17_M_emplace_uniqueIJS5_RdEEES6_ISt17_Rb_tree_iteratorIS8_EbEDpOT_	0000000000000000 .text._ZNSt8_Rb_treeINSt7__cxx1112basic_stringIcSt11char_traitsIcESaIcEEESt4pairIKS5_dESt10_Select1stIS8_ESt4lessIS5_ESaIS8_EE17_M_emplace_uniqueIJS5_RdEEES6_ISt17_Rb_tree_iteratorIS8_EbEDpOT_
0000000000000000 l    d  .text._ZNSt3mapINSt7__cxx1112basic_stringIcSt11char_traitsIcESaIcEEEN8tinygltf5ValueESt4lessIS5_ESaISt4pairIKS5_S7_EEE11lower_boundERSB_	0000000000000000 .text._ZNSt3mapINSt7__cxx1112basic_stringIcSt11char_traitsIcESaIcEEEN8tinygltf5ValueESt4lessIS5_ESaISt4pairIKS5_S7_EEE11lower_boundERSB_
0000000000000000 l    d  .text._ZNKSt3mapINSt7__cxx1112basic_stringIcSt11char_traitsIcESaIcEEEN8tinygltf5ValueESt4lessIS5_ESaISt4pairIKS5_S7_EEE8key_compEv	0000000000000000 .text._ZNKSt3mapINSt7__cxx1112basic_stringIcSt11char_traitsIcESaIcEEEN8tinygltf5ValueESt4lessIS5_ESaISt4pairIKS5_S7_EEE8key_compEv
0000000000000000 l    d  .text._ZNSt5tupleIJRKNSt7__cxx1112basic_stringIcSt11char_traitsIcESaIcEEEEEC2ILb1ELb1EEES7_	0000000000000000 .text._ZNSt5tupleIJRKNSt7__cxx1112basic_stringIcSt11char_traitsIcESaIcEEEEEC2ILb1ELb1EEES7_
0000000000000000 l    d  .text._ZNSt23_Rb_tree_const_iteratorISt4pairIKNSt7__cxx1112basic_stringIcSt11char_traitsIcESaIcEEEN8tinygltf5ValueEEEC2ERKSt17_Rb_tree_iteratorISA_E	0000000000000000 .text._ZNSt23_Rb_tree_const_iteratorISt4pairIKNSt7__cxx1112basic_stringIcSt11char_traitsIcESaIcEEEN8tinygltf5ValueEEEC2ERKSt17_Rb_tree_iteratorISA_E
0000000000000000 l    d  .text._ZNSt8_Rb_treeINSt7__cxx1112basic_stringIcSt11char_traitsIcESaIcEEESt4pairIKS5_N8tinygltf5ValueEESt10_Select1stISA_ESt4lessIS5_ESaISA_EE22_M_emplace_hint_uniqueIJRKSt21piecewise_construct_tSt5tupleIJRS7_EESL_IJEEEEESt17_Rb_tree_iteratorISA_ESt23_Rb_tree_const_iteratorISA_EDpOT_	0000000000000000 .text._ZNSt8_Rb_treeINSt7__cxx1112basic_stringIcSt11char_traitsIcESaIcEEESt4pairIKS5_N8tinygltf5ValueEESt10_Select1stISA_ESt4lessIS5_ESaISA_EE22_M_emplace_hint_uniqueIJRKSt21piecewise_construct_tSt5tupleIJRS7_EESL_IJEEEEESt17_Rb_tree_iteratorISA_ESt23_Rb_tree_const_iteratorISA_EDpOT_
0000000000000000 l    d  .text._ZNSt15__new_allocatorISt13_Rb_tree_nodeISt4pairIKNSt7__cxx1112basic_stringIcSt11char_traitsIcESaIcEEEiEEED2Ev	0000000000000000 .text._ZNSt15__new_allocatorISt13_Rb_tree_nodeISt4pairIKNSt7__cxx1112basic_stringIcSt11char_traitsIcESaIcEEEiEEED2Ev
0000000000000000 l    d  .text._ZNSt8_Rb_treeINSt7__cxx1112basic_stringIcSt11char_traitsIcESaIcEEESt4pairIKS5_iESt10_Select1stIS8_ESt4lessIS5_ESaIS8_EE8_M_eraseEPSt13_Rb_tree_nodeIS8_E	0000000000000000 .text._ZNSt8_Rb_treeINSt7__cxx1112basic_stringIcSt11char_traitsIcESaIcEEESt4pairIKS5_iESt10_Select1stIS8_ESt4lessIS5_ESaIS8_EE8_M_eraseEPSt13_Rb_tree_nodeIS8_E
0000000000000000 l    d  .text._ZNSt8_Rb_treeINSt7__cxx1112basic_stringIcSt11char_traitsIcESaIcEEESt4pairIKS5_iESt10_Select1stIS8_ESt4lessIS5_ESaIS8_EE8_M_beginEv	0000000000000000 .text._ZNSt8_Rb_treeINSt7__cxx1112basic_stringIcSt11char_traitsIcESaIcEEESt4pairIKS5_iESt10_Select1stIS8_ESt4lessIS5_ESaIS8_EE8_M_beginEv
0000000000000000 l    d  .text._ZSt7forwardISt3mapINSt7__cxx1112basic_stringIcSt11char_traitsIcESaIcEEEiSt4lessIS6_ESaISt4pairIKS6_iEEEEOT_RNSt16remove_referenceISE_E4typeE	0000000000000000 .text._ZSt7forwardISt3mapINSt7__cxx1112basic_stringIcSt11char_traitsIcESaIcEEEiSt4lessIS6_ESaISt4pairIKS6_iEEEEOT_RNSt16remove_referenceISE_E4typeE
0000000000000000 l    d  .text._ZNSt6vectorISt3mapINSt7__cxx1112basic_stringIcSt11char_traitsIcESaIcEEEiSt4lessIS6_ESaISt4pairIKS6_iEEESaISD_EE15_S_use_relocateEv	0000000000000000 .text._ZNSt6vectorISt3mapINSt7__cxx1112basic_stringIcSt11char_traitsIcESaIcEEEiSt4lessIS6_ESaISt4pairIKS6_iEEESaISD_EE15_S_use_relocateEv
0000000000000000 l    d  .text._ZNSt6vectorISt3mapINSt7__cxx1112basic_stringIcSt11char_traitsIcESaIcEEEiSt4lessIS6_ESaISt4pairIKS6_iEEESaISD_EE19_S_nothrow_relocateESt17integral_constantIbLb1EE	0000000000000000 .text._ZNSt6vectorISt3mapINSt7__cxx1112basic_stringIcSt11char_traitsIcESaIcEEEiSt4lessIS6_ESaISt4pairIKS6_iEEESaISD_EE19_S_nothrow_relocateESt17integral_constantIbLb1EE
0000000000000000 l    d  .text._ZNSt6vectorISt3mapINSt7__cxx1112basic_stringIcSt11char_traitsIcESaIcEEEiSt4lessIS6_ESaISt4pairIKS6_iEEESaISD_EE17_M_realloc_insertIJSD_EEEvN9__gnu_cxx17__normal_iteratorIPSD_SF_EEDpOT_	0000000000000000 .text._ZNSt6vectorISt3mapINSt7__cxx1112basic_stringIcSt11char_traitsIcESaIcEEEiSt4lessIS6_ESaISt4pairIKS6_iEEESaISD_EE17_M_realloc_insertIJSD_EEEvN9__gnu_cxx17__normal_iteratorIPSD_SF_EEDpOT_
0000000000000000 l    d  .text._ZNSt6vectorIN8tinygltf9PrimitiveESaIS1_EE15_M_erase_at_endEPS1_	0000000000000000 .text._ZNSt6vectorIN8tinygltf9PrimitiveESaIS1_EE15_M_erase_at_endEPS1_
0000000000000000 l    d  .text._ZNSt12_Vector_baseISt3mapINSt7__cxx1112basic_stringIcSt11char_traitsIcESaIcEEEiSt4lessIS6_ESaISt4pairIKS6_iEEESaISD_EE17_Vector_impl_dataC2Ev	0000000000000000 .text._ZNSt12_Vector_baseISt3mapINSt7__cxx1112basic_stringIcSt11char_traitsIcESaIcEEEiSt4lessIS6_ESaISt4pairIKS6_iEEESaISD_EE17_Vector_impl_dataC2Ev
0000000000000000 l    d  .text._ZNSt15__new_allocatorISt3mapINSt7__cxx1112basic_stringIcSt11char_traitsIcESaIcEEEiSt4lessIS6_ESaISt4pairIKS6_iEEEED2Ev	0000000000000000 .text._ZNSt15__new_allocatorISt3mapINSt7__cxx1112basic_stringIcSt11char_traitsIcESaIcEEEiSt4lessIS6_ESaISt4pairIKS6_iEEEED2Ev
0000000000000000 l    d  .text._ZNSt12_Vector_baseISt3mapINSt7__cxx1112basic_stringIcSt11char_traitsIcESaIcEEEiSt4lessIS6_ESaISt4pairIKS6_iEEESaISD_EE13_M_deallocateEPSD_m	0000000000000000 .text._ZNSt12_Vector_baseISt3mapINSt7__cxx1112basic_stringIcSt11char_traitsIcESaIcEEEiSt4lessIS6_ESaISt4pairIKS6_iEEESaISD_EE13_M_deallocateEPSD_m
0000000000000000 l    d  .text._ZNSt12_Vector_baseISt3mapINSt7__cxx1112basic_stringIcSt11char_traitsIcESaIcEEEiSt4lessIS6_ESaISt4pairIKS6_iEEESaISD_EE19_M_get_Tp_allocatorEv	0000000000000000 .text._ZNSt12_Vector_baseISt3mapINSt7__cxx1112basic_stringIcSt11char_traitsIcESaIcEEEiSt4lessIS6_ESaISt4pairIKS6_iEEESaISD_EE19_M_get_Tp_allocatorEv
0000000000000000 l    d  .text._ZSt7forwardIN8tinygltf9PrimitiveEEOT_RNSt16remove_referenceIS2_E4typeE	0000000000000000 .text._ZSt7forwardIN8tinygltf9PrimitiveEEOT_RNSt16remove_referenceIS2_E4typeE
0000000000000000 l    d  .text._ZNSt6vectorIN8tinygltf9PrimitiveESaIS1_EE15_S_use_relocateEv	0000000000000000 .text._ZNSt6vectorIN8tinygltf9PrimitiveESaIS1_EE15_S_use_relocateEv
0000000000000000 l    d  .text._ZNSt6vectorIN8tinygltf9PrimitiveESaIS1_EE19_S_nothrow_relocateESt17integral_constantIbLb1EE	0000000000000000 .text._ZNSt6vectorIN8tinygltf9PrimitiveESaIS1_EE19_S_nothrow_relocateESt17integral_constantIbLb1EE
0000000000000000 l    d  .text._ZNSt6vectorIN8tinygltf9PrimitiveESaIS1_EE17_M_realloc_insertIJS1_EEEvN9__gnu_cxx17__normal_iteratorIPS1_S3_EEDpOT_	0000000000000000 .text._ZNSt6vectorIN8tinygltf9PrimitiveESaIS1_EE17_M_realloc_insertIJS1_EEEvN9__gnu_cxx17__normal_iteratorIPS1_S3_EEDpOT_
0000000000000000 l    d  .text._ZSteqRKSt23_Rb_tree_const_iteratorISt4pairIKNSt7__cxx1112basic_stringIcSt11char_traitsIcESaIcEEEN8tinygltf5ValueEEESD_	0000000000000000 .text._ZSteqRKSt23_Rb_tree_const_iteratorISt4pairIKNSt7__cxx1112basic_stringIcSt11char_traitsIcESaIcEEEN8tinygltf5ValueEEESD_
0000000000000000 l    d  .text._ZNSt8_Rb_treeINSt7__cxx1112basic_stringIcSt11char_traitsIcESaIcEEESt4pairIKS5_N8tinygltf5ValueEESt10_Select1stISA_ESt4lessIS5_ESaISA_EE22_M_emplace_hint_uniqueIJRKSt21piecewise_construct_tSt5tupleIJOS5_EESL_IJEEEEESt17_Rb_tree_iteratorISA_ESt23_Rb_tree_const_iteratorISA_EDpOT_	0000000000000000 .text._ZNSt8_Rb_treeINSt7__cxx1112basic_stringIcSt11char_traitsIcESaIcEEESt4pairIKS5_N8tinygltf5ValueEESt10_Select1stISA_ESt4lessIS5_ESaISA_EE22_M_emplace_hint_uniqueIJRKSt21piecewise_construct_tSt5tupleIJOS5_EESL_IJEEEEESt17_Rb_tree_iteratorISA_ESt23_Rb_tree_const_iteratorISA_EDpOT_
0000000000000000 l    d  .text._ZNKSt12_Vector_baseIhSaIhEE19_M_get_Tp_allocatorEv	0000000000000000 .text._ZNKSt12_Vector_baseIhSaIhEE19_M_get_Tp_allocatorEv
0000000000000000 l    d  .text._ZNSt12_Vector_baseIhSaIhEEC2EmRKS0_	0000000000000000 .text._ZNSt12_Vector_baseIhSaIhEEC2EmRKS0_
0000000000000000 l    d  .text._ZSt22__uninitialized_copy_aIN9__gnu_cxx17__normal_iteratorIPKhSt6vectorIhSaIhEEEEPhhET0_T_SA_S9_RSaIT1_E	0000000000000000 .text._ZSt22__uninitialized_copy_aIN9__gnu_cxx17__normal_iteratorIPKhSt6vectorIhSaIhEEEEPhhET0_T_SA_S9_RSaIT1_E
0000000000000000 l    d  .text._ZNSt12_Vector_baseIN8tinygltf5ValueESaIS1_EEC2EmRKS2_	0000000000000000 .text._ZNSt12_Vector_baseIN8tinygltf5ValueESaIS1_EEC2EmRKS2_
0000000000000000 l    d  .text._ZSt22__uninitialized_copy_aIN9__gnu_cxx17__normal_iteratorIPKN8tinygltf5ValueESt6vectorIS3_SaIS3_EEEEPS3_S3_ET0_T_SC_SB_RSaIT1_E	0000000000000000 .text._ZSt22__uninitialized_copy_aIN9__gnu_cxx17__normal_iteratorIPKN8tinygltf5ValueESt6vectorIS3_SaIS3_EEEEPS3_S3_ET0_T_SC_SB_RSaIT1_E
0000000000000000 l    d  .text._ZNSt6vectorIiSaIiEE17_M_realloc_insertIJiEEEvN9__gnu_cxx17__normal_iteratorIPiS1_EEDpOT_	0000000000000000 .text._ZNSt6vectorIiSaIiEE17_M_realloc_insertIJiEEEvN9__gnu_cxx17__normal_iteratorIPiS1_EEDpOT_
0000000000000000 l    d  .text._ZSt11__addressofIKSt6vectorIdSaIdEEEPT_RS4_	0000000000000000 .text._ZSt11__addressofIKSt6vectorIdSaIdEEEPT_RS4_
0000000000000000 l    d  .text._ZNKSt12_Vector_baseIdSaIdEE19_M_get_Tp_allocatorEv	0000000000000000 .text._ZNKSt12_Vector_baseIdSaIdEE19_M_get_Tp_allocatorEv
0000000000000000 l    d  .text._ZNKSt6vectorIdSaIdEE8capacityEv	0000000000000000 .text._ZNKSt6vectorIdSaIdEE8capacityEv
0000000000000000 l    d  .text._ZNSt6vectorIdSaIdEE20_M_allocate_and_copyIN9__gnu_cxx17__normal_iteratorIPKdS1_EEEEPdmT_S9_	0000000000000000 .text._ZNSt6vectorIdSaIdEE20_M_allocate_and_copyIN9__gnu_cxx17__normal_iteratorIPKdS1_EEEEPdmT_S9_
0000000000000000 l    d  .text._ZNSt6vectorIdSaIdEE5beginEv	0000000000000000 .text._ZNSt6vectorIdSaIdEE5beginEv
0000000000000000 l    d  .text._ZSt4copyIN9__gnu_cxx17__normal_iteratorIPKdSt6vectorIdSaIdEEEENS1_IPdS6_EEET0_T_SB_SA_	0000000000000000 .text._ZSt4copyIN9__gnu_cxx17__normal_iteratorIPKdSt6vectorIdSaIdEEEENS1_IPdS6_EEET0_T_SB_SA_
0000000000000000 l    d  .text._ZSt4copyIPdS0_ET0_T_S2_S1_	0000000000000000 .text._ZSt4copyIPdS0_ET0_T_S2_S1_
0000000000000000 l    d  .text._ZSt22__uninitialized_copy_aIPdS0_dET0_T_S2_S1_RSaIT1_E	0000000000000000 .text._ZSt22__uninitialized_copy_aIPdS0_dET0_T_S2_S1_RSaIT1_E
0000000000000000 l    d  .text._ZNSt6vectorIdSaIdEE13_M_assign_auxIPKdEEvT_S5_St20forward_iterator_tag	0000000000000000 .text._ZNSt6vectorIdSaIdEE13_M_assign_auxIPKdEEvT_S5_St20forward_iterator_tag
0000000000000000 l    d  .text._ZNSt8_Rb_treeINSt7__cxx1112basic_stringIcSt11char_traitsIcESaIcEEESt4pairIKS5_N8tinygltf9ParameterEESt10_Select1stISA_ESt4lessIS5_ESaISA_EE5clearEv	0000000000000000 .text._ZNSt8_Rb_treeINSt7__cxx1112basic_stringIcSt11char_traitsIcESaIcEEESt4pairIKS5_N8tinygltf9ParameterEESt10_Select1stISA_ESt4lessIS5_ESaISA_EE5clearEv
0000000000000000 l    d  .text._ZNSt15__new_allocatorISt13_Rb_tree_nodeISt4pairIKNSt7__cxx1112basic_stringIcSt11char_traitsIcESaIcEEEdEEED2Ev	0000000000000000 .text._ZNSt15__new_allocatorISt13_Rb_tree_nodeISt4pairIKNSt7__cxx1112basic_stringIcSt11char_traitsIcESaIcEEEdEEED2Ev
0000000000000000 l    d  .text._ZNSt8_Rb_treeINSt7__cxx1112basic_stringIcSt11char_traitsIcESaIcEEESt4pairIKS5_dESt10_Select1stIS8_ESt4lessIS5_ESaIS8_EE8_M_eraseEPSt13_Rb_tree_nodeIS8_E	0000000000000000 .text._ZNSt8_Rb_treeINSt7__cxx1112basic_stringIcSt11char_traitsIcESaIcEEESt4pairIKS5_dESt10_Select1stIS8_ESt4lessIS5_ESaIS8_EE8_M_eraseEPSt13_Rb_tree_nodeIS8_E
0000000000000000 l    d  .text._ZNSt8_Rb_treeINSt7__cxx1112basic_stringIcSt11char_traitsIcESaIcEEESt4pairIKS5_dESt10_Select1stIS8_ESt4lessIS5_ESaIS8_EE8_M_beginEv	0000000000000000 .text._ZNSt8_Rb_treeINSt7__cxx1112basic_stringIcSt11char_traitsIcESaIcEEESt4pairIKS5_dESt10_Select1stIS8_ESt4lessIS5_ESaIS8_EE8_M_beginEv
0000000000000000 l    d  .text._ZSt7forwardIN8tinygltf9ParameterEEOT_RNSt16remove_referenceIS2_E4typeE	0000000000000000 .text._ZSt7forwardIN8tinygltf9ParameterEEOT_RNSt16remove_referenceIS2_E4typeE
0000000000000000 l    d  .text._ZNSt8_Rb_treeINSt7__cxx1112basic_stringIcSt11char_traitsIcESaIcEEESt4pairIKS5_N8tinygltf9ParameterEESt10_Select1stISA_ESt4lessIS5_ESaISA_EE17_M_emplace_uniqueIJS5_S9_EEES6_ISt17_Rb_tree_iteratorISA_EbEDpOT_	0000000000000000 .text._ZNSt8_Rb_treeINSt7__cxx1112basic_stringIcSt11char_traitsIcESaIcEEESt4pairIKS5_N8tinygltf9ParameterEESt10_Select1stISA_ESt4lessIS5_ESaISA_EE17_M_emplace_uniqueIJS5_S9_EEES6_ISt17_Rb_tree_iteratorISA_EbEDpOT_
0000000000000000 l    d  .text._ZSt7forwardIN8tinygltf16AnimationChannelEEOT_RNSt16remove_referenceIS2_E4typeE	0000000000000000 .text._ZSt7forwardIN8tinygltf16AnimationChannelEEOT_RNSt16remove_referenceIS2_E4typeE
0000000000000000 l    d  .text._ZNSt6vectorIN8tinygltf16AnimationChannelESaIS1_EE3endEv	0000000000000000 .text._ZNSt6vectorIN8tinygltf16AnimationChannelESaIS1_EE3endEv
0000000000000000 l    d  .text._ZNSt6vectorIN8tinygltf16AnimationChannelESaIS1_EE15_S_use_relocateEv	0000000000000000 .text._ZNSt6vectorIN8tinygltf16AnimationChannelESaIS1_EE15_S_use_relocateEv
0000000000000000 l    d  .text._ZNSt6vectorIN8tinygltf16AnimationChannelESaIS1_EE19_S_nothrow_relocateESt17integral_constantIbLb1EE	0000000000000000 .text._ZNSt6vectorIN8tinygltf16AnimationChannelESaIS1_EE19_S_nothrow_relocateESt17integral_constantIbLb1EE
0000000000000000 l    d  .text._ZNSt6vectorIN8tinygltf16AnimationChannelESaIS1_EE17_M_realloc_insertIJS1_EEEvN9__gnu_cxx17__normal_iteratorIPS1_S3_EEDpOT_	0000000000000000 .text._ZNSt6vectorIN8tinygltf16AnimationChannelESaIS1_EE17_M_realloc_insertIJS1_EEEvN9__gnu_cxx17__normal_iteratorIPS1_S3_EEDpOT_
0000000000000000 l    d  .text._ZSt7forwardIN8tinygltf16AnimationSamplerEEOT_RNSt16remove_referenceIS2_E4typeE	0000000000000000 .text._ZSt7forwardIN8tinygltf16AnimationSamplerEEOT_RNSt16remove_referenceIS2_E4typeE
0000000000000000 l    d  .text._ZNSt6vectorIN8tinygltf16AnimationSamplerESaIS1_EE3endEv	0000000000000000 .text._ZNSt6vectorIN8tinygltf16AnimationSamplerESaIS1_EE3endEv
0000000000000000 l    d  .text._ZNSt6vectorIN8tinygltf16AnimationSamplerESaIS1_EE15_S_use_relocateEv	0000000000000000 .text._ZNSt6vectorIN8tinygltf16AnimationSamplerESaIS1_EE15_S_use_relocateEv
0000000000000000 l    d  .text._ZNSt6vectorIN8tinygltf16AnimationSamplerESaIS1_EE19_S_nothrow_relocateESt17integral_constantIbLb1EE	0000000000000000 .text._ZNSt6vectorIN8tinygltf16AnimationSamplerESaIS1_EE19_S_nothrow_relocateESt17integral_constantIbLb1EE
0000000000000000 l    d  .text._ZNSt6vectorIN8tinygltf16AnimationSamplerESaIS1_EE17_M_realloc_insertIJS1_EEEvN9__gnu_cxx17__normal_iteratorIPS1_S3_EEDpOT_	0000000000000000 .text._ZNSt6vectorIN8tinygltf16AnimationSamplerESaIS1_EE17_M_realloc_insertIJS1_EEEvN9__gnu_cxx17__normal_iteratorIPS1_S3_EEDpOT_
0000000000000000 l    d  .text._ZNSt12_Vector_baseIiSaIiEE17_Vector_impl_dataC2Ev	0000000000000000 .text._ZNSt12_Vector_baseIiSaIiEE17_Vector_impl_dataC2Ev
0000000000000000 l    d  .text._ZNSt15__new_allocatorIiED2Ev	0000000000000000 .text._ZNSt15__new_allocatorIiED2Ev
0000000000000000 l    d  .text._ZNSt12_Vector_baseIiSaIiEE13_M_deallocateEPim	0000000000000000 .text._ZNSt12_Vector_baseIiSaIiEE13_M_deallocateEPim
0000000000000000 l    d  .text._ZNSt12_Vector_baseIiSaIiEE19_M_get_Tp_allocatorEv	0000000000000000 .text._ZNSt12_Vector_baseIiSaIiEE19_M_get_Tp_allocatorEv
0000000000000000 l    d  .text._ZNSt6vectorIiSaIiEE14_M_move_assignEOS1_St17integral_constantIbLb1EE	0000000000000000 .text._ZNSt6vectorIiSaIiEE14_M_move_assignEOS1_St17integral_constantIbLb1EE
0000000000000000 l    d  .text._ZN8nlohmann10basic_jsonISt3mapSt6vectorNSt7__cxx1112basic_stringIcSt11char_traitsIcESaIcEEEblmdSaNS_14adl_serializerES2_IhSaIhEEEC2ENS_6detail7value_tE	0000000000000000 .text._ZN8nlohmann10basic_jsonISt3mapSt6vectorNSt7__cxx1112basic_stringIcSt11char_traitsIcESaIcEEEblmdSaNS_14adl_serializerES2_IhSaIhEEEC2ENS_6detail7value_tE
0000000000000000 l    d  .text._ZNSt6vectorIN8tinygltf6BufferESaIS1_EE15_M_erase_at_endEPS1_	0000000000000000 .text._ZNSt6vectorIN8tinygltf6BufferESaIS1_EE15_M_erase_at_endEPS1_
0000000000000000 l    d  .text._ZNSt6vectorIN8tinygltf10BufferViewESaIS1_EE15_M_erase_at_endEPS1_	0000000000000000 .text._ZNSt6vectorIN8tinygltf10BufferViewESaIS1_EE15_M_erase_at_endEPS1_
0000000000000000 l    d  .text._ZNSt6vectorIN8tinygltf8AccessorESaIS1_EE15_M_erase_at_endEPS1_	0000000000000000 .text._ZNSt6vectorIN8tinygltf8AccessorESaIS1_EE15_M_erase_at_endEPS1_
0000000000000000 l    d  .text._ZNSt6vectorIN8tinygltf4MeshESaIS1_EE15_M_erase_at_endEPS1_	0000000000000000 .text._ZNSt6vectorIN8tinygltf4MeshESaIS1_EE15_M_erase_at_endEPS1_
0000000000000000 l    d  .text._ZNSt6vectorIN8tinygltf6CameraESaIS1_EE15_M_erase_at_endEPS1_	0000000000000000 .text._ZNSt6vectorIN8tinygltf6CameraESaIS1_EE15_M_erase_at_endEPS1_
0000000000000000 l    d  .text._ZNSt6vectorIN8tinygltf4NodeESaIS1_EE15_M_erase_at_endEPS1_	0000000000000000 .text._ZNSt6vectorIN8tinygltf4NodeESaIS1_EE15_M_erase_at_endEPS1_
0000000000000000 l    d  .text._ZNSt6vectorINSt7__cxx1112basic_stringIcSt11char_traitsIcESaIcEEESaIS5_EE15_M_erase_at_endEPS5_	0000000000000000 .text._ZNSt6vectorINSt7__cxx1112basic_stringIcSt11char_traitsIcESaIcEEESaIS5_EE15_M_erase_at_endEPS5_
0000000000000000 l    d  .text._ZNSt6vectorINSt7__cxx1112basic_stringIcSt11char_traitsIcESaIcEEESaIS5_EE17_M_realloc_insertIJS5_EEEvN9__gnu_cxx17__normal_iteratorIPS5_S7_EEDpOT_	0000000000000000 .text._ZNSt6vectorINSt7__cxx1112basic_stringIcSt11char_traitsIcESaIcEEESaIS5_EE17_M_realloc_insertIJS5_EEEvN9__gnu_cxx17__normal_iteratorIPS5_S7_EEDpOT_
0000000000000000 l    d  .text._ZSt7forwardIN8tinygltf6BufferEEOT_RNSt16remove_referenceIS2_E4typeE	0000000000000000 .text._ZSt7forwardIN8tinygltf6BufferEEOT_RNSt16remove_referenceIS2_E4typeE
0000000000000000 l    d  .text._ZNSt6vectorIN8tinygltf6BufferESaIS1_EE3endEv	0000000000000000 .text._ZNSt6vectorIN8tinygltf6BufferESaIS1_EE3endEv
0000000000000000 l    d  .text._ZNSt6vectorIN8tinygltf6BufferESaIS1_EE15_S_use_relocateEv	0000000000000000 .text._ZNSt6vectorIN8tinygltf6BufferESaIS1_EE15_S_use_relocateEv
0000000000000000 l    d  .text._ZNSt6vectorIN8tinygltf6BufferESaIS1_EE19_S_nothrow_relocateESt17integral_constantIbLb1EE	0000000000000000 .text._ZNSt6vectorIN8tinygltf6BufferESaIS1_EE19_S_nothrow_relocateESt17integral_constantIbLb1EE
0000000000000000 l    d  .text._ZNSt6vectorIN8tinygltf6BufferESaIS1_EE17_M_realloc_insertIJS1_EEEvN9__gnu_cxx17__normal_iteratorIPS1_S3_EEDpOT_	0000000000000000 .text._ZNSt6vectorIN8tinygltf6BufferESaIS1_EE17_M_realloc_insertIJS1_EEEvN9__gnu_cxx17__normal_iteratorIPS1_S3_EEDpOT_
0000000000000000 l    d  .text._ZSt7forwardIN8tinygltf10BufferViewEEOT_RNSt16remove_referenceIS2_E4typeE	0000000000000000 .text._ZSt7forwardIN8tinygltf10BufferViewEEOT_RNSt16remove_referenceIS2_E4typeE
0000000000000000 l    d  .text._ZNSt6vectorIN8tinygltf10BufferViewESaIS1_EE3endEv	0000000000000000 .text._ZNSt6vectorIN8tinygltf10BufferViewESaIS1_EE3endEv
0000000000000000 l    d  .text._ZNSt6vectorIN8tinygltf10BufferViewESaIS1_EE15_S_use_relocateEv	0000000000000000 .text._ZNSt6vectorIN8tinygltf10BufferViewESaIS1_EE15_S_use_relocateEv
0000000000000000 l    d  .text._ZNSt6vectorIN8tinygltf10BufferViewESaIS1_EE19_S_nothrow_relocateESt17integral_constantIbLb1EE	0000000000000000 .text._ZNSt6vectorIN8tinygltf10BufferViewESaIS1_EE19_S_nothrow_relocateESt17integral_constantIbLb1EE
0000000000000000 l    d  .text._ZNSt6vectorIN8tinygltf10BufferViewESaIS1_EE17_M_realloc_insertIJS1_EEEvN9__gnu_cxx17__normal_iteratorIPS1_S3_EEDpOT_	0000000000000000 .text._ZNSt6vectorIN8tinygltf10BufferViewESaIS1_EE17_M_realloc_insertIJS1_EEEvN9__gnu_cxx17__normal_iteratorIPS1_S3_EEDpOT_
0000000000000000 l    d  .text._ZSt7forwardIN8tinygltf8AccessorEEOT_RNSt16remove_referenceIS2_E4typeE	0000000000000000 .text._ZSt7forwardIN8tinygltf8AccessorEEOT_RNSt16remove_referenceIS2_E4typeE
0000000000000000 l    d  .text._ZNSt6vectorIN8tinygltf8AccessorESaIS1_EE3endEv	0000000000000000 .text._ZNSt6vectorIN8tinygltf8AccessorESaIS1_EE3endEv
0000000000000000 l    d  .text._ZNSt6vectorIN8tinygltf8AccessorESaIS1_EE15_S_use_relocateEv	0000000000000000 .text._ZNSt6vectorIN8tinygltf8AccessorESaIS1_EE15_S_use_relocateEv
0000000000000000 l    d  .text._ZNSt6vectorIN8tinygltf8AccessorESaIS1_EE19_S_nothrow_relocateESt17integral_constantIbLb1EE	0000000000000000 .text._ZNSt6vectorIN8tinygltf8AccessorESaIS1_EE19_S_nothrow_relocateESt17integral_constantIbLb1EE
0000000000000000 l    d  .text._ZNSt6vectorIN8tinygltf8AccessorESaIS1_EE17_M_realloc_insertIJS1_EEEvN9__gnu_cxx17__normal_iteratorIPS1_S3_EEDpOT_	0000000000000000 .text._ZNSt6vectorIN8tinygltf8AccessorESaIS1_EE17_M_realloc_insertIJS1_EEEvN9__gnu_cxx17__normal_iteratorIPS1_S3_EEDpOT_
0000000000000000 l    d  .text._ZNSt12_Vector_baseIN8tinygltf9PrimitiveESaIS1_EE17_Vector_impl_dataC2Ev	0000000000000000 .text._ZNSt12_Vector_baseIN8tinygltf9PrimitiveESaIS1_EE17_Vector_impl_dataC2Ev
0000000000000000 l    d  .text._ZNSt15__new_allocatorIN8tinygltf9PrimitiveEED2Ev	0000000000000000 .text._ZNSt15__new_allocatorIN8tinygltf9PrimitiveEED2Ev
0000000000000000 l    d  .text._ZNSt12_Vector_baseIN8tinygltf9PrimitiveESaIS1_EE13_M_deallocateEPS1_m	0000000000000000 .text._ZNSt12_Vector_baseIN8tinygltf9PrimitiveESaIS1_EE13_M_deallocateEPS1_m
0000000000000000 l    d  .text._ZNSt12_Vector_baseIN8tinygltf9PrimitiveESaIS1_EE19_M_get_Tp_allocatorEv	0000000000000000 .text._ZNSt12_Vector_baseIN8tinygltf9PrimitiveESaIS1_EE19_M_get_Tp_allocatorEv
0000000000000000 l    d  .text._ZSt7forwardIN8tinygltf4MeshEEOT_RNSt16remove_referenceIS2_E4typeE	0000000000000000 .text._ZSt7forwardIN8tinygltf4MeshEEOT_RNSt16remove_referenceIS2_E4typeE
0000000000000000 l    d  .text._ZNSt6vectorIN8tinygltf4MeshESaIS1_EE15_S_use_relocateEv	0000000000000000 .text._ZNSt6vectorIN8tinygltf4MeshESaIS1_EE15_S_use_relocateEv
0000000000000000 l    d  .text._ZNSt6vectorIN8tinygltf4MeshESaIS1_EE19_S_nothrow_relocateESt17integral_constantIbLb1EE	0000000000000000 .text._ZNSt6vectorIN8tinygltf4MeshESaIS1_EE19_S_nothrow_relocateESt17integral_constantIbLb1EE
0000000000000000 l    d  .text._ZNSt6vectorIN8tinygltf4MeshESaIS1_EE17_M_realloc_insertIJS1_EEEvN9__gnu_cxx17__normal_iteratorIPS1_S3_EEDpOT_	0000000000000000 .text._ZNSt6vectorIN8tinygltf4MeshESaIS1_EE17_M_realloc_insertIJS1_EEEvN9__gnu_cxx17__normal_iteratorIPS1_S3_EEDpOT_
0000000000000000 l    d  .text._ZN9__gnu_cxx17__normal_iteratorIPN8tinygltf4MeshESt6vectorIS2_SaIS2_EEEC2ERKS3_	0000000000000000 .text._ZN9__gnu_cxx17__normal_iteratorIPN8tinygltf4MeshESt6vectorIS2_SaIS2_EEEC2ERKS3_
0000000000000000 l    d  .text._ZNK9__gnu_cxx17__normal_iteratorIPN8tinygltf4MeshESt6vectorIS2_SaIS2_EEE4baseEv	0000000000000000 .text._ZNK9__gnu_cxx17__normal_iteratorIPN8tinygltf4MeshESt6vectorIS2_SaIS2_EEE4baseEv
0000000000000000 l    d  .text._ZN9__gnu_cxx17__normal_iteratorIPN8tinygltf9PrimitiveESt6vectorIS2_SaIS2_EEEC2ERKS3_	0000000000000000 .text._ZN9__gnu_cxx17__normal_iteratorIPN8tinygltf9PrimitiveESt6vectorIS2_SaIS2_EEEC2ERKS3_
0000000000000000 l    d  .text._ZNK9__gnu_cxx17__normal_iteratorIPN8tinygltf9PrimitiveESt6vectorIS2_SaIS2_EEE4baseEv	0000000000000000 .text._ZNK9__gnu_cxx17__normal_iteratorIPN8tinygltf9PrimitiveESt6vectorIS2_SaIS2_EEE4baseEv
0000000000000000 l    d  .text._ZNSt8_Rb_treeINSt7__cxx1112basic_stringIcSt11char_traitsIcESaIcEEESt4pairIKS5_iESt10_Select1stIS8_ESt4lessIS5_ESaIS8_EE5beginEv	0000000000000000 .text._ZNSt8_Rb_treeINSt7__cxx1112basic_stringIcSt11char_traitsIcESaIcEEESt4pairIKS5_iESt10_Select1stIS8_ESt4lessIS5_ESaIS8_EE5beginEv
0000000000000000 l    d  .text._ZNSt8_Rb_treeINSt7__cxx1112basic_stringIcSt11char_traitsIcESaIcEEESt4pairIKS5_iESt10_Select1stIS8_ESt4lessIS5_ESaIS8_EE3endEv	0000000000000000 .text._ZNSt8_Rb_treeINSt7__cxx1112basic_stringIcSt11char_traitsIcESaIcEEESt4pairIKS5_iESt10_Select1stIS8_ESt4lessIS5_ESaIS8_EE3endEv
0000000000000000 l    d  .text._ZNSt13_Rb_tree_nodeISt4pairIKNSt7__cxx1112basic_stringIcSt11char_traitsIcESaIcEEEiEE9_M_valptrEv	0000000000000000 .text._ZNSt13_Rb_tree_nodeISt4pairIKNSt7__cxx1112basic_stringIcSt11char_traitsIcESaIcEEEiEE9_M_valptrEv
0000000000000000 l    d  .text._ZN9__gnu_cxx17__normal_iteratorIPSt3mapINSt7__cxx1112basic_stringIcSt11char_traitsIcESaIcEEEiSt4lessIS7_ESaISt4pairIKS7_iEEESt6vectorISE_SaISE_EEEC2ERKSF_	0000000000000000 .text._ZN9__gnu_cxx17__normal_iteratorIPSt3mapINSt7__cxx1112basic_stringIcSt11char_traitsIcESaIcEEEiSt4lessIS7_ESaISt4pairIKS7_iEEESt6vectorISE_SaISE_EEEC2ERKSF_
0000000000000000 l    d  .text._ZNK9__gnu_cxx17__normal_iteratorIPSt3mapINSt7__cxx1112basic_stringIcSt11char_traitsIcESaIcEEEiSt4lessIS7_ESaISt4pairIKS7_iEEESt6vectorISE_SaISE_EEE4baseEv	0000000000000000 .text._ZNK9__gnu_cxx17__normal_iteratorIPSt3mapINSt7__cxx1112basic_stringIcSt11char_traitsIcESaIcEEEiSt4lessIS7_ESaISt4pairIKS7_iEEESt6vectorISE_SaISE_EEE4baseEv
0000000000000000 l    d  .text._ZSt7forwardIN8tinygltf4NodeEEOT_RNSt16remove_referenceIS2_E4typeE	0000000000000000 .text._ZSt7forwardIN8tinygltf4NodeEEOT_RNSt16remove_referenceIS2_E4typeE
0000000000000000 l    d  .text._ZNSt6vectorIN8tinygltf4NodeESaIS1_EE3endEv	0000000000000000 .text._ZNSt6vectorIN8tinygltf4NodeESaIS1_EE3endEv
0000000000000000 l    d  .text._ZNSt6vectorIN8tinygltf4NodeESaIS1_EE15_S_use_relocateEv	0000000000000000 .text._ZNSt6vectorIN8tinygltf4NodeESaIS1_EE15_S_use_relocateEv
0000000000000000 l    d  .text._ZNSt6vectorIN8tinygltf4NodeESaIS1_EE19_S_nothrow_relocateESt17integral_constantIbLb1EE	0000000000000000 .text._ZNSt6vectorIN8tinygltf4NodeESaIS1_EE19_S_nothrow_relocateESt17integral_constantIbLb1EE
0000000000000000 l    d  .text._ZNSt6vectorIN8tinygltf4NodeESaIS1_EE17_M_realloc_insertIJS1_EEEvN9__gnu_cxx17__normal_iteratorIPS1_S3_EEDpOT_	0000000000000000 .text._ZNSt6vectorIN8tinygltf4NodeESaIS1_EE17_M_realloc_insertIJS1_EEEvN9__gnu_cxx17__normal_iteratorIPS1_S3_EEDpOT_
0000000000000000 l    d  .text._ZSt7forwardIN8tinygltf5SceneEEOT_RNSt16remove_referenceIS2_E4typeE	0000000000000000 .text._ZSt7forwardIN8tinygltf5SceneEEOT_RNSt16remove_referenceIS2_E4typeE
0000000000000000 l    d  .text._ZNSt6vectorIN8tinygltf5SceneESaIS1_EE3endEv	0000000000000000 .text._ZNSt6vectorIN8tinygltf5SceneESaIS1_EE3endEv
0000000000000000 l    d  .text._ZNSt6vectorIN8tinygltf5SceneESaIS1_EE15_S_use_relocateEv	0000000000000000 .text._ZNSt6vectorIN8tinygltf5SceneESaIS1_EE15_S_use_relocateEv
0000000000000000 l    d  .text._ZNSt6vectorIN8tinygltf5SceneESaIS1_EE19_S_nothrow_relocateESt17integral_constantIbLb1EE	0000000000000000 .text._ZNSt6vectorIN8tinygltf5SceneESaIS1_EE19_S_nothrow_relocateESt17integral_constantIbLb1EE
0000000000000000 l    d  .text._ZNSt6vectorIN8tinygltf5SceneESaIS1_EE17_M_realloc_insertIJS1_EEEvN9__gnu_cxx17__normal_iteratorIPS1_S3_EEDpOT_	0000000000000000 .text._ZNSt6vectorIN8tinygltf5SceneESaIS1_EE17_M_realloc_insertIJS1_EEEvN9__gnu_cxx17__normal_iteratorIPS1_S3_EEDpOT_
0000000000000000 l    d  .text._ZSt7forwardIN8tinygltf8MaterialEEOT_RNSt16remove_referenceIS2_E4typeE	0000000000000000 .text._ZSt7forwardIN8tinygltf8MaterialEEOT_RNSt16remove_referenceIS2_E4typeE
0000000000000000 l    d  .text._ZNSt6vectorIN8tinygltf8MaterialESaIS1_EE3endEv	0000000000000000 .text._ZNSt6vectorIN8tinygltf8MaterialESaIS1_EE3endEv
0000000000000000 l    d  .text._ZNSt6vectorIN8tinygltf8MaterialESaIS1_EE15_S_use_relocateEv	0000000000000000 .text._ZNSt6vectorIN8tinygltf8MaterialESaIS1_EE15_S_use_relocateEv
0000000000000000 l    d  .text._ZNSt6vectorIN8tinygltf8MaterialESaIS1_EE19_S_nothrow_relocateESt17integral_constantIbLb1EE	0000000000000000 .text._ZNSt6vectorIN8tinygltf8MaterialESaIS1_EE19_S_nothrow_relocateESt17integral_constantIbLb1EE
0000000000000000 l    d  .text._ZNSt6vectorIN8tinygltf8MaterialESaIS1_EE17_M_realloc_insertIJS1_EEEvN9__gnu_cxx17__normal_iteratorIPS1_S3_EEDpOT_	0000000000000000 .text._ZNSt6vectorIN8tinygltf8MaterialESaIS1_EE17_M_realloc_insertIJS1_EEEvN9__gnu_cxx17__normal_iteratorIPS1_S3_EEDpOT_
0000000000000000 l    d  .text._ZSt7forwardIN8tinygltf5ImageEEOT_RNSt16remove_referenceIS2_E4typeE	0000000000000000 .text._ZSt7forwardIN8tinygltf5ImageEEOT_RNSt16remove_referenceIS2_E4typeE
0000000000000000 l    d  .text._ZNSt6vectorIN8tinygltf5ImageESaIS1_EE3endEv	0000000000000000 .text._ZNSt6vectorIN8tinygltf5ImageESaIS1_EE3endEv
0000000000000000 l    d  .text._ZNSt6vectorIN8tinygltf5ImageESaIS1_EE15_S_use_relocateEv	0000000000000000 .text._ZNSt6vectorIN8tinygltf5ImageESaIS1_EE15_S_use_relocateEv
0000000000000000 l    d  .text._ZNSt6vectorIN8tinygltf5ImageESaIS1_EE19_S_nothrow_relocateESt17integral_constantIbLb1EE	0000000000000000 .text._ZNSt6vectorIN8tinygltf5ImageESaIS1_EE19_S_nothrow_relocateESt17integral_constantIbLb1EE
0000000000000000 l    d  .text._ZNSt6vectorIN8tinygltf5ImageESaIS1_EE17_M_realloc_insertIJS1_EEEvN9__gnu_cxx17__normal_iteratorIPS1_S3_EEDpOT_	0000000000000000 .text._ZNSt6vectorIN8tinygltf5ImageESaIS1_EE17_M_realloc_insertIJS1_EEEvN9__gnu_cxx17__normal_iteratorIPS1_S3_EEDpOT_
0000000000000000 l    d  .text._ZSt7forwardIN8tinygltf7TextureEEOT_RNSt16remove_referenceIS2_E4typeE	0000000000000000 .text._ZSt7forwardIN8tinygltf7TextureEEOT_RNSt16remove_referenceIS2_E4typeE
0000000000000000 l    d  .text._ZNSt6vectorIN8tinygltf7TextureESaIS1_EE3endEv	0000000000000000 .text._ZNSt6vectorIN8tinygltf7TextureESaIS1_EE3endEv
0000000000000000 l    d  .text._ZNSt6vectorIN8tinygltf7TextureESaIS1_EE15_S_use_relocateEv	0000000000000000 .text._ZNSt6vectorIN8tinygltf7TextureESaIS1_EE15_S_use_relocateEv
0000000000000000 l    d  .text._ZNSt6vectorIN8tinygltf7TextureESaIS1_EE19_S_nothrow_relocateESt17integral_constantIbLb1EE	0000000000000000 .text._ZNSt6vectorIN8tinygltf7TextureESaIS1_EE19_S_nothrow_relocateESt17integral_constantIbLb1EE
0000000000000000 l    d  .text._ZNSt6vectorIN8tinygltf7TextureESaIS1_EE17_M_realloc_insertIJS1_EEEvN9__gnu_cxx17__normal_iteratorIPS1_S3_EEDpOT_	0000000000000000 .text._ZNSt6vectorIN8tinygltf7TextureESaIS1_EE17_M_realloc_insertIJS1_EEEvN9__gnu_cxx17__normal_iteratorIPS1_S3_EEDpOT_
0000000000000000 l    d  .text._ZNSt12_Vector_baseIN8tinygltf16AnimationChannelESaIS1_EE17_Vector_impl_dataC2Ev	0000000000000000 .text._ZNSt12_Vector_baseIN8tinygltf16AnimationChannelESaIS1_EE17_Vector_impl_dataC2Ev
0000000000000000 l    d  .text._ZNSt15__new_allocatorIN8tinygltf16AnimationChannelEED2Ev	0000000000000000 .text._ZNSt15__new_allocatorIN8tinygltf16AnimationChannelEED2Ev
0000000000000000 l    d  .text._ZNSt12_Vector_baseIN8tinygltf16AnimationChannelESaIS1_EE13_M_deallocateEPS1_m	0000000000000000 .text._ZNSt12_Vector_baseIN8tinygltf16AnimationChannelESaIS1_EE13_M_deallocateEPS1_m
0000000000000000 l    d  .text._ZNSt12_Vector_baseIN8tinygltf16AnimationChannelESaIS1_EE19_M_get_Tp_allocatorEv	0000000000000000 .text._ZNSt12_Vector_baseIN8tinygltf16AnimationChannelESaIS1_EE19_M_get_Tp_allocatorEv
0000000000000000 l    d  .text._ZNSt12_Vector_baseIN8tinygltf16AnimationSamplerESaIS1_EE17_Vector_impl_dataC2Ev	0000000000000000 .text._ZNSt12_Vector_baseIN8tinygltf16AnimationSamplerESaIS1_EE17_Vector_impl_dataC2Ev
0000000000000000 l    d  .text._ZNSt15__new_allocatorIN8tinygltf16AnimationSamplerEED2Ev	0000000000000000 .text._ZNSt15__new_allocatorIN8tinygltf16AnimationSamplerEED2Ev
0000000000000000 l    d  .text._ZNSt12_Vector_baseIN8tinygltf16AnimationSamplerESaIS1_EE13_M_deallocateEPS1_m	0000000000000000 .text._ZNSt12_Vector_baseIN8tinygltf16AnimationSamplerESaIS1_EE13_M_deallocateEPS1_m
0000000000000000 l    d  .text._ZNSt12_Vector_baseIN8tinygltf16AnimationSamplerESaIS1_EE19_M_get_Tp_allocatorEv	0000000000000000 .text._ZNSt12_Vector_baseIN8tinygltf16AnimationSamplerESaIS1_EE19_M_get_Tp_allocatorEv
0000000000000000 l    d  .text._ZSt7forwardIN8tinygltf9AnimationEEOT_RNSt16remove_referenceIS2_E4typeE	0000000000000000 .text._ZSt7forwardIN8tinygltf9AnimationEEOT_RNSt16remove_referenceIS2_E4typeE
0000000000000000 l    d  .text._ZNSt6vectorIN8tinygltf9AnimationESaIS1_EE3endEv	0000000000000000 .text._ZNSt6vectorIN8tinygltf9AnimationESaIS1_EE3endEv
0000000000000000 l    d  .text._ZNSt6vectorIN8tinygltf9AnimationESaIS1_EE15_S_use_relocateEv	0000000000000000 .text._ZNSt6vectorIN8tinygltf9AnimationESaIS1_EE15_S_use_relocateEv
0000000000000000 l    d  .text._ZNSt6vectorIN8tinygltf9AnimationESaIS1_EE19_S_nothrow_relocateESt17integral_constantIbLb1EE	0000000000000000 .text._ZNSt6vectorIN8tinygltf9AnimationESaIS1_EE19_S_nothrow_relocateESt17integral_constantIbLb1EE
0000000000000000 l    d  .text._ZNSt6vectorIN8tinygltf9AnimationESaIS1_EE17_M_realloc_insertIJS1_EEEvN9__gnu_cxx17__normal_iteratorIPS1_S3_EEDpOT_	0000000000000000 .text._ZNSt6vectorIN8tinygltf9AnimationESaIS1_EE17_M_realloc_insertIJS1_EEEvN9__gnu_cxx17__normal_iteratorIPS1_S3_EEDpOT_
0000000000000000 l    d  .text._ZSt7forwardIN8tinygltf4SkinEEOT_RNSt16remove_referenceIS2_E4typeE	0000000000000000 .text._ZSt7forwardIN8tinygltf4SkinEEOT_RNSt16remove_referenceIS2_E4typeE
0000000000000000 l    d  .text._ZNSt6vectorIN8tinygltf4SkinESaIS1_EE3endEv	0000000000000000 .text._ZNSt6vectorIN8tinygltf4SkinESaIS1_EE3endEv
0000000000000000 l    d  .text._ZNSt6vectorIN8tinygltf4SkinESaIS1_EE15_S_use_relocateEv	0000000000000000 .text._ZNSt6vectorIN8tinygltf4SkinESaIS1_EE15_S_use_relocateEv
0000000000000000 l    d  .text._ZNSt6vectorIN8tinygltf4SkinESaIS1_EE19_S_nothrow_relocateESt17integral_constantIbLb1EE	0000000000000000 .text._ZNSt6vectorIN8tinygltf4SkinESaIS1_EE19_S_nothrow_relocateESt17integral_constantIbLb1EE
0000000000000000 l    d  .text._ZNSt6vectorIN8tinygltf4SkinESaIS1_EE17_M_realloc_insertIJS1_EEEvN9__gnu_cxx17__normal_iteratorIPS1_S3_EEDpOT_	0000000000000000 .text._ZNSt6vectorIN8tinygltf4SkinESaIS1_EE17_M_realloc_insertIJS1_EEEvN9__gnu_cxx17__normal_iteratorIPS1_S3_EEDpOT_
0000000000000000 l    d  .text._ZSt7forwardIN8tinygltf7SamplerEEOT_RNSt16remove_referenceIS2_E4typeE	0000000000000000 .text._ZSt7forwardIN8tinygltf7SamplerEEOT_RNSt16remove_referenceIS2_E4typeE
0000000000000000 l    d  .text._ZNSt6vectorIN8tinygltf7SamplerESaIS1_EE3endEv	0000000000000000 .text._ZNSt6vectorIN8tinygltf7SamplerESaIS1_EE3endEv
0000000000000000 l    d  .text._ZNSt6vectorIN8tinygltf7SamplerESaIS1_EE15_S_use_relocateEv	0000000000000000 .text._ZNSt6vectorIN8tinygltf7SamplerESaIS1_EE15_S_use_relocateEv
0000000000000000 l    d  .text._ZNSt6vectorIN8tinygltf7SamplerESaIS1_EE19_S_nothrow_relocateESt17integral_constantIbLb1EE	0000000000000000 .text._ZNSt6vectorIN8tinygltf7SamplerESaIS1_EE19_S_nothrow_relocateESt17integral_constantIbLb1EE
0000000000000000 l    d  .text._ZNSt6vectorIN8tinygltf7SamplerESaIS1_EE17_M_realloc_insertIJS1_EEEvN9__gnu_cxx17__normal_iteratorIPS1_S3_EEDpOT_	0000000000000000 .text._ZNSt6vectorIN8tinygltf7SamplerESaIS1_EE17_M_realloc_insertIJS1_EEEvN9__gnu_cxx17__normal_iteratorIPS1_S3_EEDpOT_
0000000000000000 l    d  .text._ZSt7forwardIN8tinygltf6CameraEEOT_RNSt16remove_referenceIS2_E4typeE	0000000000000000 .text._ZSt7forwardIN8tinygltf6CameraEEOT_RNSt16remove_referenceIS2_E4typeE
0000000000000000 l    d  .text._ZNSt6vectorIN8tinygltf6CameraESaIS1_EE3endEv	0000000000000000 .text._ZNSt6vectorIN8tinygltf6CameraESaIS1_EE3endEv
0000000000000000 l    d  .text._ZNSt6vectorIN8tinygltf6CameraESaIS1_EE15_S_use_relocateEv	0000000000000000 .text._ZNSt6vectorIN8tinygltf6CameraESaIS1_EE15_S_use_relocateEv
0000000000000000 l    d  .text._ZNSt6vectorIN8tinygltf6CameraESaIS1_EE19_S_nothrow_relocateESt17integral_constantIbLb1EE	0000000000000000 .text._ZNSt6vectorIN8tinygltf6CameraESaIS1_EE19_S_nothrow_relocateESt17integral_constantIbLb1EE
0000000000000000 l    d  .text._ZNSt6vectorIN8tinygltf6CameraESaIS1_EE17_M_realloc_insertIJS1_EEEvN9__gnu_cxx17__normal_iteratorIPS1_S3_EEDpOT_	0000000000000000 .text._ZNSt6vectorIN8tinygltf6CameraESaIS1_EE17_M_realloc_insertIJS1_EEEvN9__gnu_cxx17__normal_iteratorIPS1_S3_EEDpOT_
0000000000000000 l    d  .text._ZSt7forwardIN8tinygltf5LightEEOT_RNSt16remove_referenceIS2_E4typeE	0000000000000000 .text._ZSt7forwardIN8tinygltf5LightEEOT_RNSt16remove_referenceIS2_E4typeE
0000000000000000 l    d  .text._ZNSt6vectorIN8tinygltf5LightESaIS1_EE3endEv	0000000000000000 .text._ZNSt6vectorIN8tinygltf5LightESaIS1_EE3endEv
0000000000000000 l    d  .text._ZNSt6vectorIN8tinygltf5LightESaIS1_EE15_S_use_relocateEv	0000000000000000 .text._ZNSt6vectorIN8tinygltf5LightESaIS1_EE15_S_use_relocateEv
0000000000000000 l    d  .text._ZNSt6vectorIN8tinygltf5LightESaIS1_EE19_S_nothrow_relocateESt17integral_constantIbLb1EE	0000000000000000 .text._ZNSt6vectorIN8tinygltf5LightESaIS1_EE19_S_nothrow_relocateESt17integral_constantIbLb1EE
0000000000000000 l    d  .text._ZNSt6vectorIN8tinygltf5LightESaIS1_EE17_M_realloc_insertIJS1_EEEvN9__gnu_cxx17__normal_iteratorIPS1_S3_EEDpOT_	0000000000000000 .text._ZNSt6vectorIN8tinygltf5LightESaIS1_EE17_M_realloc_insertIJS1_EEEvN9__gnu_cxx17__normal_iteratorIPS1_S3_EEDpOT_
0000000000000000 l    d  .text._ZSt7forwardIN8tinygltf12AudioEmitterEEOT_RNSt16remove_referenceIS2_E4typeE	0000000000000000 .text._ZSt7forwardIN8tinygltf12AudioEmitterEEOT_RNSt16remove_referenceIS2_E4typeE
0000000000000000 l    d  .text._ZNSt6vectorIN8tinygltf12AudioEmitterESaIS1_EE3endEv	0000000000000000 .text._ZNSt6vectorIN8tinygltf12AudioEmitterESaIS1_EE3endEv
0000000000000000 l    d  .text._ZNSt6vectorIN8tinygltf12AudioEmitterESaIS1_EE15_S_use_relocateEv	0000000000000000 .text._ZNSt6vectorIN8tinygltf12AudioEmitterESaIS1_EE15_S_use_relocateEv
0000000000000000 l    d  .text._ZNSt6vectorIN8tinygltf12AudioEmitterESaIS1_EE19_S_nothrow_relocateESt17integral_constantIbLb1EE	0000000000000000 .text._ZNSt6vectorIN8tinygltf12AudioEmitterESaIS1_EE19_S_nothrow_relocateESt17integral_constantIbLb1EE
0000000000000000 l    d  .text._ZNSt6vectorIN8tinygltf12AudioEmitterESaIS1_EE17_M_realloc_insertIJS1_EEEvN9__gnu_cxx17__normal_iteratorIPS1_S3_EEDpOT_	0000000000000000 .text._ZNSt6vectorIN8tinygltf12AudioEmitterESaIS1_EE17_M_realloc_insertIJS1_EEEvN9__gnu_cxx17__normal_iteratorIPS1_S3_EEDpOT_
0000000000000000 l    d  .text._ZSt7forwardIN8tinygltf11AudioSourceEEOT_RNSt16remove_referenceIS2_E4typeE	0000000000000000 .text._ZSt7forwardIN8tinygltf11AudioSourceEEOT_RNSt16remove_referenceIS2_E4typeE
0000000000000000 l    d  .text._ZNSt6vectorIN8tinygltf11AudioSourceESaIS1_EE3endEv	0000000000000000 .text._ZNSt6vectorIN8tinygltf11AudioSourceESaIS1_EE3endEv
0000000000000000 l    d  .text._ZNSt6vectorIN8tinygltf11AudioSourceESaIS1_EE15_S_use_relocateEv	0000000000000000 .text._ZNSt6vectorIN8tinygltf11AudioSourceESaIS1_EE15_S_use_relocateEv
0000000000000000 l    d  .text._ZNSt6vectorIN8tinygltf11AudioSourceESaIS1_EE19_S_nothrow_relocateESt17integral_constantIbLb1EE	0000000000000000 .text._ZNSt6vectorIN8tinygltf11AudioSourceESaIS1_EE19_S_nothrow_relocateESt17integral_constantIbLb1EE
0000000000000000 l    d  .text._ZNSt6vectorIN8tinygltf11AudioSourceESaIS1_EE17_M_realloc_insertIJS1_EEEvN9__gnu_cxx17__normal_iteratorIPS1_S3_EEDpOT_	0000000000000000 .text._ZNSt6vectorIN8tinygltf11AudioSourceESaIS1_EE17_M_realloc_insertIJS1_EEEvN9__gnu_cxx17__normal_iteratorIPS1_S3_EEDpOT_
0000000000000000 l    d  .text._ZN8nlohmann14adl_serializerIPKcvE7to_jsonINS_10basic_jsonISt3mapSt6vectorNSt7__cxx1112basic_stringIcSt11char_traitsIcESaIcEEEblmdSaS0_S7_IhSaIhEEEERS2_EEDTcmclL_ZNS_12_GLOBAL__N_17to_jsonEEfp_cl7forwardIT0_Efp0_EEcvv_EERT_OSJ_	0000000000000000 .text._ZN8nlohmann14adl_serializerIPKcvE7to_jsonINS_10basic_jsonISt3mapSt6vectorNSt7__cxx1112basic_stringIcSt11char_traitsIcESaIcEEEblmdSaS0_S7_IhSaIhEEEERS2_EEDTcmclL_ZNS_12_GLOBAL__N_17to_jsonEEfp_cl7forwardIT0_Efp0_EEcvv_EERT_OSJ_
0000000000000000 l    d  .text._ZN8nlohmann10basic_jsonISt3mapSt6vectorNSt7__cxx1112basic_stringIcSt11char_traitsIcESaIcEEEblmdSaNS_14adl_serializerES2_IhSaIhEEE10json_valueC2ERKS1_IS8_SC_St4lessIS8_ESaISt4pairIKS8_SC_EEE	0000000000000000 .text._ZN8nlohmann10basic_jsonISt3mapSt6vectorNSt7__cxx1112basic_stringIcSt11char_traitsIcESaIcEEEblmdSaNS_14adl_serializerES2_IhSaIhEEE10json_valueC2ERKS1_IS8_SC_St4lessIS8_ESaISt4pairIKS8_SC_EEE
0000000000000000 l    d  .text._ZN8nlohmann10basic_jsonISt3mapSt6vectorNSt7__cxx1112basic_stringIcSt11char_traitsIcESaIcEEEblmdSaNS_14adl_serializerES2_IhSaIhEEE10json_valueC2ERKS2_ISC_SaISC_EE	0000000000000000 .text._ZN8nlohmann10basic_jsonISt3mapSt6vectorNSt7__cxx1112basic_stringIcSt11char_traitsIcESaIcEEEblmdSaNS_14adl_serializerES2_IhSaIhEEE10json_valueC2ERKS2_ISC_SaISC_EE
0000000000000000 l    d  .text._ZN8nlohmann10basic_jsonISt3mapSt6vectorNSt7__cxx1112basic_stringIcSt11char_traitsIcESaIcEEEblmdSaNS_14adl_serializerES2_IhSaIhEEE10json_valueC2ERKS8_	0000000000000000 .text._ZN8nlohmann10basic_jsonISt3mapSt6vectorNSt7__cxx1112basic_stringIcSt11char_traitsIcESaIcEEEblmdSaNS_14adl_serializerES2_IhSaIhEEE10json_valueC2ERKS8_
0000000000000000 l    d  .text._ZN8nlohmann10basic_jsonISt3mapSt6vectorNSt7__cxx1112basic_stringIcSt11char_traitsIcESaIcEEEblmdSaNS_14adl_serializerES2_IhSaIhEEE10json_valueC2Eb	0000000000000000 .text._ZN8nlohmann10basic_jsonISt3mapSt6vectorNSt7__cxx1112basic_stringIcSt11char_traitsIcESaIcEEEblmdSaNS_14adl_serializerES2_IhSaIhEEE10json_valueC2Eb
0000000000000000 l    d  .text._ZN8nlohmann10basic_jsonISt3mapSt6vectorNSt7__cxx1112basic_stringIcSt11char_traitsIcESaIcEEEblmdSaNS_14adl_serializerES2_IhSaIhEEE10json_valueC2El	0000000000000000 .text._ZN8nlohmann10basic_jsonISt3mapSt6vectorNSt7__cxx1112basic_stringIcSt11char_traitsIcESaIcEEEblmdSaNS_14adl_serializerES2_IhSaIhEEE10json_valueC2El
0000000000000000 l    d  .text._ZN8nlohmann10basic_jsonISt3mapSt6vectorNSt7__cxx1112basic_stringIcSt11char_traitsIcESaIcEEEblmdSaNS_14adl_serializerES2_IhSaIhEEE10json_valueC2Em	0000000000000000 .text._ZN8nlohmann10basic_jsonISt3mapSt6vectorNSt7__cxx1112basic_stringIcSt11char_traitsIcESaIcEEEblmdSaNS_14adl_serializerES2_IhSaIhEEE10json_valueC2Em
0000000000000000 l    d  .text._ZN8nlohmann10basic_jsonISt3mapSt6vectorNSt7__cxx1112basic_stringIcSt11char_traitsIcESaIcEEEblmdSaNS_14adl_serializerES2_IhSaIhEEE10json_valueC2Ed	0000000000000000 .text._ZN8nlohmann10basic_jsonISt3mapSt6vectorNSt7__cxx1112basic_stringIcSt11char_traitsIcESaIcEEEblmdSaNS_14adl_serializerES2_IhSaIhEEE10json_valueC2Ed
0000000000000000 l    d  .text._ZN8nlohmann10basic_jsonISt3mapSt6vectorNSt7__cxx1112basic_stringIcSt11char_traitsIcESaIcEEEblmdSaNS_14adl_serializerES2_IhSaIhEEE10json_valueC2ERKNS_27byte_container_with_subtypeISB_EE	0000000000000000 .text._ZN8nlohmann10basic_jsonISt3mapSt6vectorNSt7__cxx1112basic_stringIcSt11char_traitsIcESaIcEEEblmdSaNS_14adl_serializerES2_IhSaIhEEE10json_valueC2ERKNS_27byte_container_with_subtypeISB_EE
0000000000000000 l    d  .text._ZN8nlohmann6detail11other_errorD2Ev	0000000000000000 .text._ZN8nlohmann6detail11other_errorD2Ev
0000000000000000 l    d  .text._ZN8nlohmann6detail11other_errorD0Ev	0000000000000000 .text._ZN8nlohmann6detail11other_errorD0Ev
0000000000000000 l    d  .text._ZN8nlohmann10basic_jsonISt3mapSt6vectorNSt7__cxx1112basic_stringIcSt11char_traitsIcESaIcEEEblmdSaNS_14adl_serializerES2_IhSaIhEEE10json_valueC2ENS_6detail7value_tE	0000000000000000 .text._ZN8nlohmann10basic_jsonISt3mapSt6vectorNSt7__cxx1112basic_stringIcSt11char_traitsIcESaIcEEEblmdSaNS_14adl_serializerES2_IhSaIhEEE10json_valueC2ENS_6detail7value_tE
0000000000000000 l    d  .rodata._ZN8nlohmann10basic_jsonISt3mapSt6vectorNSt7__cxx1112basic_stringIcSt11char_traitsIcESaIcEEEblmdSaNS_14adl_serializerES2_IhSaIhEEE10json_valueC2ENS_6detail7value_tE	0000000000000000 .rodata._ZN8nlohmann10basic_jsonISt3mapSt6vectorNSt7__cxx1112basic_stringIcSt11char_traitsIcESaIcEEEblmdSaNS_14adl_serializerES2_IhSaIhEEE10json_valueC2ENS_6detail7value_tE
0000000000000000 l    d  .text._ZN8nlohmann10basic_jsonISt3mapSt6vectorNSt7__cxx1112basic_stringIcSt11char_traitsIcESaIcEEEblmdSaNS_14adl_serializerES2_IhSaIhEEE10set_parentERSC_m	0000000000000000 .text._ZN8nlohmann10basic_jsonISt3mapSt6vectorNSt7__cxx1112basic_stringIcSt11char_traitsIcESaIcEEEblmdSaNS_14adl_serializerES2_IhSaIhEEE10set_parentERSC_m
0000000000000000 l    d  .text._ZNSt3mapINSt7__cxx1112basic_stringIcSt11char_traitsIcESaIcEEEN8nlohmann10basic_jsonIS_St6vectorS5_blmdSaNS6_14adl_serializerES8_IhSaIhEEEESt4lessIS5_ESaISt4pairIKS5_SC_EEEixEOS5_	0000000000000000 .text._ZNSt3mapINSt7__cxx1112basic_stringIcSt11char_traitsIcESaIcEEEN8nlohmann10basic_jsonIS_St6vectorS5_blmdSaNS6_14adl_serializerES8_IhSaIhEEEESt4lessIS5_ESaISt4pairIKS5_SC_EEEixEOS5_
0000000000000000 l    d  .text._ZNKSt6vectorIN8nlohmann10basic_jsonISt3mapS_NSt7__cxx1112basic_stringIcSt11char_traitsIcESaIcEEEblmdSaNS0_14adl_serializerES_IhSaIhEEEESaISC_EE8capacityEv	0000000000000000 .text._ZNKSt6vectorIN8nlohmann10basic_jsonISt3mapS_NSt7__cxx1112basic_stringIcSt11char_traitsIcESaIcEEEblmdSaNS0_14adl_serializerES_IhSaIhEEEESaISC_EE8capacityEv
0000000000000000 l    d  .text._ZNSt6vectorIN8nlohmann10basic_jsonISt3mapS_NSt7__cxx1112basic_stringIcSt11char_traitsIcESaIcEEEblmdSaNS0_14adl_serializerES_IhSaIhEEEESaISC_EE9push_backEOSC_	0000000000000000 .text._ZNSt6vectorIN8nlohmann10basic_jsonISt3mapS_NSt7__cxx1112basic_stringIcSt11char_traitsIcESaIcEEEblmdSaNS0_14adl_serializerES_IhSaIhEEEESaISC_EE9push_backEOSC_
0000000000000000 l    d  .text._ZNSt6vectorIN8nlohmann10basic_jsonISt3mapS_NSt7__cxx1112basic_stringIcSt11char_traitsIcESaIcEEEblmdSaNS0_14adl_serializerES_IhSaIhEEEESaISC_EE4backEv	0000000000000000 .text._ZNSt6vectorIN8nlohmann10basic_jsonISt3mapS_NSt7__cxx1112basic_stringIcSt11char_traitsIcESaIcEEEblmdSaNS0_14adl_serializerES_IhSaIhEEEESaISC_EE4backEv
0000000000000000 l    d  .text._ZZN8nlohmann10basic_jsonISt3mapSt6vectorNSt7__cxx1112basic_stringIcSt11char_traitsIcESaIcEEEblmdSaNS_14adl_serializerES2_IhSaIhEEEC4ESt16initializer_listINS_6detail8json_refISC_EEEbNSE_7value_tEENKUlRKSG_E_clESK_	0000000000000000 .text._ZZN8nlohmann10basic_jsonISt3mapSt6vectorNSt7__cxx1112basic_stringIcSt11char_traitsIcESaIcEEEblmdSaNS_14adl_serializerES2_IhSaIhEEEC4ESt16initializer_listINS_6detail8json_refISC_EEEbNSE_7value_tEENKUlRKSG_E_clESK_
0000000000000000 l    d  .text._ZN8nlohmann10basic_jsonISt3mapSt6vectorNSt7__cxx1112basic_stringIcSt11char_traitsIcESaIcEEEblmdSaNS_14adl_serializerES2_IhSaIhEEEC2ESt16initializer_listINS_6detail8json_refISC_EEEbNSE_7value_tE	0000000000000000 .text._ZN8nlohmann10basic_jsonISt3mapSt6vectorNSt7__cxx1112basic_stringIcSt11char_traitsIcESaIcEEEblmdSaNS_14adl_serializerES2_IhSaIhEEEC2ESt16initializer_listINS_6detail8json_refISC_EEEbNSE_7value_tE
0000000000000000 l    d  .text._ZN9__gnu_cxx17__normal_iteratorIPKNSt7__cxx1112basic_stringIcSt11char_traitsIcESaIcEEESt6vectorIS6_SaIS6_EEEC2ERKS8_	0000000000000000 .text._ZN9__gnu_cxx17__normal_iteratorIPKNSt7__cxx1112basic_stringIcSt11char_traitsIcESaIcEEESt6vectorIS6_SaIS6_EEEC2ERKS8_
0000000000000000 l    d  .text._ZNK9__gnu_cxx17__normal_iteratorIPKNSt7__cxx1112basic_stringIcSt11char_traitsIcESaIcEEESt6vectorIS6_SaIS6_EEE4baseEv	0000000000000000 .text._ZNK9__gnu_cxx17__normal_iteratorIPKNSt7__cxx1112basic_stringIcSt11char_traitsIcESaIcEEESt6vectorIS6_SaIS6_EEE4baseEv
0000000000000000 l    d  .text._ZSt7forwardIRKdEOT_RNSt16remove_referenceIS2_E4typeE	0000000000000000 .text._ZSt7forwardIRKdEOT_RNSt16remove_referenceIS2_E4typeE
0000000000000000 l    d  .text._ZN8nlohmann14adl_serializerIdvE7to_jsonINS_10basic_jsonISt3mapSt6vectorNSt7__cxx1112basic_stringIcSt11char_traitsIcESaIcEEEblmdSaS0_S5_IhSaIhEEEERKdEEDTcmclL_ZNS_12_GLOBAL__N_17to_jsonEEfp_cl7forwardIT0_Efp0_EEcvv_EERT_OSI_	0000000000000000 .text._ZN8nlohmann14adl_serializerIdvE7to_jsonINS_10basic_jsonISt3mapSt6vectorNSt7__cxx1112basic_stringIcSt11char_traitsIcESaIcEEEblmdSaS0_S5_IhSaIhEEEERKdEEDTcmclL_ZNS_12_GLOBAL__N_17to_jsonEEfp_cl7forwardIT0_Efp0_EEcvv_EERT_OSI_
0000000000000000 l    d  .text._ZSt7forwardIRKiEOT_RNSt16remove_referenceIS2_E4typeE	0000000000000000 .text._ZSt7forwardIRKiEOT_RNSt16remove_referenceIS2_E4typeE
0000000000000000 l    d  .text._ZN8nlohmann14adl_serializerIivE7to_jsonINS_10basic_jsonISt3mapSt6vectorNSt7__cxx1112basic_stringIcSt11char_traitsIcESaIcEEEblmdSaS0_S5_IhSaIhEEEERKiEEDTcmclL_ZNS_12_GLOBAL__N_17to_jsonEEfp_cl7forwardIT0_Efp0_EEcvv_EERT_OSI_	0000000000000000 .text._ZN8nlohmann14adl_serializerIivE7to_jsonINS_10basic_jsonISt3mapSt6vectorNSt7__cxx1112basic_stringIcSt11char_traitsIcESaIcEEEblmdSaS0_S5_IhSaIhEEEERKiEEDTcmclL_ZNS_12_GLOBAL__N_17to_jsonEEfp_cl7forwardIT0_Efp0_EEcvv_EERT_OSI_
0000000000000000 l    d  .text._ZSt7forwardIRKbEOT_RNSt16remove_referenceIS2_E4typeE	0000000000000000 .text._ZSt7forwardIRKbEOT_RNSt16remove_referenceIS2_E4typeE
0000000000000000 l    d  .text._ZN8nlohmann14adl_serializerIbvE7to_jsonINS_10basic_jsonISt3mapSt6vectorNSt7__cxx1112basic_stringIcSt11char_traitsIcESaIcEEEblmdSaS0_S5_IhSaIhEEEERKbEEDTcmclL_ZNS_12_GLOBAL__N_17to_jsonEEfp_cl7forwardIT0_Efp0_EEcvv_EERT_OSI_	0000000000000000 .text._ZN8nlohmann14adl_serializerIbvE7to_jsonINS_10basic_jsonISt3mapSt6vectorNSt7__cxx1112basic_stringIcSt11char_traitsIcESaIcEEEblmdSaS0_S5_IhSaIhEEEERKbEEDTcmclL_ZNS_12_GLOBAL__N_17to_jsonEEfp_cl7forwardIT0_Efp0_EEcvv_EERT_OSI_
0000000000000000 l    d  .text._ZN8nlohmann14adl_serializerINSt7__cxx1112basic_stringIcSt11char_traitsIcESaIcEEEvE7to_jsonINS_10basic_jsonISt3mapSt6vectorS6_blmdSaS0_SB_IhSaIhEEEERKS6_EEDTcmclL_ZNS_12_GLOBAL__N_17to_jsonEEfp_cl7forwardIT0_Efp0_EEcvv_EERT_OSI_	0000000000000000 .text._ZN8nlohmann14adl_serializerINSt7__cxx1112basic_stringIcSt11char_traitsIcESaIcEEEvE7to_jsonINS_10basic_jsonISt3mapSt6vectorS6_blmdSaS0_SB_IhSaIhEEEERKS6_EEDTcmclL_ZNS_12_GLOBAL__N_17to_jsonEEfp_cl7forwardIT0_Efp0_EEcvv_EERT_OSI_
0000000000000000 l    d  .text._ZNSt6vectorIN8nlohmann10basic_jsonISt3mapS_NSt7__cxx1112basic_stringIcSt11char_traitsIcESaIcEEEblmdSaNS0_14adl_serializerES_IhSaIhEEEESaISC_EE9push_backERKSC_	0000000000000000 .text._ZNSt6vectorIN8nlohmann10basic_jsonISt3mapS_NSt7__cxx1112basic_stringIcSt11char_traitsIcESaIcEEEblmdSaNS0_14adl_serializerES_IhSaIhEEEESaISC_EE9push_backERKSC_
0000000000000000 l    d  .text._ZZN8nlohmann10basic_jsonISt3mapSt6vectorNSt7__cxx1112basic_stringIcSt11char_traitsIcESaIcEEEblmdSaNS_14adl_serializerES2_IhSaIhEEE6createIS1_IS8_SC_St4lessIS8_ESaISt4pairIKS8_SC_EEEJEEEPT_DpOT0_ENKUlPSK_E_clESQ_	0000000000000000 .text._ZZN8nlohmann10basic_jsonISt3mapSt6vectorNSt7__cxx1112basic_stringIcSt11char_traitsIcESaIcEEEblmdSaNS_14adl_serializerES2_IhSaIhEEE6createIS1_IS8_SC_St4lessIS8_ESaISt4pairIKS8_SC_EEEJEEEPT_DpOT0_ENKUlPSK_E_clESQ_
0000000000000000 l    d  .text._ZN8nlohmann10basic_jsonISt3mapSt6vectorNSt7__cxx1112basic_stringIcSt11char_traitsIcESaIcEEEblmdSaNS_14adl_serializerES2_IhSaIhEEE6createIS1_IS8_SC_St4lessIS8_ESaISt4pairIKS8_SC_EEEJEEEPT_DpOT0_	0000000000000000 .text._ZN8nlohmann10basic_jsonISt3mapSt6vectorNSt7__cxx1112basic_stringIcSt11char_traitsIcESaIcEEEblmdSaNS_14adl_serializerES2_IhSaIhEEE6createIS1_IS8_SC_St4lessIS8_ESaISt4pairIKS8_SC_EEEJEEEPT_DpOT0_
0000000000000000 l    d  .text._ZNSt3mapINSt7__cxx1112basic_stringIcSt11char_traitsIcESaIcEEEN8nlohmann10basic_jsonIS_St6vectorS5_blmdSaNS6_14adl_serializerES8_IhSaIhEEEESt4lessIS5_ESaISt4pairIKS5_SC_EEEixERSG_	0000000000000000 .text._ZNSt3mapINSt7__cxx1112basic_stringIcSt11char_traitsIcESaIcEEEN8nlohmann10basic_jsonIS_St6vectorS5_blmdSaNS6_14adl_serializerES8_IhSaIhEEEESt4lessIS5_ESaISt4pairIKS5_SC_EEEixERSG_
0000000000000000 l    d  .text._ZN8nlohmann10basic_jsonISt3mapSt6vectorNSt7__cxx1112basic_stringIcSt11char_traitsIcESaIcEEEblmdSaNS_14adl_serializerES2_IhSaIhEEEC2IRiiLi0EEEOT_	0000000000000000 .text._ZN8nlohmann10basic_jsonISt3mapSt6vectorNSt7__cxx1112basic_stringIcSt11char_traitsIcESaIcEEEblmdSaNS_14adl_serializerES2_IhSaIhEEEC2IRiiLi0EEEOT_
0000000000000000 l    d  .text._ZN8nlohmann10basic_jsonISt3mapSt6vectorNSt7__cxx1112basic_stringIcSt11char_traitsIcESaIcEEEblmdSaNS_14adl_serializerES2_IhSaIhEEEC2IRmmLi0EEEOT_	0000000000000000 .text._ZN8nlohmann10basic_jsonISt3mapSt6vectorNSt7__cxx1112basic_stringIcSt11char_traitsIcESaIcEEEblmdSaNS_14adl_serializerES2_IhSaIhEEEC2IRmmLi0EEEOT_
0000000000000000 l    d  .text._ZNKSt6vectorIdSaIdEE5emptyEv	0000000000000000 .text._ZNKSt6vectorIdSaIdEE5emptyEv
0000000000000000 l    d  .text._ZN9__gnu_cxxneIPKdSt6vectorIdSaIdEEEEbRKNS_17__normal_iteratorIT_T0_EESB_	0000000000000000 .text._ZN9__gnu_cxxneIPKdSt6vectorIdSaIdEEEEbRKNS_17__normal_iteratorIT_T0_EESB_
0000000000000000 l    d  .text._ZN9__gnu_cxx17__normal_iteratorIPKdSt6vectorIdSaIdEEEppEv	0000000000000000 .text._ZN9__gnu_cxx17__normal_iteratorIPKdSt6vectorIdSaIdEEEppEv
0000000000000000 l    d  .text._ZNK9__gnu_cxx17__normal_iteratorIPKdSt6vectorIdSaIdEEEdeEv	0000000000000000 .text._ZNK9__gnu_cxx17__normal_iteratorIPKdSt6vectorIdSaIdEEEdeEv
0000000000000000 l    d  .text._ZN9__gnu_cxx17__normal_iteratorIPKdSt6vectorIdSaIdEEEC2ERKS2_	0000000000000000 .text._ZN9__gnu_cxx17__normal_iteratorIPKdSt6vectorIdSaIdEEEC2ERKS2_
0000000000000000 l    d  .text._ZNSt20back_insert_iteratorISt6vectorIiSaIiEEEC2ERS2_	0000000000000000 .text._ZNSt20back_insert_iteratorISt6vectorIiSaIiEEEC2ERS2_
0000000000000000 l    d  .text._ZNSt20back_insert_iteratorISt6vectorIiSaIiEEEppEv	0000000000000000 .text._ZNSt20back_insert_iteratorISt6vectorIiSaIiEEEppEv
0000000000000000 l    d  .text._ZNSt20back_insert_iteratorISt6vectorIiSaIiEEEdeEv	0000000000000000 .text._ZNSt20back_insert_iteratorISt6vectorIiSaIiEEEdeEv
0000000000000000 l    d  .text._ZNSt20back_insert_iteratorISt6vectorIiSaIiEEEaSEOi	0000000000000000 .text._ZNSt20back_insert_iteratorISt6vectorIiSaIiEEEaSEOi
0000000000000000 l    d  .text._ZN9__gnu_cxxneIPKiSt6vectorIiSaIiEEEEbRKNS_17__normal_iteratorIT_T0_EESB_	0000000000000000 .text._ZN9__gnu_cxxneIPKiSt6vectorIiSaIiEEEEbRKNS_17__normal_iteratorIT_T0_EESB_
0000000000000000 l    d  .text._ZN9__gnu_cxx17__normal_iteratorIPKiSt6vectorIiSaIiEEEppEv	0000000000000000 .text._ZN9__gnu_cxx17__normal_iteratorIPKiSt6vectorIiSaIiEEEppEv
0000000000000000 l    d  .text._ZNK9__gnu_cxx17__normal_iteratorIPKiSt6vectorIiSaIiEEEdeEv	0000000000000000 .text._ZNK9__gnu_cxx17__normal_iteratorIPKiSt6vectorIiSaIiEEEdeEv
0000000000000000 l    d  .text._ZSt11__addressofIKSt6vectorIhSaIhEEEPT_RS4_	0000000000000000 .text._ZSt11__addressofIKSt6vectorIhSaIhEEEPT_RS4_
0000000000000000 l    d  .text._ZNKSt6vectorIhSaIhEE8capacityEv	0000000000000000 .text._ZNKSt6vectorIhSaIhEE8capacityEv
0000000000000000 l    d  .text._ZNSt6vectorIhSaIhEE20_M_allocate_and_copyIN9__gnu_cxx17__normal_iteratorIPKhS1_EEEEPhmT_S9_	0000000000000000 .text._ZNSt6vectorIhSaIhEE20_M_allocate_and_copyIN9__gnu_cxx17__normal_iteratorIPKhS1_EEEEPhmT_S9_
0000000000000000 l    d  .text._ZSt4copyIN9__gnu_cxx17__normal_iteratorIPKhSt6vectorIhSaIhEEEENS1_IPhS6_EEET0_T_SB_SA_	0000000000000000 .text._ZSt4copyIN9__gnu_cxx17__normal_iteratorIPKhSt6vectorIhSaIhEEEENS1_IPhS6_EEET0_T_SB_SA_
0000000000000000 l    d  .text._ZSt4copyIPhS0_ET0_T_S2_S1_	0000000000000000 .text._ZSt4copyIPhS0_ET0_T_S2_S1_
0000000000000000 l    d  .text._ZSt22__uninitialized_copy_aIPhS0_hET0_T_S2_S1_RSaIT1_E	0000000000000000 .text._ZSt22__uninitialized_copy_aIPhS0_hET0_T_S2_S1_RSaIT1_E
0000000000000000 l    d  .text._ZN8nlohmann10basic_jsonISt3mapSt6vectorNSt7__cxx1112basic_stringIcSt11char_traitsIcESaIcEEEblmdSaNS_14adl_serializerES2_IhSaIhEEEC2IRddLi0EEEOT_	0000000000000000 .text._ZN8nlohmann10basic_jsonISt3mapSt6vectorNSt7__cxx1112basic_stringIcSt11char_traitsIcESaIcEEEblmdSaNS_14adl_serializerES2_IhSaIhEEEC2IRddLi0EEEOT_
0000000000000000 l    d  .text._ZNKSt8_Rb_treeINSt7__cxx1112basic_stringIcSt11char_traitsIcESaIcEEESt4pairIKS5_iESt10_Select1stIS8_ESt4lessIS5_ESaIS8_EE5beginEv	0000000000000000 .text._ZNKSt8_Rb_treeINSt7__cxx1112basic_stringIcSt11char_traitsIcESaIcEEESt4pairIKS5_iESt10_Select1stIS8_ESt4lessIS5_ESaIS8_EE5beginEv
0000000000000000 l    d  .text._ZNKSt8_Rb_treeINSt7__cxx1112basic_stringIcSt11char_traitsIcESaIcEEESt4pairIKS5_iESt10_Select1stIS8_ESt4lessIS5_ESaIS8_EE3endEv	0000000000000000 .text._ZNKSt8_Rb_treeINSt7__cxx1112basic_stringIcSt11char_traitsIcESaIcEEESt4pairIKS5_iESt10_Select1stIS8_ESt4lessIS5_ESaIS8_EE3endEv
0000000000000000 l    d  .text._ZNKSt13_Rb_tree_nodeISt4pairIKNSt7__cxx1112basic_stringIcSt11char_traitsIcESaIcEEEiEE9_M_valptrEv	0000000000000000 .text._ZNKSt13_Rb_tree_nodeISt4pairIKNSt7__cxx1112basic_stringIcSt11char_traitsIcESaIcEEEiEE9_M_valptrEv
0000000000000000 l    d  .text._ZNSt8_Rb_treeINSt7__cxx1112basic_stringIcSt11char_traitsIcESaIcEEESt4pairIKS5_iESt10_Select1stIS8_ESt4lessIS5_ESaIS8_EE13_Rb_tree_implISC_Lb1EEC2ERKSG_	0000000000000000 .text._ZNSt8_Rb_treeINSt7__cxx1112basic_stringIcSt11char_traitsIcESaIcEEESt4pairIKS5_iESt10_Select1stIS8_ESt4lessIS5_ESaIS8_EE13_Rb_tree_implISC_Lb1EEC2ERKSG_
0000000000000000 l    d  .text._ZNKSt8_Rb_treeINSt7__cxx1112basic_stringIcSt11char_traitsIcESaIcEEESt4pairIKS5_iESt10_Select1stIS8_ESt4lessIS5_ESaIS8_EE7_M_rootEv	0000000000000000 .text._ZNKSt8_Rb_treeINSt7__cxx1112basic_stringIcSt11char_traitsIcESaIcEEESt4pairIKS5_iESt10_Select1stIS8_ESt4lessIS5_ESaIS8_EE7_M_rootEv
0000000000000000 l    d  .text._ZNSt8_Rb_treeINSt7__cxx1112basic_stringIcSt11char_traitsIcESaIcEEESt4pairIKS5_iESt10_Select1stIS8_ESt4lessIS5_ESaIS8_EE7_M_rootEv	0000000000000000 .text._ZNSt8_Rb_treeINSt7__cxx1112basic_stringIcSt11char_traitsIcESaIcEEESt4pairIKS5_iESt10_Select1stIS8_ESt4lessIS5_ESaIS8_EE7_M_rootEv
0000000000000000 l    d  .text._ZNSt8_Rb_treeINSt7__cxx1112basic_stringIcSt11char_traitsIcESaIcEEESt4pairIKS5_iESt10_Select1stIS8_ESt4lessIS5_ESaIS8_EE7_M_copyERKSE_	0000000000000000 .text._ZNSt8_Rb_treeINSt7__cxx1112basic_stringIcSt11char_traitsIcESaIcEEESt4pairIKS5_iESt10_Select1stIS8_ESt4lessIS5_ESaIS8_EE7_M_copyERKSE_
0000000000000000 l    d  .text._ZN8nlohmann10basic_jsonISt3mapSt6vectorNSt7__cxx1112basic_stringIcSt11char_traitsIcESaIcEEEblmdSaNS_14adl_serializerES2_IhSaIhEEEC2IRbbLi0EEEOT_	0000000000000000 .text._ZN8nlohmann10basic_jsonISt3mapSt6vectorNSt7__cxx1112basic_stringIcSt11char_traitsIcESaIcEEEblmdSaNS_14adl_serializerES2_IhSaIhEEEC2IRbbLi0EEEOT_
0000000000000000 l    d  .text._ZN9__gnu_cxxeqIPKiSt6vectorIiSaIiEEEEbRKNS_17__normal_iteratorIT_T0_EESB_	0000000000000000 .text._ZN9__gnu_cxxeqIPKiSt6vectorIiSaIiEEEEbRKNS_17__normal_iteratorIT_T0_EESB_
0000000000000000 l    d  .text._ZNKSt12_Vector_baseINSt7__cxx1112basic_stringIcSt11char_traitsIcESaIcEEESaIS5_EE19_M_get_Tp_allocatorEv	0000000000000000 .text._ZNKSt12_Vector_baseINSt7__cxx1112basic_stringIcSt11char_traitsIcESaIcEEESaIS5_EE19_M_get_Tp_allocatorEv
0000000000000000 l    d  .text._ZNSt12_Vector_baseINSt7__cxx1112basic_stringIcSt11char_traitsIcESaIcEEESaIS5_EEC2EmRKS6_	0000000000000000 .text._ZNSt12_Vector_baseINSt7__cxx1112basic_stringIcSt11char_traitsIcESaIcEEESaIS5_EEC2EmRKS6_
0000000000000000 l    d  .text._ZSt22__uninitialized_copy_aIN9__gnu_cxx17__normal_iteratorIPKNSt7__cxx1112basic_stringIcSt11char_traitsIcESaIcEEESt6vectorIS7_SaIS7_EEEEPS7_S7_ET0_T_SG_SF_RSaIT1_E	0000000000000000 .text._ZSt22__uninitialized_copy_aIN9__gnu_cxx17__normal_iteratorIPKNSt7__cxx1112basic_stringIcSt11char_traitsIcESaIcEEESt6vectorIS7_SaIS7_EEEEPS7_S7_ET0_T_SG_SF_RSaIT1_E
0000000000000000 l    d  .text._ZN9__gnu_cxx17__normal_iteratorIPNSt7__cxx1112basic_stringIcSt11char_traitsIcESaIcEEESt6vectorIS6_SaIS6_EEEC2ERKS7_	0000000000000000 .text._ZN9__gnu_cxx17__normal_iteratorIPNSt7__cxx1112basic_stringIcSt11char_traitsIcESaIcEEESt6vectorIS6_SaIS6_EEEC2ERKS7_
000000000004a0d6 l     F .text	000000000000000e _ZSt4moveIRZN8tinygltfL18SerializeGltfModelEPKNS0_5ModelERN8nlohmann10basic_jsonISt3mapSt6vectorNSt7__cxx1112basic_stringIcSt11char_traitsIcESaIcEEEblmdSaNS4_14adl_serializerES7_IhSaIhEEEEEUlRKSD_E_EONSt16remove_referenceIT_E4typeEOSO_
000000000004a0e4 l     F .text	000000000000001b _ZN9__gnu_cxx5__ops10_Iter_predIZN8tinygltfL18SerializeGltfModelEPKNS2_5ModelERN8nlohmann10basic_jsonISt3mapSt6vectorNSt7__cxx1112basic_stringIcSt11char_traitsIcESaIcEEEblmdSaNS6_14adl_serializerES9_IhSaIhEEEEEUlRKSF_E_EC1ESN_
000000000004a0ff l     F .text	00000000000001a2 _ZSt9__find_ifIN9__gnu_cxx17__normal_iteratorIPNSt7__cxx1112basic_stringIcSt11char_traitsIcESaIcEEESt6vectorIS7_SaIS7_EEEENS0_5__ops10_Iter_predIZN8tinygltfL18SerializeGltfModelEPKNSF_5ModelERN8nlohmann10basic_jsonISt3mapS9_S7_blmdSaNSJ_14adl_serializerES9_IhSaIhEEEEEUlRKS7_E_EEET_SV_SV_T0_St26random_access_iterator_tag
0000000000000000 l    d  .text._ZNK9__gnu_cxx17__normal_iteratorIPNSt7__cxx1112basic_stringIcSt11char_traitsIcESaIcEEESt6vectorIS6_SaIS6_EEE4baseEv	0000000000000000 .text._ZNK9__gnu_cxx17__normal_iteratorIPNSt7__cxx1112basic_stringIcSt11char_traitsIcESaIcEEESt6vectorIS6_SaIS6_EEE4baseEv
0000000000000000 l    d  .text._ZNKSt6vectorIN8tinygltf12AudioEmitterESaIS1_EE5beginEv	0000000000000000 .text._ZNKSt6vectorIN8tinygltf12AudioEmitterESaIS1_EE5beginEv
0000000000000000 l    d  .text._ZNKSt6vectorIN8tinygltf12AudioEmitterESaIS1_EE3endEv	0000000000000000 .text._ZNKSt6vectorIN8tinygltf12AudioEmitterESaIS1_EE3endEv
0000000000000000 l    d  .text._ZN9__gnu_cxxeqIPKN8tinygltf12AudioEmitterESt6vectorIS2_SaIS2_EEEEbRKNS_17__normal_iteratorIT_T0_EESD_	0000000000000000 .text._ZN9__gnu_cxxeqIPKN8tinygltf12AudioEmitterESt6vectorIS2_SaIS2_EEEEbRKNS_17__normal_iteratorIT_T0_EESD_
0000000000000000 l    d  .text._ZNKSt6vectorIN8tinygltf11AudioSourceESaIS1_EE5beginEv	0000000000000000 .text._ZNKSt6vectorIN8tinygltf11AudioSourceESaIS1_EE5beginEv
0000000000000000 l    d  .text._ZNKSt6vectorIN8tinygltf11AudioSourceESaIS1_EE3endEv	0000000000000000 .text._ZNKSt6vectorIN8tinygltf11AudioSourceESaIS1_EE3endEv
0000000000000000 l    d  .text._ZN9__gnu_cxxeqIPKN8tinygltf11AudioSourceESt6vectorIS2_SaIS2_EEEEbRKNS_17__normal_iteratorIT_T0_EESD_	0000000000000000 .text._ZN9__gnu_cxxeqIPKN8tinygltf11AudioSourceESt6vectorIS2_SaIS2_EEEEbRKNS_17__normal_iteratorIT_T0_EESD_
000000000004a2a1 l     F .text	000000000000000e _ZSt4moveIRZN8tinygltfL18SerializeGltfModelEPKNS0_5ModelERN8nlohmann10basic_jsonISt3mapSt6vectorNSt7__cxx1112basic_stringIcSt11char_traitsIcESaIcEEEblmdSaNS4_14adl_serializerES7_IhSaIhEEEEEUlRKSD_E0_EONSt16remove_referenceIT_E4typeEOSO_
000000000004a2b0 l     F .text	000000000000001b _ZN9__gnu_cxx5__ops10_Iter_predIZN8tinygltfL18SerializeGltfModelEPKNS2_5ModelERN8nlohmann10basic_jsonISt3mapSt6vectorNSt7__cxx1112basic_stringIcSt11char_traitsIcESaIcEEEblmdSaNS6_14adl_serializerES9_IhSaIhEEEEEUlRKSF_E0_EC1ESN_
000000000004a2cb l     F .text	00000000000001a2 _ZSt9__find_ifIN9__gnu_cxx17__normal_iteratorIPNSt7__cxx1112basic_stringIcSt11char_traitsIcESaIcEEESt6vectorIS7_SaIS7_EEEENS0_5__ops10_Iter_predIZN8tinygltfL18SerializeGltfModelEPKNSF_5ModelERN8nlohmann10basic_jsonISt3mapS9_S7_blmdSaNSJ_14adl_serializerES9_IhSaIhEEEEEUlRKS7_E0_EEET_SV_SV_T0_St26random_access_iterator_tag
0000000000000000 l    d  .text._ZNSt6vectorIhSaIhEE17_S_check_init_lenEmRKS0_	0000000000000000 .text._ZNSt6vectorIhSaIhEE17_S_check_init_lenEmRKS0_
0000000000000000 l    d  .text._ZNSt6vectorIhSaIhEE18_M_fill_initializeEmRKh	0000000000000000 .text._ZNSt6vectorIhSaIhEE18_M_fill_initializeEmRKh
0000000000000000 l    d  .text._ZSt8_DestroyIPhEvT_S1_	0000000000000000 .text._ZSt8_DestroyIPhEvT_S1_
0000000000000000 l    d  .text._ZSt8_DestroyIPN8tinygltf5ValueEEvT_S3_	0000000000000000 .text._ZSt8_DestroyIPN8tinygltf5ValueEEvT_S3_
0000000000000000 l    d  .text._ZNSt8_Rb_treeINSt7__cxx1112basic_stringIcSt11char_traitsIcESaIcEEESt4pairIKS5_N8tinygltf5ValueEESt10_Select1stISA_ESt4lessIS5_ESaISA_EE8_S_rightEPSt18_Rb_tree_node_base	0000000000000000 .text._ZNSt8_Rb_treeINSt7__cxx1112basic_stringIcSt11char_traitsIcESaIcEEESt4pairIKS5_N8tinygltf5ValueEESt10_Select1stISA_ESt4lessIS5_ESaISA_EE8_S_rightEPSt18_Rb_tree_node_base
0000000000000000 l    d  .text._ZNSt8_Rb_treeINSt7__cxx1112basic_stringIcSt11char_traitsIcESaIcEEESt4pairIKS5_N8tinygltf5ValueEESt10_Select1stISA_ESt4lessIS5_ESaISA_EE7_S_leftEPSt18_Rb_tree_node_base	0000000000000000 .text._ZNSt8_Rb_treeINSt7__cxx1112basic_stringIcSt11char_traitsIcESaIcEEESt4pairIKS5_N8tinygltf5ValueEESt10_Select1stISA_ESt4lessIS5_ESaISA_EE7_S_leftEPSt18_Rb_tree_node_base
0000000000000000 l    d  .text._ZNSt8_Rb_treeINSt7__cxx1112basic_stringIcSt11char_traitsIcESaIcEEESt4pairIKS5_N8tinygltf5ValueEESt10_Select1stISA_ESt4lessIS5_ESaISA_EE12_M_drop_nodeEPSt13_Rb_tree_nodeISA_E	0000000000000000 .text._ZNSt8_Rb_treeINSt7__cxx1112basic_stringIcSt11char_traitsIcESaIcEEESt4pairIKS5_N8tinygltf5ValueEESt10_Select1stISA_ESt4lessIS5_ESaISA_EE12_M_drop_nodeEPSt13_Rb_tree_nodeISA_E
0000000000000000 l    d  .text._ZNKSt8_Rb_treeINSt7__cxx1112basic_stringIcSt11char_traitsIcESaIcEEESt4pairIKS5_N8tinygltf5ValueEESt10_Select1stISA_ESt4lessIS5_ESaISA_EE9_M_mbeginEv	0000000000000000 .text._ZNKSt8_Rb_treeINSt7__cxx1112basic_stringIcSt11char_traitsIcESaIcEEESt4pairIKS5_N8tinygltf5ValueEESt10_Select1stISA_ESt4lessIS5_ESaISA_EE9_M_mbeginEv
0000000000000000 l    d  .text._ZNKSt6vectorIhSaIhEE8max_sizeEv	0000000000000000 .text._ZNKSt6vectorIhSaIhEE8max_sizeEv
0000000000000000 l    d  .text._ZSt27__uninitialized_default_n_aIPhmhET_S1_T0_RSaIT1_E	0000000000000000 .text._ZSt27__uninitialized_default_n_aIPhmhET_S1_T0_RSaIT1_E
0000000000000000 l    d  .text._ZNKSt6vectorIhSaIhEE12_M_check_lenEmPKc	0000000000000000 .text._ZNKSt6vectorIhSaIhEE12_M_check_lenEmPKc
0000000000000000 l    d  .text._ZNSt12_Vector_baseIhSaIhEE11_M_allocateEm	0000000000000000 .text._ZNSt12_Vector_baseIhSaIhEE11_M_allocateEm
0000000000000000 l    d  .text._ZNSt6vectorIhSaIhEE11_S_relocateEPhS2_S2_RS0_	0000000000000000 .text._ZNSt6vectorIhSaIhEE11_S_relocateEPhS2_S2_RS0_
0000000000000000 l    d  .text._ZSt34__uninitialized_move_if_noexcept_aIPhS0_SaIhEET0_T_S3_S2_RT1_	0000000000000000 .text._ZSt34__uninitialized_move_if_noexcept_aIPhS0_SaIhEET0_T_S3_S2_RT1_
0000000000000000 l    d  .text._ZN9__gnu_cxx17__normal_iteratorIPKN8tinygltf5ValueESt6vectorIS2_SaIS2_EEEC2ERKS4_	0000000000000000 .text._ZN9__gnu_cxx17__normal_iteratorIPKN8tinygltf5ValueESt6vectorIS2_SaIS2_EEEC2ERKS4_
0000000000000000 l    d  .text._ZN9__gnu_cxx17__normal_iteratorIPN8tinygltf5ValueESt6vectorIS2_SaIS2_EEEC2ERKS3_	0000000000000000 .text._ZN9__gnu_cxx17__normal_iteratorIPN8tinygltf5ValueESt6vectorIS2_SaIS2_EEEC2ERKS3_
0000000000000000 l    d  .text._ZNSt8_Rb_treeINSt7__cxx1112basic_stringIcSt11char_traitsIcESaIcEEESt4pairIKS5_N8tinygltf5ValueEESt10_Select1stISA_ESt4lessIS5_ESaISA_EE12_M_rightmostEv	0000000000000000 .text._ZNSt8_Rb_treeINSt7__cxx1112basic_stringIcSt11char_traitsIcESaIcEEESt4pairIKS5_N8tinygltf5ValueEESt10_Select1stISA_ESt4lessIS5_ESaISA_EE12_M_rightmostEv
0000000000000000 l    d  .text._ZNSt8_Rb_treeINSt7__cxx1112basic_stringIcSt11char_traitsIcESaIcEEESt4pairIKS5_N8tinygltf5ValueEESt10_Select1stISA_ESt4lessIS5_ESaISA_EE6_M_endEv	0000000000000000 .text._ZNSt8_Rb_treeINSt7__cxx1112basic_stringIcSt11char_traitsIcESaIcEEESt4pairIKS5_N8tinygltf5ValueEESt10_Select1stISA_ESt4lessIS5_ESaISA_EE6_M_endEv
0000000000000000 l    d  .text._ZNSt8_Rb_treeINSt7__cxx1112basic_stringIcSt11char_traitsIcESaIcEEESt4pairIKS5_N8tinygltf5ValueEESt10_Select1stISA_ESt4lessIS5_ESaISA_EE11_M_leftmostEv	0000000000000000 .text._ZNSt8_Rb_treeINSt7__cxx1112basic_stringIcSt11char_traitsIcESaIcEEESt4pairIKS5_N8tinygltf5ValueEESt10_Select1stISA_ESt4lessIS5_ESaISA_EE11_M_leftmostEv
0000000000000000 l    d  .text._ZNSt8_Rb_treeINSt7__cxx1112basic_stringIcSt11char_traitsIcESaIcEEESt4pairIKS5_N8tinygltf5ValueEESt10_Select1stISA_ESt4lessIS5_ESaISA_EE10_S_minimumEPSt18_Rb_tree_node_base	0000000000000000 .text._ZNSt8_Rb_treeINSt7__cxx1112basic_stringIcSt11char_traitsIcESaIcEEESt4pairIKS5_N8tinygltf5ValueEESt10_Select1stISA_ESt4lessIS5_ESaISA_EE10_S_minimumEPSt18_Rb_tree_node_base
0000000000000000 l    d  .text._ZNSt8_Rb_treeINSt7__cxx1112basic_stringIcSt11char_traitsIcESaIcEEESt4pairIKS5_N8tinygltf5ValueEESt10_Select1stISA_ESt4lessIS5_ESaISA_EE10_S_maximumEPSt18_Rb_tree_node_base	0000000000000000 .text._ZNSt8_Rb_treeINSt7__cxx1112basic_stringIcSt11char_traitsIcESaIcEEESt4pairIKS5_N8tinygltf5ValueEESt10_Select1stISA_ESt4lessIS5_ESaISA_EE10_S_maximumEPSt18_Rb_tree_node_base
0000000000000000 l    d  .text._ZNKSt8_Rb_treeINSt7__cxx1112basic_stringIcSt11char_traitsIcESaIcEEESt4pairIKS5_N8tinygltf5ValueEESt10_Select1stISA_ESt4lessIS5_ESaISA_EE8_M_beginEv	0000000000000000 .text._ZNKSt8_Rb_treeINSt7__cxx1112basic_stringIcSt11char_traitsIcESaIcEEESt4pairIKS5_N8tinygltf5ValueEESt10_Select1stISA_ESt4lessIS5_ESaISA_EE8_M_beginEv
0000000000000000 l    d  .text._ZNKSt8_Rb_treeINSt7__cxx1112basic_stringIcSt11char_traitsIcESaIcEEESt4pairIKS5_N8tinygltf5ValueEESt10_Select1stISA_ESt4lessIS5_ESaISA_EE6_M_endEv	0000000000000000 .text._ZNKSt8_Rb_treeINSt7__cxx1112basic_stringIcSt11char_traitsIcESaIcEEESt4pairIKS5_N8tinygltf5ValueEESt10_Select1stISA_ESt4lessIS5_ESaISA_EE6_M_endEv
0000000000000000 l    d  .text._ZNKSt8_Rb_treeINSt7__cxx1112basic_stringIcSt11char_traitsIcESaIcEEESt4pairIKS5_N8tinygltf5ValueEESt10_Select1stISA_ESt4lessIS5_ESaISA_EE14_M_lower_boundEPKSt13_Rb_tree_nodeISA_EPKSt18_Rb_tree_node_baseRS7_	0000000000000000 .text._ZNKSt8_Rb_treeINSt7__cxx1112basic_stringIcSt11char_traitsIcESaIcEEESt4pairIKS5_N8tinygltf5ValueEESt10_Select1stISA_ESt4lessIS5_ESaISA_EE14_M_lower_boundEPKSt13_Rb_tree_nodeISA_EPKSt18_Rb_tree_node_baseRS7_
0000000000000000 l    d  .text._ZNSt8_Rb_treeINSt7__cxx1112basic_stringIcSt11char_traitsIcESaIcEEESt4pairIKS5_N8tinygltf5ValueEESt10_Select1stISA_ESt4lessIS5_ESaISA_EE6_S_keyEPKSt18_Rb_tree_node_base	0000000000000000 .text._ZNSt8_Rb_treeINSt7__cxx1112basic_stringIcSt11char_traitsIcESaIcEEESt4pairIKS5_N8tinygltf5ValueEESt10_Select1stISA_ESt4lessIS5_ESaISA_EE6_S_keyEPKSt18_Rb_tree_node_base
0000000000000000 l    d  .text._ZNSt23_Rb_tree_const_iteratorISt4pairIKNSt7__cxx1112basic_stringIcSt11char_traitsIcESaIcEEEN8tinygltf5ValueEEEC2EPKSt18_Rb_tree_node_base	0000000000000000 .text._ZNSt23_Rb_tree_const_iteratorISt4pairIKNSt7__cxx1112basic_stringIcSt11char_traitsIcESaIcEEEN8tinygltf5ValueEEEC2EPKSt18_Rb_tree_node_base
0000000000000000 l    d  .text._ZNK9__gnu_cxx16__aligned_membufISt4pairIKNSt7__cxx1112basic_stringIcSt11char_traitsIcESaIcEEEN8tinygltf5ValueEEE6_M_ptrEv	0000000000000000 .text._ZNK9__gnu_cxx16__aligned_membufISt4pairIKNSt7__cxx1112basic_stringIcSt11char_traitsIcESaIcEEEN8tinygltf5ValueEEE6_M_ptrEv
0000000000000000 l    d  .text._ZSt8_DestroyIPNSt7__cxx1112basic_stringIcSt11char_traitsIcESaIcEEEEvT_S7_	0000000000000000 .text._ZSt8_DestroyIPNSt7__cxx1112basic_stringIcSt11char_traitsIcESaIcEEEEvT_S7_
0000000000000000 l    d  .text._ZNKSt6vectorINSt7__cxx1112basic_stringIcSt11char_traitsIcESaIcEEESaIS5_EE12_M_check_lenEmPKc	0000000000000000 .text._ZNKSt6vectorINSt7__cxx1112basic_stringIcSt11char_traitsIcESaIcEEESaIS5_EE12_M_check_lenEmPKc
0000000000000000 l    d  .text._ZN9__gnu_cxxmiIPNSt7__cxx1112basic_stringIcSt11char_traitsIcESaIcEEESt6vectorIS6_SaIS6_EEEENS_17__normal_iteratorIT_T0_E15difference_typeERKSE_SH_	0000000000000000 .text._ZN9__gnu_cxxmiIPNSt7__cxx1112basic_stringIcSt11char_traitsIcESaIcEEESt6vectorIS6_SaIS6_EEEENS_17__normal_iteratorIT_T0_E15difference_typeERKSE_SH_
0000000000000000 l    d  .text._ZNSt12_Vector_baseINSt7__cxx1112basic_stringIcSt11char_traitsIcESaIcEEESaIS5_EE11_M_allocateEm	0000000000000000 .text._ZNSt12_Vector_baseINSt7__cxx1112basic_stringIcSt11char_traitsIcESaIcEEESaIS5_EE11_M_allocateEm
0000000000000000 l    d  .text._ZNSt6vectorINSt7__cxx1112basic_stringIcSt11char_traitsIcESaIcEEESaIS5_EE11_S_relocateEPS5_S8_S8_RS6_	0000000000000000 .text._ZNSt6vectorINSt7__cxx1112basic_stringIcSt11char_traitsIcESaIcEEESaIS5_EE11_S_relocateEPS5_S8_S8_RS6_
0000000000000000 l    d  .text._ZSt34__uninitialized_move_if_noexcept_aIPNSt7__cxx1112basic_stringIcSt11char_traitsIcESaIcEEES6_SaIS5_EET0_T_S9_S8_RT1_	0000000000000000 .text._ZSt34__uninitialized_move_if_noexcept_aIPNSt7__cxx1112basic_stringIcSt11char_traitsIcESaIcEEES6_SaIS5_EET0_T_S9_S8_RT1_
0000000000000000 l    d  .text._ZNKSt8_Rb_treeINSt7__cxx1112basic_stringIcSt11char_traitsIcESaIcEEESt4pairIKS5_dESt10_Select1stIS8_ESt4lessIS5_ESaIS8_EE8_M_beginEv	0000000000000000 .text._ZNKSt8_Rb_treeINSt7__cxx1112basic_stringIcSt11char_traitsIcESaIcEEESt4pairIKS5_dESt10_Select1stIS8_ESt4lessIS5_ESaIS8_EE8_M_beginEv
0000000000000000 l    d  .text._ZNKSt8_Rb_treeINSt7__cxx1112basic_stringIcSt11char_traitsIcESaIcEEESt4pairIKS5_dESt10_Select1stIS8_ESt4lessIS5_ESaIS8_EE6_M_endEv	0000000000000000 .text._ZNKSt8_Rb_treeINSt7__cxx1112basic_stringIcSt11char_traitsIcESaIcEEESt4pairIKS5_dESt10_Select1stIS8_ESt4lessIS5_ESaIS8_EE6_M_endEv
0000000000000000 l    d  .text._ZNKSt8_Rb_treeINSt7__cxx1112basic_stringIcSt11char_traitsIcESaIcEEESt4pairIKS5_dESt10_Select1stIS8_ESt4lessIS5_ESaIS8_EE14_M_lower_boundEPKSt13_Rb_tree_nodeIS8_EPKSt18_Rb_tree_node_baseRS7_	0000000000000000 .text._ZNKSt8_Rb_treeINSt7__cxx1112basic_stringIcSt11char_traitsIcESaIcEEESt4pairIKS5_dESt10_Select1stIS8_ESt4lessIS5_ESaIS8_EE14_M_lower_boundEPKSt13_Rb_tree_nodeIS8_EPKSt18_Rb_tree_node_baseRS7_
0000000000000000 l    d  .text._ZNSt8_Rb_treeINSt7__cxx1112basic_stringIcSt11char_traitsIcESaIcEEESt4pairIKS5_dESt10_Select1stIS8_ESt4lessIS5_ESaIS8_EE6_S_keyEPKSt18_Rb_tree_node_base	0000000000000000 .text._ZNSt8_Rb_treeINSt7__cxx1112basic_stringIcSt11char_traitsIcESaIcEEESt4pairIKS5_dESt10_Select1stIS8_ESt4lessIS5_ESaIS8_EE6_S_keyEPKSt18_Rb_tree_node_base
0000000000000000 l    d  .text._ZNK9__gnu_cxx16__aligned_membufISt4pairIKNSt7__cxx1112basic_stringIcSt11char_traitsIcESaIcEEEdEE6_M_ptrEv	0000000000000000 .text._ZNK9__gnu_cxx16__aligned_membufISt4pairIKNSt7__cxx1112basic_stringIcSt11char_traitsIcESaIcEEEdEE6_M_ptrEv
0000000000000000 l    d  .text._ZNSt12_Vector_baseIdSaIdEE12_Vector_implC2ERKS0_	0000000000000000 .text._ZNSt12_Vector_baseIdSaIdEE12_Vector_implC2ERKS0_
0000000000000000 l    d  .text._ZNKSt16initializer_listIdE4sizeEv	0000000000000000 .text._ZNKSt16initializer_listIdE4sizeEv
0000000000000000 l    d  .text._ZNSt6vectorIdSaIdEE17_S_check_init_lenEmRKS0_	0000000000000000 .text._ZNSt6vectorIdSaIdEE17_S_check_init_lenEmRKS0_
0000000000000000 l    d  .text._ZNSt12_Vector_baseIdSaIdEE11_M_allocateEm	0000000000000000 .text._ZNSt12_Vector_baseIdSaIdEE11_M_allocateEm
0000000000000000 l    d  .text._ZSt22__uninitialized_copy_aIPKdPddET0_T_S4_S3_RSaIT1_E	0000000000000000 .text._ZSt22__uninitialized_copy_aIPKdPddET0_T_S4_S3_RSaIT1_E
0000000000000000 l    d  .text._ZSt8_DestroyIPdEvT_S1_	0000000000000000 .text._ZSt8_DestroyIPdEvT_S1_
0000000000000000 l    d  .text._ZNSt8_Rb_treeINSt7__cxx1112basic_stringIcSt11char_traitsIcESaIcEEESt4pairIKS5_N8tinygltf9ParameterEESt10_Select1stISA_ESt4lessIS5_ESaISA_EE8_S_rightEPSt18_Rb_tree_node_base	0000000000000000 .text._ZNSt8_Rb_treeINSt7__cxx1112basic_stringIcSt11char_traitsIcESaIcEEESt4pairIKS5_N8tinygltf9ParameterEESt10_Select1stISA_ESt4lessIS5_ESaISA_EE8_S_rightEPSt18_Rb_tree_node_base
0000000000000000 l    d  .text._ZNSt8_Rb_treeINSt7__cxx1112basic_stringIcSt11char_traitsIcESaIcEEESt4pairIKS5_N8tinygltf9ParameterEESt10_Select1stISA_ESt4lessIS5_ESaISA_EE7_S_leftEPSt18_Rb_tree_node_base	0000000000000000 .text._ZNSt8_Rb_treeINSt7__cxx1112basic_stringIcSt11char_traitsIcESaIcEEESt4pairIKS5_N8tinygltf9ParameterEESt10_Select1stISA_ESt4lessIS5_ESaISA_EE7_S_leftEPSt18_Rb_tree_node_base
0000000000000000 l    d  .text._ZNSt8_Rb_treeINSt7__cxx1112basic_stringIcSt11char_traitsIcESaIcEEESt4pairIKS5_N8tinygltf9ParameterEESt10_Select1stISA_ESt4lessIS5_ESaISA_EE12_M_drop_nodeEPSt13_Rb_tree_nodeISA_E	0000000000000000 .text._ZNSt8_Rb_treeINSt7__cxx1112basic_stringIcSt11char_traitsIcESaIcEEESt4pairIKS5_N8tinygltf9ParameterEESt10_Select1stISA_ESt4lessIS5_ESaISA_EE12_M_drop_nodeEPSt13_Rb_tree_nodeISA_E
0000000000000000 l    d  .text._ZNKSt8_Rb_treeINSt7__cxx1112basic_stringIcSt11char_traitsIcESaIcEEESt4pairIKS5_N8tinygltf9ParameterEESt10_Select1stISA_ESt4lessIS5_ESaISA_EE9_M_mbeginEv	0000000000000000 .text._ZNKSt8_Rb_treeINSt7__cxx1112basic_stringIcSt11char_traitsIcESaIcEEESt4pairIKS5_N8tinygltf9ParameterEESt10_Select1stISA_ESt4lessIS5_ESaISA_EE9_M_mbeginEv
0000000000000000 l    d  .text._ZN9__gnu_cxx17__normal_iteratorIPKhSt6vectorIhSaIhEEEC2ERKS2_	0000000000000000 .text._ZN9__gnu_cxx17__normal_iteratorIPKhSt6vectorIhSaIhEEEC2ERKS2_
0000000000000000 l    d  .text._ZNK9__gnu_cxx17__normal_iteratorIPKhSt6vectorIhSaIhEEE4baseEv	0000000000000000 .text._ZNK9__gnu_cxx17__normal_iteratorIPKhSt6vectorIhSaIhEEE4baseEv
0000000000000000 l    d  .text._ZN8nlohmann6detail30iterator_input_adapter_factoryIPKcvE6createES3_S3_	0000000000000000 .text._ZN8nlohmann6detail30iterator_input_adapter_factoryIPKcvE6createES3_S3_
0000000000000000 l    d  .text._ZSt4moveIRSt8functionIFbiN8nlohmann6detail13parse_event_tERNS1_10basic_jsonISt3mapSt6vectorNSt7__cxx1112basic_stringIcSt11char_traitsIcESaIcEEEblmdSaNS1_14adl_serializerES6_IhSaIhEEEEEEEONSt16remove_referenceIT_E4typeEOSM_	0000000000000000 .text._ZSt4moveIRSt8functionIFbiN8nlohmann6detail13parse_event_tERNS1_10basic_jsonISt3mapSt6vectorNSt7__cxx1112basic_stringIcSt11char_traitsIcESaIcEEEblmdSaNS1_14adl_serializerES6_IhSaIhEEEEEEEONSt16remove_referenceIT_E4typeEOSM_
0000000000000000 l    d  .text._ZN8nlohmann6detail6parserINS_10basic_jsonISt3mapSt6vectorNSt7__cxx1112basic_stringIcSt11char_traitsIcESaIcEEEblmdSaNS_14adl_serializerES4_IhSaIhEEEENS0_22iterator_input_adapterIPKcEEEC2EOSI_St8functionIFbiNS0_13parse_event_tERSE_EEbb	0000000000000000 .text._ZN8nlohmann6detail6parserINS_10basic_jsonISt3mapSt6vectorNSt7__cxx1112basic_stringIcSt11char_traitsIcESaIcEEEblmdSaNS_14adl_serializerES4_IhSaIhEEEENS0_22iterator_input_adapterIPKcEEEC2EOSI_St8functionIFbiNS0_13parse_event_tERSE_EEbb
0000000000000000 l    d  .text._ZNSt12_Vector_baseIcSaIcEED2Ev	0000000000000000 .text._ZNSt12_Vector_baseIcSaIcEED2Ev
0000000000000000 l    d  .text._ZNSt12_Vector_baseIcSaIcEE19_M_get_Tp_allocatorEv	0000000000000000 .text._ZNSt12_Vector_baseIcSaIcEE19_M_get_Tp_allocatorEv
0000000000000000 l    d  .text._ZNSt12_Vector_baseIPN8nlohmann10basic_jsonISt3mapSt6vectorNSt7__cxx1112basic_stringIcSt11char_traitsIcESaIcEEEblmdSaNS0_14adl_serializerES3_IhSaIhEEEESaISE_EE12_Vector_implD2Ev	0000000000000000 .text._ZNSt12_Vector_baseIPN8nlohmann10basic_jsonISt3mapSt6vectorNSt7__cxx1112basic_stringIcSt11char_traitsIcESaIcEEEblmdSaNS0_14adl_serializerES3_IhSaIhEEEESaISE_EE12_Vector_implD2Ev
0000000000000000 l    d  .text._ZNSt12_Vector_baseIPN8nlohmann10basic_jsonISt3mapSt6vectorNSt7__cxx1112basic_stringIcSt11char_traitsIcESaIcEEEblmdSaNS0_14adl_serializerES3_IhSaIhEEEESaISE_EEC2Ev	0000000000000000 .text._ZNSt12_Vector_baseIPN8nlohmann10basic_jsonISt3mapSt6vectorNSt7__cxx1112basic_stringIcSt11char_traitsIcESaIcEEEblmdSaNS0_14adl_serializerES3_IhSaIhEEEESaISE_EEC2Ev
0000000000000000 l    d  .text._ZNSt6vectorIPN8nlohmann10basic_jsonISt3mapS_NSt7__cxx1112basic_stringIcSt11char_traitsIcESaIcEEEblmdSaNS0_14adl_serializerES_IhSaIhEEEESaISD_EEC2Ev	0000000000000000 .text._ZNSt6vectorIPN8nlohmann10basic_jsonISt3mapS_NSt7__cxx1112basic_stringIcSt11char_traitsIcESaIcEEEblmdSaNS0_14adl_serializerES_IhSaIhEEEESaISD_EEC2Ev
0000000000000000 l    d  .text._ZNSt13_Bvector_baseISaIbEE13_Bvector_implD2Ev	0000000000000000 .text._ZNSt13_Bvector_baseISaIbEE13_Bvector_implD2Ev
0000000000000000 l    d  .text._ZNSt13_Bvector_baseISaIbEEC2Ev	0000000000000000 .text._ZNSt13_Bvector_baseISaIbEEC2Ev
0000000000000000 l    d  .text._ZNSt6vectorIbSaIbEEC2Ev	0000000000000000 .text._ZNSt6vectorIbSaIbEEC2Ev
0000000000000000 l    d  .text._ZN8nlohmann6detail28json_sax_dom_callback_parserINS_10basic_jsonISt3mapSt6vectorNSt7__cxx1112basic_stringIcSt11char_traitsIcESaIcEEEblmdSaNS_14adl_serializerES4_IhSaIhEEEEEC2ERSE_St8functionIFbiNS0_13parse_event_tESG_EEb	0000000000000000 .text._ZN8nlohmann6detail28json_sax_dom_callback_parserINS_10basic_jsonISt3mapSt6vectorNSt7__cxx1112basic_stringIcSt11char_traitsIcESaIcEEEblmdSaNS_14adl_serializerES4_IhSaIhEEEEEC2ERSE_St8functionIFbiNS0_13parse_event_tESG_EEb
0000000000000000 l    d  .text._ZNSt6vectorIPN8nlohmann10basic_jsonISt3mapS_NSt7__cxx1112basic_stringIcSt11char_traitsIcESaIcEEEblmdSaNS0_14adl_serializerES_IhSaIhEEEESaISD_EED2Ev	0000000000000000 .text._ZNSt6vectorIPN8nlohmann10basic_jsonISt3mapS_NSt7__cxx1112basic_stringIcSt11char_traitsIcESaIcEEEblmdSaNS0_14adl_serializerES_IhSaIhEEEESaISD_EED2Ev
0000000000000000 l    d  .text._ZNSt6vectorIbSaIbEED2Ev	0000000000000000 .text._ZNSt6vectorIbSaIbEED2Ev
0000000000000000 l    d  .text._ZN8nlohmann6detail12out_of_rangeD2Ev	0000000000000000 .text._ZN8nlohmann6detail12out_of_rangeD2Ev
0000000000000000 l    d  .text._ZN8nlohmann6detail12out_of_rangeD0Ev	0000000000000000 .text._ZN8nlohmann6detail12out_of_rangeD0Ev
0000000000000000 l    d  .text._ZN8nlohmann6detail6parserINS_10basic_jsonISt3mapSt6vectorNSt7__cxx1112basic_stringIcSt11char_traitsIcESaIcEEEblmdSaNS_14adl_serializerES4_IhSaIhEEEENS0_22iterator_input_adapterIPKcEEE18sax_parse_internalINS0_28json_sax_dom_callback_parserISE_EEEEbPT_	0000000000000000 .text._ZN8nlohmann6detail6parserINS_10basic_jsonISt3mapSt6vectorNSt7__cxx1112basic_stringIcSt11char_traitsIcESaIcEEEblmdSaNS_14adl_serializerES4_IhSaIhEEEENS0_22iterator_input_adapterIPKcEEE18sax_parse_internalINS0_28json_sax_dom_callback_parserISE_EEEEbPT_
0000000000000000 l    d  .rodata._ZN8nlohmann6detail6parserINS_10basic_jsonISt3mapSt6vectorNSt7__cxx1112basic_stringIcSt11char_traitsIcESaIcEEEblmdSaNS_14adl_serializerES4_IhSaIhEEEENS0_22iterator_input_adapterIPKcEEE18sax_parse_internalINS0_28json_sax_dom_callback_parserISE_EEEEbPT_	0000000000000000 .rodata._ZN8nlohmann6detail6parserINS_10basic_jsonISt3mapSt6vectorNSt7__cxx1112basic_stringIcSt11char_traitsIcESaIcEEEblmdSaNS_14adl_serializerES4_IhSaIhEEEENS0_22iterator_input_adapterIPKcEEE18sax_parse_internalINS0_28json_sax_dom_callback_parserISE_EEEEbPT_
0000000000000000 l    d  .text._ZN8nlohmann6detail6parserINS_10basic_jsonISt3mapSt6vectorNSt7__cxx1112basic_stringIcSt11char_traitsIcESaIcEEEblmdSaNS_14adl_serializerES4_IhSaIhEEEENS0_22iterator_input_adapterIPKcEEE9get_tokenEv	0000000000000000 .text._ZN8nlohmann6detail6parserINS_10basic_jsonISt3mapSt6vectorNSt7__cxx1112basic_stringIcSt11char_traitsIcESaIcEEEblmdSaNS_14adl_serializerES4_IhSaIhEEEENS0_22iterator_input_adapterIPKcEEE9get_tokenEv
0000000000000000 l    d  .text._ZNK8nlohmann6detail5lexerINS_10basic_jsonISt3mapSt6vectorNSt7__cxx1112basic_stringIcSt11char_traitsIcESaIcEEEblmdSaNS_14adl_serializerES4_IhSaIhEEEENS0_22iterator_input_adapterIPKcEEE12get_positionEv	0000000000000000 .text._ZNK8nlohmann6detail5lexerINS_10basic_jsonISt3mapSt6vectorNSt7__cxx1112basic_stringIcSt11char_traitsIcESaIcEEEblmdSaNS_14adl_serializerES4_IhSaIhEEEENS0_22iterator_input_adapterIPKcEEE12get_positionEv
0000000000000000 l    d  .text._ZNK8nlohmann6detail5lexerINS_10basic_jsonISt3mapSt6vectorNSt7__cxx1112basic_stringIcSt11char_traitsIcESaIcEEEblmdSaNS_14adl_serializerES4_IhSaIhEEEENS0_22iterator_input_adapterIPKcEEE16get_token_stringEv	0000000000000000 .text._ZNK8nlohmann6detail5lexerINS_10basic_jsonISt3mapSt6vectorNSt7__cxx1112basic_stringIcSt11char_traitsIcESaIcEEEblmdSaNS_14adl_serializerES4_IhSaIhEEEENS0_22iterator_input_adapterIPKcEEE16get_token_stringEv
0000000000000000 l    d  .text._ZN8nlohmann6detail6parserINS_10basic_jsonISt3mapSt6vectorNSt7__cxx1112basic_stringIcSt11char_traitsIcESaIcEEEblmdSaNS_14adl_serializerES4_IhSaIhEEEENS0_22iterator_input_adapterIPKcEEE17exception_messageENS0_10lexer_baseISE_E10token_typeERKSA_	0000000000000000 .text._ZN8nlohmann6detail6parserINS_10basic_jsonISt3mapSt6vectorNSt7__cxx1112basic_stringIcSt11char_traitsIcESaIcEEEblmdSaNS_14adl_serializerES4_IhSaIhEEEENS0_22iterator_input_adapterIPKcEEE17exception_messageENS0_10lexer_baseISE_E10token_typeERKSA_
0000000000000000 l    d  .text._ZN8nlohmann6detail11parse_error6createINS_10basic_jsonISt3mapSt6vectorNSt7__cxx1112basic_stringIcSt11char_traitsIcESaIcEEEblmdSaNS_14adl_serializerES5_IhSaIhEEEEEES1_iRKNS0_10position_tERKSB_RKT_	0000000000000000 .text._ZN8nlohmann6detail11parse_error6createINS_10basic_jsonISt3mapSt6vectorNSt7__cxx1112basic_stringIcSt11char_traitsIcESaIcEEEblmdSaNS_14adl_serializerES5_IhSaIhEEEEEES1_iRKNS0_10position_tERKSB_RKT_
0000000000000000 l    d  .text._ZN8nlohmann6detail9exceptionC2ERKS1_	0000000000000000 .text._ZN8nlohmann6detail9exceptionC2ERKS1_
0000000000000000 l    d  .text._ZN8nlohmann6detail11parse_errorC2ERKS1_	0000000000000000 .text._ZN8nlohmann6detail11parse_errorC2ERKS1_
0000000000000000 l    d  .text._ZN8nlohmann6detail28json_sax_dom_callback_parserINS_10basic_jsonISt3mapSt6vectorNSt7__cxx1112basic_stringIcSt11char_traitsIcESaIcEEEblmdSaNS_14adl_serializerES4_IhSaIhEEEEE11parse_errorINS0_11parse_errorEEEbmRKSA_RKT_	0000000000000000 .text._ZN8nlohmann6detail28json_sax_dom_callback_parserINS_10basic_jsonISt3mapSt6vectorNSt7__cxx1112basic_stringIcSt11char_traitsIcESaIcEEEblmdSaNS_14adl_serializerES4_IhSaIhEEEEE11parse_errorINS0_11parse_errorEEEbmRKSA_RKT_
0000000000000000 l    d  .text._ZNK8nlohmann6detail28json_sax_dom_callback_parserINS_10basic_jsonISt3mapSt6vectorNSt7__cxx1112basic_stringIcSt11char_traitsIcESaIcEEEblmdSaNS_14adl_serializerES4_IhSaIhEEEEE10is_erroredEv	0000000000000000 .text._ZNK8nlohmann6detail28json_sax_dom_callback_parserINS_10basic_jsonISt3mapSt6vectorNSt7__cxx1112basic_stringIcSt11char_traitsIcESaIcEEEblmdSaNS_14adl_serializerES4_IhSaIhEEEEE10is_erroredEv
0000000000000000 l    d  .text._ZNK8nlohmann10basic_jsonISt3mapSt6vectorNSt7__cxx1112basic_stringIcSt11char_traitsIcESaIcEEEblmdSaNS_14adl_serializerES2_IhSaIhEEE12is_discardedEv	0000000000000000 .text._ZNK8nlohmann10basic_jsonISt3mapSt6vectorNSt7__cxx1112basic_stringIcSt11char_traitsIcESaIcEEEblmdSaNS_14adl_serializerES2_IhSaIhEEE12is_discardedEv
0000000000000000 l    d  .text._ZN8nlohmann6detail19json_sax_dom_parserINS_10basic_jsonISt3mapSt6vectorNSt7__cxx1112basic_stringIcSt11char_traitsIcESaIcEEEblmdSaNS_14adl_serializerES4_IhSaIhEEEEEC2ERSE_b	0000000000000000 .text._ZN8nlohmann6detail19json_sax_dom_parserINS_10basic_jsonISt3mapSt6vectorNSt7__cxx1112basic_stringIcSt11char_traitsIcESaIcEEEblmdSaNS_14adl_serializerES4_IhSaIhEEEEEC2ERSE_b
0000000000000000 l    d  .text._ZN8nlohmann6detail6parserINS_10basic_jsonISt3mapSt6vectorNSt7__cxx1112basic_stringIcSt11char_traitsIcESaIcEEEblmdSaNS_14adl_serializerES4_IhSaIhEEEENS0_22iterator_input_adapterIPKcEEE18sax_parse_internalINS0_19json_sax_dom_parserISE_EEEEbPT_	0000000000000000 .text._ZN8nlohmann6detail6parserINS_10basic_jsonISt3mapSt6vectorNSt7__cxx1112basic_stringIcSt11char_traitsIcESaIcEEEblmdSaNS_14adl_serializerES4_IhSaIhEEEENS0_22iterator_input_adapterIPKcEEE18sax_parse_internalINS0_19json_sax_dom_parserISE_EEEEbPT_
0000000000000000 l    d  .rodata._ZN8nlohmann6detail6parserINS_10basic_jsonISt3mapSt6vectorNSt7__cxx1112basic_stringIcSt11char_traitsIcESaIcEEEblmdSaNS_14adl_serializerES4_IhSaIhEEEENS0_22iterator_input_adapterIPKcEEE18sax_parse_internalINS0_19json_sax_dom_parserISE_EEEEbPT_	0000000000000000 .rodata._ZN8nlohmann6detail6parserINS_10basic_jsonISt3mapSt6vectorNSt7__cxx1112basic_stringIcSt11char_traitsIcESaIcEEEblmdSaNS_14adl_serializerES4_IhSaIhEEEENS0_22iterator_input_adapterIPKcEEE18sax_parse_internalINS0_19json_sax_dom_parserISE_EEEEbPT_
0000000000000000 l    d  .text._ZN8nlohmann6detail19json_sax_dom_parserINS_10basic_jsonISt3mapSt6vectorNSt7__cxx1112basic_stringIcSt11char_traitsIcESaIcEEEblmdSaNS_14adl_serializerES4_IhSaIhEEEEE11parse_errorINS0_11parse_errorEEEbmRKSA_RKT_	0000000000000000 .text._ZN8nlohmann6detail19json_sax_dom_parserINS_10basic_jsonISt3mapSt6vectorNSt7__cxx1112basic_stringIcSt11char_traitsIcESaIcEEEblmdSaNS_14adl_serializerES4_IhSaIhEEEEE11parse_errorINS0_11parse_errorEEEbmRKSA_RKT_
0000000000000000 l    d  .text._ZNK8nlohmann6detail19json_sax_dom_parserINS_10basic_jsonISt3mapSt6vectorNSt7__cxx1112basic_stringIcSt11char_traitsIcESaIcEEEblmdSaNS_14adl_serializerES4_IhSaIhEEEEE10is_erroredEv	0000000000000000 .text._ZNK8nlohmann6detail19json_sax_dom_parserINS_10basic_jsonISt3mapSt6vectorNSt7__cxx1112basic_stringIcSt11char_traitsIcESaIcEEEblmdSaNS_14adl_serializerES4_IhSaIhEEEEE10is_erroredEv
0000000000000000 l    d  .text._ZNSt12_Vector_baseIN8nlohmann10basic_jsonISt3mapSt6vectorNSt7__cxx1112basic_stringIcSt11char_traitsIcESaIcEEEblmdSaNS0_14adl_serializerES3_IhSaIhEEEESaISD_EE12_Vector_implC2Ev	0000000000000000 .text._ZNSt12_Vector_baseIN8nlohmann10basic_jsonISt3mapSt6vectorNSt7__cxx1112basic_stringIcSt11char_traitsIcESaIcEEEblmdSaNS0_14adl_serializerES3_IhSaIhEEEESaISD_EE12_Vector_implC2Ev
0000000000000000 l    d  .text._ZNSt12_Vector_baseIN8nlohmann10basic_jsonISt3mapSt6vectorNSt7__cxx1112basic_stringIcSt11char_traitsIcESaIcEEEblmdSaNS0_14adl_serializerES3_IhSaIhEEEESaISD_EED2Ev	0000000000000000 .text._ZNSt12_Vector_baseIN8nlohmann10basic_jsonISt3mapSt6vectorNSt7__cxx1112basic_stringIcSt11char_traitsIcESaIcEEEblmdSaNS0_14adl_serializerES3_IhSaIhEEEESaISD_EED2Ev
0000000000000000 l    d  .text._ZNSt6vectorIN8nlohmann10basic_jsonISt3mapS_NSt7__cxx1112basic_stringIcSt11char_traitsIcESaIcEEEblmdSaNS0_14adl_serializerES_IhSaIhEEEESaISC_EED2Ev	0000000000000000 .text._ZNSt6vectorIN8nlohmann10basic_jsonISt3mapS_NSt7__cxx1112basic_stringIcSt11char_traitsIcESaIcEEEblmdSaNS0_14adl_serializerES_IhSaIhEEEESaISC_EED2Ev
0000000000000000 l    d  .text._ZNSt6vectorIN8nlohmann10basic_jsonISt3mapS_NSt7__cxx1112basic_stringIcSt11char_traitsIcESaIcEEEblmdSaNS0_14adl_serializerES_IhSaIhEEEESaISC_EE15_S_use_relocateEv	0000000000000000 .text._ZNSt6vectorIN8nlohmann10basic_jsonISt3mapS_NSt7__cxx1112basic_stringIcSt11char_traitsIcESaIcEEEblmdSaNS0_14adl_serializerES_IhSaIhEEEESaISC_EE15_S_use_relocateEv
0000000000000000 l    d  .text._ZNSt6vectorIN8nlohmann10basic_jsonISt3mapS_NSt7__cxx1112basic_stringIcSt11char_traitsIcESaIcEEEblmdSaNS0_14adl_serializerES_IhSaIhEEEESaISC_EE19_S_nothrow_relocateESt17integral_constantIbLb1EE	0000000000000000 .text._ZNSt6vectorIN8nlohmann10basic_jsonISt3mapS_NSt7__cxx1112basic_stringIcSt11char_traitsIcESaIcEEEblmdSaNS0_14adl_serializerES_IhSaIhEEEESaISC_EE19_S_nothrow_relocateESt17integral_constantIbLb1EE
0000000000000000 l    d  .text._ZNSt6vectorIN8nlohmann10basic_jsonISt3mapS_NSt7__cxx1112basic_stringIcSt11char_traitsIcESaIcEEEblmdSaNS0_14adl_serializerES_IhSaIhEEEESaISC_EE7reserveEm	0000000000000000 .text._ZNSt6vectorIN8nlohmann10basic_jsonISt3mapS_NSt7__cxx1112basic_stringIcSt11char_traitsIcESaIcEEEblmdSaNS0_14adl_serializerES_IhSaIhEEEESaISC_EE7reserveEm
0000000000000000 l    d  .text._ZNSt6vectorIN8nlohmann10basic_jsonISt3mapS_NSt7__cxx1112basic_stringIcSt11char_traitsIcESaIcEEEblmdSaNS0_14adl_serializerES_IhSaIhEEEESaISC_EE5beginEv	0000000000000000 .text._ZNSt6vectorIN8nlohmann10basic_jsonISt3mapS_NSt7__cxx1112basic_stringIcSt11char_traitsIcESaIcEEEblmdSaNS0_14adl_serializerES_IhSaIhEEEESaISC_EE5beginEv
0000000000000000 l    d  .text._ZSt13back_inserterISt6vectorIN8nlohmann10basic_jsonISt3mapS0_NSt7__cxx1112basic_stringIcSt11char_traitsIcESaIcEEEblmdSaNS1_14adl_serializerES0_IhSaIhEEEESaISD_EEESt20back_insert_iteratorIT_ERSH_	0000000000000000 .text._ZSt13back_inserterISt6vectorIN8nlohmann10basic_jsonISt3mapS0_NSt7__cxx1112basic_stringIcSt11char_traitsIcESaIcEEEblmdSaNS1_14adl_serializerES0_IhSaIhEEEESaISD_EEESt20back_insert_iteratorIT_ERSH_
0000000000000000 l    d  .text._ZSt4moveIN9__gnu_cxx17__normal_iteratorIPN8nlohmann10basic_jsonISt3mapSt6vectorNSt7__cxx1112basic_stringIcSt11char_traitsIcESaIcEEEblmdSaNS2_14adl_serializerES5_IhSaIhEEEES5_ISF_SaISF_EEEESt20back_insert_iteratorISI_EET0_T_SN_SM_	0000000000000000 .text._ZSt4moveIN9__gnu_cxx17__normal_iteratorIPN8nlohmann10basic_jsonISt3mapSt6vectorNSt7__cxx1112basic_stringIcSt11char_traitsIcESaIcEEEblmdSaNS2_14adl_serializerES5_IhSaIhEEEES5_ISF_SaISF_EEEESt20back_insert_iteratorISI_EET0_T_SN_SM_
0000000000000000 l    d  .text._ZNSt3mapINSt7__cxx1112basic_stringIcSt11char_traitsIcESaIcEEEN8nlohmann10basic_jsonIS_St6vectorS5_blmdSaNS6_14adl_serializerES8_IhSaIhEEEESt4lessIS5_ESaISt4pairIKS5_SC_EEE5beginEv	0000000000000000 .text._ZNSt3mapINSt7__cxx1112basic_stringIcSt11char_traitsIcESaIcEEEN8nlohmann10basic_jsonIS_St6vectorS5_blmdSaNS6_14adl_serializerES8_IhSaIhEEEESt4lessIS5_ESaISt4pairIKS5_SC_EEE5beginEv
0000000000000000 l    d  .text._ZNSt17_Rb_tree_iteratorISt4pairIKNSt7__cxx1112basic_stringIcSt11char_traitsIcESaIcEEEN8nlohmann10basic_jsonISt3mapSt6vectorS6_blmdSaNS8_14adl_serializerESB_IhSaIhEEEEEEppEv	0000000000000000 .text._ZNSt17_Rb_tree_iteratorISt4pairIKNSt7__cxx1112basic_stringIcSt11char_traitsIcESaIcEEEN8nlohmann10basic_jsonISt3mapSt6vectorS6_blmdSaNS8_14adl_serializerESB_IhSaIhEEEEEEppEv
0000000000000000 l    d  .text._ZNKSt17_Rb_tree_iteratorISt4pairIKNSt7__cxx1112basic_stringIcSt11char_traitsIcESaIcEEEN8nlohmann10basic_jsonISt3mapSt6vectorS6_blmdSaNS8_14adl_serializerESB_IhSaIhEEEEEEdeEv	0000000000000000 .text._ZNKSt17_Rb_tree_iteratorISt4pairIKNSt7__cxx1112basic_stringIcSt11char_traitsIcESaIcEEEN8nlohmann10basic_jsonISt3mapSt6vectorS6_blmdSaNS8_14adl_serializerESB_IhSaIhEEEEEEdeEv
0000000000000000 l    d  .text._ZNSt6vectorIN8nlohmann10basic_jsonISt3mapS_NSt7__cxx1112basic_stringIcSt11char_traitsIcESaIcEEEblmdSaNS0_14adl_serializerES_IhSaIhEEEESaISC_EE8pop_backEv	0000000000000000 .text._ZNSt6vectorIN8nlohmann10basic_jsonISt3mapS_NSt7__cxx1112basic_stringIcSt11char_traitsIcESaIcEEEblmdSaNS0_14adl_serializerES_IhSaIhEEEESaISC_EE8pop_backEv
0000000000000000 l    d  .text._ZNSt6vectorIN8nlohmann10basic_jsonISt3mapS_NSt7__cxx1112basic_stringIcSt11char_traitsIcESaIcEEEblmdSaNS0_14adl_serializerES_IhSaIhEEEESaISC_EE5clearEv	0000000000000000 .text._ZNSt6vectorIN8nlohmann10basic_jsonISt3mapS_NSt7__cxx1112basic_stringIcSt11char_traitsIcESaIcEEEblmdSaNS0_14adl_serializerES_IhSaIhEEEESaISC_EE5clearEv
0000000000000000 l    d  .text._ZNSt3mapINSt7__cxx1112basic_stringIcSt11char_traitsIcESaIcEEEN8nlohmann10basic_jsonIS_St6vectorS5_blmdSaNS6_14adl_serializerES8_IhSaIhEEEESt4lessIS5_ESaISt4pairIKS5_SC_EEE5clearEv	0000000000000000 .text._ZNSt3mapINSt7__cxx1112basic_stringIcSt11char_traitsIcESaIcEEEN8nlohmann10basic_jsonIS_St6vectorS5_blmdSaNS6_14adl_serializerES8_IhSaIhEEEESt4lessIS5_ESaISt4pairIKS5_SC_EEE5clearEv
0000000000000000 l    d  .text._ZNSt20_Rb_tree_key_compareISt4lessINSt7__cxx1112basic_stringIcSt11char_traitsIcESaIcEEEEEC2ERKS7_	0000000000000000 .text._ZNSt20_Rb_tree_key_compareISt4lessINSt7__cxx1112basic_stringIcSt11char_traitsIcESaIcEEEEEC2ERKS7_
0000000000000000 l    d  .text._ZNSt8_Rb_treeINSt7__cxx1112basic_stringIcSt11char_traitsIcESaIcEEESt4pairIKS5_N8tinygltf5ValueEESt10_Select1stISA_ESt4lessIS5_ESaISA_EE11_Alloc_nodeC2ERSG_	0000000000000000 .text._ZNSt8_Rb_treeINSt7__cxx1112basic_stringIcSt11char_traitsIcESaIcEEESt4pairIKS5_N8tinygltf5ValueEESt10_Select1stISA_ESt4lessIS5_ESaISA_EE11_Alloc_nodeC2ERSG_
0000000000000000 l    d  .text._ZNSt8_Rb_treeINSt7__cxx1112basic_stringIcSt11char_traitsIcESaIcEEESt4pairIKS5_N8tinygltf5ValueEESt10_Select1stISA_ESt4lessIS5_ESaISA_EE7_M_copyILb0ENSG_11_Alloc_nodeEEEPSt13_Rb_tree_nodeISA_ERKSG_RT0_	0000000000000000 .text._ZNSt8_Rb_treeINSt7__cxx1112basic_stringIcSt11char_traitsIcESaIcEEESt4pairIKS5_N8tinygltf5ValueEESt10_Select1stISA_ESt4lessIS5_ESaISA_EE7_M_copyILb0ENSG_11_Alloc_nodeEEEPSt13_Rb_tree_nodeISA_ERKSG_RT0_
0000000000000000 l    d  .text._ZNSt17_Rb_tree_iteratorISt4pairIKNSt7__cxx1112basic_stringIcSt11char_traitsIcESaIcEEEN8tinygltf5ValueEEEC2EPSt18_Rb_tree_node_base	0000000000000000 .text._ZNSt17_Rb_tree_iteratorISt4pairIKNSt7__cxx1112basic_stringIcSt11char_traitsIcESaIcEEEN8tinygltf5ValueEEEC2EPSt18_Rb_tree_node_base
0000000000000000 l    d  .text._ZN9__gnu_cxx16__aligned_membufISt4pairIKNSt7__cxx1112basic_stringIcSt11char_traitsIcESaIcEEEN8tinygltf5ValueEEE6_M_ptrEv	0000000000000000 .text._ZN9__gnu_cxx16__aligned_membufISt4pairIKNSt7__cxx1112basic_stringIcSt11char_traitsIcESaIcEEEN8tinygltf5ValueEEE6_M_ptrEv
0000000000000000 l    d  .text._ZNSt8_Rb_treeINSt7__cxx1112basic_stringIcSt11char_traitsIcESaIcEEESt4pairIKS5_N8tinygltf5ValueEESt10_Select1stISA_ESt4lessIS5_ESaISA_EE14_M_lower_boundEPSt13_Rb_tree_nodeISA_EPSt18_Rb_tree_node_baseRS7_	0000000000000000 .text._ZNSt8_Rb_treeINSt7__cxx1112basic_stringIcSt11char_traitsIcESaIcEEESt4pairIKS5_N8tinygltf5ValueEESt10_Select1stISA_ESt4lessIS5_ESaISA_EE14_M_lower_boundEPSt13_Rb_tree_nodeISA_EPSt18_Rb_tree_node_baseRS7_
0000000000000000 l    d  .text._ZSt11__equal_auxIN9__gnu_cxx17__normal_iteratorIPKhSt6vectorIhSaIhEEEES7_EbT_S8_T0_	0000000000000000 .text._ZSt11__equal_auxIN9__gnu_cxx17__normal_iteratorIPKhSt6vectorIhSaIhEEEES7_EbT_S8_T0_
0000000000000000 l    d  .text._ZSt5equalISt23_Rb_tree_const_iteratorISt4pairIKNSt7__cxx1112basic_stringIcSt11char_traitsIcESaIcEEEN8tinygltf5ValueEEESC_EbT_SD_T0_	0000000000000000 .text._ZSt5equalISt23_Rb_tree_const_iteratorISt4pairIKNSt7__cxx1112basic_stringIcSt11char_traitsIcESaIcEEEN8tinygltf5ValueEEESC_EbT_SD_T0_
0000000000000000 l    d  .text._ZN9__gnu_cxx17__normal_iteratorIPKN8tinygltf16AnimationChannelESt6vectorIS2_SaIS2_EEEC2ERKS4_	0000000000000000 .text._ZN9__gnu_cxx17__normal_iteratorIPKN8tinygltf16AnimationChannelESt6vectorIS2_SaIS2_EEEC2ERKS4_
0000000000000000 l    d  .text._ZSt11__equal_auxIN9__gnu_cxx17__normal_iteratorIPKN8tinygltf16AnimationChannelESt6vectorIS3_SaIS3_EEEES9_EbT_SA_T0_	0000000000000000 .text._ZSt11__equal_auxIN9__gnu_cxx17__normal_iteratorIPKN8tinygltf16AnimationChannelESt6vectorIS3_SaIS3_EEEES9_EbT_SA_T0_
0000000000000000 l    d  .text._ZN9__gnu_cxx17__normal_iteratorIPKN8tinygltf16AnimationSamplerESt6vectorIS2_SaIS2_EEEC2ERKS4_	0000000000000000 .text._ZN9__gnu_cxx17__normal_iteratorIPKN8tinygltf16AnimationSamplerESt6vectorIS2_SaIS2_EEEC2ERKS4_
0000000000000000 l    d  .text._ZSt11__equal_auxIN9__gnu_cxx17__normal_iteratorIPKN8tinygltf16AnimationSamplerESt6vectorIS3_SaIS3_EEEES9_EbT_SA_T0_	0000000000000000 .text._ZSt11__equal_auxIN9__gnu_cxx17__normal_iteratorIPKN8tinygltf16AnimationSamplerESt6vectorIS3_SaIS3_EEEES9_EbT_SA_T0_
0000000000000000 l    d  .text._ZNKSt8_Rb_treeINSt7__cxx1112basic_stringIcSt11char_traitsIcESaIcEEESt4pairIKS5_N8tinygltf9ParameterEESt10_Select1stISA_ESt4lessIS5_ESaISA_EE4sizeEv	0000000000000000 .text._ZNKSt8_Rb_treeINSt7__cxx1112basic_stringIcSt11char_traitsIcESaIcEEESt4pairIKS5_N8tinygltf9ParameterEESt10_Select1stISA_ESt4lessIS5_ESaISA_EE4sizeEv
0000000000000000 l    d  .text._ZNKSt8_Rb_treeINSt7__cxx1112basic_stringIcSt11char_traitsIcESaIcEEESt4pairIKS5_N8tinygltf9ParameterEESt10_Select1stISA_ESt4lessIS5_ESaISA_EE5beginEv	0000000000000000 .text._ZNKSt8_Rb_treeINSt7__cxx1112basic_stringIcSt11char_traitsIcESaIcEEESt4pairIKS5_N8tinygltf9ParameterEESt10_Select1stISA_ESt4lessIS5_ESaISA_EE5beginEv
0000000000000000 l    d  .text._ZNKSt8_Rb_treeINSt7__cxx1112basic_stringIcSt11char_traitsIcESaIcEEESt4pairIKS5_N8tinygltf9ParameterEESt10_Select1stISA_ESt4lessIS5_ESaISA_EE3endEv	0000000000000000 .text._ZNKSt8_Rb_treeINSt7__cxx1112basic_stringIcSt11char_traitsIcESaIcEEESt4pairIKS5_N8tinygltf9ParameterEESt10_Select1stISA_ESt4lessIS5_ESaISA_EE3endEv
0000000000000000 l    d  .text._ZSt5equalISt23_Rb_tree_const_iteratorISt4pairIKNSt7__cxx1112basic_stringIcSt11char_traitsIcESaIcEEEN8tinygltf9ParameterEEESC_EbT_SD_T0_	0000000000000000 .text._ZSt5equalISt23_Rb_tree_const_iteratorISt4pairIKNSt7__cxx1112basic_stringIcSt11char_traitsIcESaIcEEEN8tinygltf9ParameterEEESC_EbT_SD_T0_
0000000000000000 l    d  .text._ZN9__gnu_cxx17__normal_iteratorIPKN8tinygltf9PrimitiveESt6vectorIS2_SaIS2_EEEC2ERKS4_	0000000000000000 .text._ZN9__gnu_cxx17__normal_iteratorIPKN8tinygltf9PrimitiveESt6vectorIS2_SaIS2_EEEC2ERKS4_
0000000000000000 l    d  .text._ZSt11__equal_auxIN9__gnu_cxx17__normal_iteratorIPKN8tinygltf9PrimitiveESt6vectorIS3_SaIS3_EEEES9_EbT_SA_T0_	0000000000000000 .text._ZSt11__equal_auxIN9__gnu_cxx17__normal_iteratorIPKN8tinygltf9PrimitiveESt6vectorIS3_SaIS3_EEEES9_EbT_SA_T0_
0000000000000000 l    d  .text._ZN9__gnu_cxx17__normal_iteratorIPKN8tinygltf8AccessorESt6vectorIS2_SaIS2_EEEC2ERKS4_	0000000000000000 .text._ZN9__gnu_cxx17__normal_iteratorIPKN8tinygltf8AccessorESt6vectorIS2_SaIS2_EEEC2ERKS4_
0000000000000000 l    d  .text._ZSt11__equal_auxIN9__gnu_cxx17__normal_iteratorIPKN8tinygltf8AccessorESt6vectorIS3_SaIS3_EEEES9_EbT_SA_T0_	0000000000000000 .text._ZSt11__equal_auxIN9__gnu_cxx17__normal_iteratorIPKN8tinygltf8AccessorESt6vectorIS3_SaIS3_EEEES9_EbT_SA_T0_
0000000000000000 l    d  .text._ZN9__gnu_cxx17__normal_iteratorIPKN8tinygltf9AnimationESt6vectorIS2_SaIS2_EEEC2ERKS4_	0000000000000000 .text._ZN9__gnu_cxx17__normal_iteratorIPKN8tinygltf9AnimationESt6vectorIS2_SaIS2_EEEC2ERKS4_
0000000000000000 l    d  .text._ZSt11__equal_auxIN9__gnu_cxx17__normal_iteratorIPKN8tinygltf9AnimationESt6vectorIS3_SaIS3_EEEES9_EbT_SA_T0_	0000000000000000 .text._ZSt11__equal_auxIN9__gnu_cxx17__normal_iteratorIPKN8tinygltf9AnimationESt6vectorIS3_SaIS3_EEEES9_EbT_SA_T0_
0000000000000000 l    d  .text._ZN9__gnu_cxx17__normal_iteratorIPKN8tinygltf6BufferESt6vectorIS2_SaIS2_EEEC2ERKS4_	0000000000000000 .text._ZN9__gnu_cxx17__normal_iteratorIPKN8tinygltf6BufferESt6vectorIS2_SaIS2_EEEC2ERKS4_
0000000000000000 l    d  .text._ZSt11__equal_auxIN9__gnu_cxx17__normal_iteratorIPKN8tinygltf6BufferESt6vectorIS3_SaIS3_EEEES9_EbT_SA_T0_	0000000000000000 .text._ZSt11__equal_auxIN9__gnu_cxx17__normal_iteratorIPKN8tinygltf6BufferESt6vectorIS3_SaIS3_EEEES9_EbT_SA_T0_
0000000000000000 l    d  .text._ZN9__gnu_cxx17__normal_iteratorIPKN8tinygltf10BufferViewESt6vectorIS2_SaIS2_EEEC2ERKS4_	0000000000000000 .text._ZN9__gnu_cxx17__normal_iteratorIPKN8tinygltf10BufferViewESt6vectorIS2_SaIS2_EEEC2ERKS4_
0000000000000000 l    d  .text._ZSt11__equal_auxIN9__gnu_cxx17__normal_iteratorIPKN8tinygltf10BufferViewESt6vectorIS3_SaIS3_EEEES9_EbT_SA_T0_	0000000000000000 .text._ZSt11__equal_auxIN9__gnu_cxx17__normal_iteratorIPKN8tinygltf10BufferViewESt6vectorIS3_SaIS3_EEEES9_EbT_SA_T0_
0000000000000000 l    d  .text._ZN9__gnu_cxx17__normal_iteratorIPKN8tinygltf6CameraESt6vectorIS2_SaIS2_EEEC2ERKS4_	0000000000000000 .text._ZN9__gnu_cxx17__normal_iteratorIPKN8tinygltf6CameraESt6vectorIS2_SaIS2_EEEC2ERKS4_
0000000000000000 l    d  .text._ZSt11__equal_auxIN9__gnu_cxx17__normal_iteratorIPKN8tinygltf6CameraESt6vectorIS3_SaIS3_EEEES9_EbT_SA_T0_	0000000000000000 .text._ZSt11__equal_auxIN9__gnu_cxx17__normal_iteratorIPKN8tinygltf6CameraESt6vectorIS3_SaIS3_EEEES9_EbT_SA_T0_
0000000000000000 l    d  .text._ZSt11__equal_auxIN9__gnu_cxx17__normal_iteratorIPKNSt7__cxx1112basic_stringIcSt11char_traitsIcESaIcEEESt6vectorIS7_SaIS7_EEEESD_EbT_SE_T0_	0000000000000000 .text._ZSt11__equal_auxIN9__gnu_cxx17__normal_iteratorIPKNSt7__cxx1112basic_stringIcSt11char_traitsIcESaIcEEESt6vectorIS7_SaIS7_EEEESD_EbT_SE_T0_
0000000000000000 l    d  .text._ZN9__gnu_cxx17__normal_iteratorIPKN8tinygltf5ImageESt6vectorIS2_SaIS2_EEEC2ERKS4_	0000000000000000 .text._ZN9__gnu_cxx17__normal_iteratorIPKN8tinygltf5ImageESt6vectorIS2_SaIS2_EEEC2ERKS4_
0000000000000000 l    d  .text._ZSt11__equal_auxIN9__gnu_cxx17__normal_iteratorIPKN8tinygltf5ImageESt6vectorIS3_SaIS3_EEEES9_EbT_SA_T0_	0000000000000000 .text._ZSt11__equal_auxIN9__gnu_cxx17__normal_iteratorIPKN8tinygltf5ImageESt6vectorIS3_SaIS3_EEEES9_EbT_SA_T0_
0000000000000000 l    d  .text._ZN9__gnu_cxx17__normal_iteratorIPKN8tinygltf5LightESt6vectorIS2_SaIS2_EEEC2ERKS4_	0000000000000000 .text._ZN9__gnu_cxx17__normal_iteratorIPKN8tinygltf5LightESt6vectorIS2_SaIS2_EEEC2ERKS4_
0000000000000000 l    d  .text._ZSt11__equal_auxIN9__gnu_cxx17__normal_iteratorIPKN8tinygltf5LightESt6vectorIS3_SaIS3_EEEES9_EbT_SA_T0_	0000000000000000 .text._ZSt11__equal_auxIN9__gnu_cxx17__normal_iteratorIPKN8tinygltf5LightESt6vectorIS3_SaIS3_EEEES9_EbT_SA_T0_
0000000000000000 l    d  .text._ZN9__gnu_cxx17__normal_iteratorIPKN8tinygltf8MaterialESt6vectorIS2_SaIS2_EEEC2ERKS4_	0000000000000000 .text._ZN9__gnu_cxx17__normal_iteratorIPKN8tinygltf8MaterialESt6vectorIS2_SaIS2_EEEC2ERKS4_
0000000000000000 l    d  .text._ZSt11__equal_auxIN9__gnu_cxx17__normal_iteratorIPKN8tinygltf8MaterialESt6vectorIS3_SaIS3_EEEES9_EbT_SA_T0_	0000000000000000 .text._ZSt11__equal_auxIN9__gnu_cxx17__normal_iteratorIPKN8tinygltf8MaterialESt6vectorIS3_SaIS3_EEEES9_EbT_SA_T0_
0000000000000000 l    d  .text._ZN9__gnu_cxx17__normal_iteratorIPKN8tinygltf4MeshESt6vectorIS2_SaIS2_EEEC2ERKS4_	0000000000000000 .text._ZN9__gnu_cxx17__normal_iteratorIPKN8tinygltf4MeshESt6vectorIS2_SaIS2_EEEC2ERKS4_
0000000000000000 l    d  .text._ZSt11__equal_auxIN9__gnu_cxx17__normal_iteratorIPKN8tinygltf4MeshESt6vectorIS3_SaIS3_EEEES9_EbT_SA_T0_	0000000000000000 .text._ZSt11__equal_auxIN9__gnu_cxx17__normal_iteratorIPKN8tinygltf4MeshESt6vectorIS3_SaIS3_EEEES9_EbT_SA_T0_
0000000000000000 l    d  .text._ZN9__gnu_cxx17__normal_iteratorIPKN8tinygltf4NodeESt6vectorIS2_SaIS2_EEEC2ERKS4_	0000000000000000 .text._ZN9__gnu_cxx17__normal_iteratorIPKN8tinygltf4NodeESt6vectorIS2_SaIS2_EEEC2ERKS4_
0000000000000000 l    d  .text._ZSt11__equal_auxIN9__gnu_cxx17__normal_iteratorIPKN8tinygltf4NodeESt6vectorIS3_SaIS3_EEEES9_EbT_SA_T0_	0000000000000000 .text._ZSt11__equal_auxIN9__gnu_cxx17__normal_iteratorIPKN8tinygltf4NodeESt6vectorIS3_SaIS3_EEEES9_EbT_SA_T0_
0000000000000000 l    d  .text._ZN9__gnu_cxx17__normal_iteratorIPKN8tinygltf7SamplerESt6vectorIS2_SaIS2_EEEC2ERKS4_	0000000000000000 .text._ZN9__gnu_cxx17__normal_iteratorIPKN8tinygltf7SamplerESt6vectorIS2_SaIS2_EEEC2ERKS4_
0000000000000000 l    d  .text._ZSt11__equal_auxIN9__gnu_cxx17__normal_iteratorIPKN8tinygltf7SamplerESt6vectorIS3_SaIS3_EEEES9_EbT_SA_T0_	0000000000000000 .text._ZSt11__equal_auxIN9__gnu_cxx17__normal_iteratorIPKN8tinygltf7SamplerESt6vectorIS3_SaIS3_EEEES9_EbT_SA_T0_
0000000000000000 l    d  .text._ZN9__gnu_cxx17__normal_iteratorIPKN8tinygltf5SceneESt6vectorIS2_SaIS2_EEEC2ERKS4_	0000000000000000 .text._ZN9__gnu_cxx17__normal_iteratorIPKN8tinygltf5SceneESt6vectorIS2_SaIS2_EEEC2ERKS4_
0000000000000000 l    d  .text._ZSt11__equal_auxIN9__gnu_cxx17__normal_iteratorIPKN8tinygltf5SceneESt6vectorIS3_SaIS3_EEEES9_EbT_SA_T0_	0000000000000000 .text._ZSt11__equal_auxIN9__gnu_cxx17__normal_iteratorIPKN8tinygltf5SceneESt6vectorIS3_SaIS3_EEEES9_EbT_SA_T0_
0000000000000000 l    d  .text._ZN9__gnu_cxx17__normal_iteratorIPKN8tinygltf4SkinESt6vectorIS2_SaIS2_EEEC2ERKS4_	0000000000000000 .text._ZN9__gnu_cxx17__normal_iteratorIPKN8tinygltf4SkinESt6vectorIS2_SaIS2_EEEC2ERKS4_
0000000000000000 l    d  .text._ZSt11__equal_auxIN9__gnu_cxx17__normal_iteratorIPKN8tinygltf4SkinESt6vectorIS3_SaIS3_EEEES9_EbT_SA_T0_	0000000000000000 .text._ZSt11__equal_auxIN9__gnu_cxx17__normal_iteratorIPKN8tinygltf4SkinESt6vectorIS3_SaIS3_EEEES9_EbT_SA_T0_
0000000000000000 l    d  .text._ZN9__gnu_cxx17__normal_iteratorIPKN8tinygltf7TextureESt6vectorIS2_SaIS2_EEEC2ERKS4_	0000000000000000 .text._ZN9__gnu_cxx17__normal_iteratorIPKN8tinygltf7TextureESt6vectorIS2_SaIS2_EEEC2ERKS4_
0000000000000000 l    d  .text._ZSt11__equal_auxIN9__gnu_cxx17__normal_iteratorIPKN8tinygltf7TextureESt6vectorIS3_SaIS3_EEEES9_EbT_SA_T0_	0000000000000000 .text._ZSt11__equal_auxIN9__gnu_cxx17__normal_iteratorIPKN8tinygltf7TextureESt6vectorIS3_SaIS3_EEEES9_EbT_SA_T0_
0000000000000000 l    d  .text._ZN9__gnu_cxx17__normal_iteratorIPKiSt6vectorIiSaIiEEEC2ERKS2_	0000000000000000 .text._ZN9__gnu_cxx17__normal_iteratorIPKiSt6vectorIiSaIiEEEC2ERKS2_
0000000000000000 l    d  .text._ZSt11__equal_auxIN9__gnu_cxx17__normal_iteratorIPKiSt6vectorIiSaIiEEEES7_EbT_S8_T0_	0000000000000000 .text._ZSt11__equal_auxIN9__gnu_cxx17__normal_iteratorIPKiSt6vectorIiSaIiEEEES7_EbT_S8_T0_
0000000000000000 l    d  .text._ZNSt23_Rb_tree_const_iteratorISt4pairIKNSt7__cxx1112basic_stringIcSt11char_traitsIcESaIcEEEdEEC2EPKSt18_Rb_tree_node_base	0000000000000000 .text._ZNSt23_Rb_tree_const_iteratorISt4pairIKNSt7__cxx1112basic_stringIcSt11char_traitsIcESaIcEEEdEEC2EPKSt18_Rb_tree_node_base
0000000000000000 l    d  .text._ZNKSt8_Rb_treeINSt7__cxx1112basic_stringIcSt11char_traitsIcESaIcEEESt4pairIKS5_iESt10_Select1stIS8_ESt4lessIS5_ESaIS8_EE4sizeEv	0000000000000000 .text._ZNKSt8_Rb_treeINSt7__cxx1112basic_stringIcSt11char_traitsIcESaIcEEESt4pairIKS5_iESt10_Select1stIS8_ESt4lessIS5_ESaIS8_EE4sizeEv
0000000000000000 l    d  .text._ZSt5equalISt23_Rb_tree_const_iteratorISt4pairIKNSt7__cxx1112basic_stringIcSt11char_traitsIcESaIcEEEiEESA_EbT_SB_T0_	0000000000000000 .text._ZSt5equalISt23_Rb_tree_const_iteratorISt4pairIKNSt7__cxx1112basic_stringIcSt11char_traitsIcESaIcEEEiEESA_EbT_SB_T0_
0000000000000000 l    d  .text._ZN9__gnu_cxx17__normal_iteratorIPKSt3mapINSt7__cxx1112basic_stringIcSt11char_traitsIcESaIcEEEiSt4lessIS7_ESaISt4pairIKS7_iEEESt6vectorISE_SaISE_EEEC2ERKSG_	0000000000000000 .text._ZN9__gnu_cxx17__normal_iteratorIPKSt3mapINSt7__cxx1112basic_stringIcSt11char_traitsIcESaIcEEEiSt4lessIS7_ESaISt4pairIKS7_iEEESt6vectorISE_SaISE_EEEC2ERKSG_
0000000000000000 l    d  .text._ZSt11__equal_auxIN9__gnu_cxx17__normal_iteratorIPKSt3mapINSt7__cxx1112basic_stringIcSt11char_traitsIcESaIcEEEiSt4lessIS8_ESaISt4pairIKS8_iEEESt6vectorISF_SaISF_EEEESL_EbT_SM_T0_	0000000000000000 .text._ZSt11__equal_auxIN9__gnu_cxx17__normal_iteratorIPKSt3mapINSt7__cxx1112basic_stringIcSt11char_traitsIcESaIcEEEiSt4lessIS8_ESaISt4pairIKS8_iEEESt6vectorISF_SaISF_EEEESL_EbT_SM_T0_
0000000000000000 l    d  .text._ZNSt12_Vector_baseIhSaIhEE17_Vector_impl_data12_M_copy_dataERKS2_	0000000000000000 .text._ZNSt12_Vector_baseIhSaIhEE17_Vector_impl_data12_M_copy_dataERKS2_
0000000000000000 l    d  .text._ZSt12__niter_baseIPhET_S1_	0000000000000000 .text._ZSt12__niter_baseIPhET_S1_
0000000000000000 l    d  .text._ZSt12__niter_baseIPhSt6vectorIhSaIhEEET_N9__gnu_cxx17__normal_iteratorIS4_T0_EE	0000000000000000 .text._ZSt12__niter_baseIPhSt6vectorIhSaIhEEET_N9__gnu_cxx17__normal_iteratorIS4_T0_EE
0000000000000000 l    d  .text._ZSt14__copy_move_a1ILb0EPhS0_ET1_T0_S2_S1_	0000000000000000 .text._ZSt14__copy_move_a1ILb0EPhS0_ET1_T0_S2_S1_
0000000000000000 l    d  .text._ZSt12__niter_wrapIN9__gnu_cxx17__normal_iteratorIPhSt6vectorIhSaIhEEEES2_ET_S7_T0_	0000000000000000 .text._ZSt12__niter_wrapIN9__gnu_cxx17__normal_iteratorIPhSt6vectorIhSaIhEEEES2_ET_S7_T0_
0000000000000000 l    d  .text._ZN9__gnu_cxxmiIPhSt6vectorIhSaIhEEEENS_17__normal_iteratorIT_T0_E15difference_typeERKS8_SB_	0000000000000000 .text._ZN9__gnu_cxxmiIPhSt6vectorIhSaIhEEEENS_17__normal_iteratorIT_T0_E15difference_typeERKS8_SB_
0000000000000000 l    d  .text._ZSt22__uninitialized_move_aIPhS0_SaIhEET0_T_S3_S2_RT1_	0000000000000000 .text._ZSt22__uninitialized_move_aIPhS0_SaIhEET0_T_S3_S2_RT1_
0000000000000000 l    d  .text._ZSt13move_backwardIPhS0_ET0_T_S2_S1_	0000000000000000 .text._ZSt13move_backwardIPhS0_ET0_T_S2_S1_
0000000000000000 l    d  .text._ZSt12__niter_baseIPcNSt7__cxx1112basic_stringIcSt11char_traitsIcESaIcEEEET_N9__gnu_cxx17__normal_iteratorIS7_T0_EE	0000000000000000 .text._ZSt12__niter_baseIPcNSt7__cxx1112basic_stringIcSt11char_traitsIcESaIcEEEET_N9__gnu_cxx17__normal_iteratorIS7_T0_EE
0000000000000000 l    d  .text._ZSt14__copy_move_a1ILb0EPcPhET1_T0_S3_S2_	0000000000000000 .text._ZSt14__copy_move_a1ILb0EPcPhET1_T0_S3_S2_
0000000000000000 l    d  .text._ZN8nlohmann14adl_serializerIlvE9from_jsonIRKNS_10basic_jsonISt3mapSt6vectorNSt7__cxx1112basic_stringIcSt11char_traitsIcESaIcEEEblmdSaS0_S5_IhSaIhEEEElEEDTcmclL_ZNS_12_GLOBAL__N_19from_jsonEEcl7forwardIT_Efp_Efp0_Ecvv_EEOSI_RT0_	0000000000000000 .text._ZN8nlohmann14adl_serializerIlvE9from_jsonIRKNS_10basic_jsonISt3mapSt6vectorNSt7__cxx1112basic_stringIcSt11char_traitsIcESaIcEEEblmdSaS0_S5_IhSaIhEEEElEEDTcmclL_ZNS_12_GLOBAL__N_19from_jsonEEcl7forwardIT_Efp_Efp0_Ecvv_EEOSI_RT0_
0000000000000000 l    d  .text._ZN8nlohmann14adl_serializerIdvE9from_jsonIRKNS_10basic_jsonISt3mapSt6vectorNSt7__cxx1112basic_stringIcSt11char_traitsIcESaIcEEEblmdSaS0_S5_IhSaIhEEEEdEEDTcmclL_ZNS_12_GLOBAL__N_19from_jsonEEcl7forwardIT_Efp_Efp0_Ecvv_EEOSI_RT0_	0000000000000000 .text._ZN8nlohmann14adl_serializerIdvE9from_jsonIRKNS_10basic_jsonISt3mapSt6vectorNSt7__cxx1112basic_stringIcSt11char_traitsIcESaIcEEEblmdSaS0_S5_IhSaIhEEEEdEEDTcmclL_ZNS_12_GLOBAL__N_19from_jsonEEcl7forwardIT_Efp_Efp0_Ecvv_EEOSI_RT0_
0000000000000000 l    d  .text._ZN8nlohmann14adl_serializerINSt7__cxx1112basic_stringIcSt11char_traitsIcESaIcEEEvE9from_jsonIRKNS_10basic_jsonISt3mapSt6vectorS6_blmdSaS0_SB_IhSaIhEEEES6_EEDTcmclL_ZNS_12_GLOBAL__N_19from_jsonEEcl7forwardIT_Efp_Efp0_Ecvv_EEOSI_RT0_	0000000000000000 .text._ZN8nlohmann14adl_serializerINSt7__cxx1112basic_stringIcSt11char_traitsIcESaIcEEEvE9from_jsonIRKNS_10basic_jsonISt3mapSt6vectorS6_blmdSaS0_SB_IhSaIhEEEES6_EEDTcmclL_ZNS_12_GLOBAL__N_19from_jsonEEcl7forwardIT_Efp_Efp0_Ecvv_EEOSI_RT0_
0000000000000000 l    d  .text._ZN8nlohmann6detail9iter_implIKNS_10basic_jsonISt3mapSt6vectorNSt7__cxx1112basic_stringIcSt11char_traitsIcESaIcEEEblmdSaNS_14adl_serializerES4_IhSaIhEEEEEC2EPSF_	0000000000000000 .text._ZN8nlohmann6detail9iter_implIKNS_10basic_jsonISt3mapSt6vectorNSt7__cxx1112basic_stringIcSt11char_traitsIcESaIcEEEblmdSaNS_14adl_serializerES4_IhSaIhEEEEEC2EPSF_
0000000000000000 l    d  .text._ZN8nlohmann6detail9iter_implIKNS_10basic_jsonISt3mapSt6vectorNSt7__cxx1112basic_stringIcSt11char_traitsIcESaIcEEEblmdSaNS_14adl_serializerES4_IhSaIhEEEEE9set_beginEv	0000000000000000 .text._ZN8nlohmann6detail9iter_implIKNS_10basic_jsonISt3mapSt6vectorNSt7__cxx1112basic_stringIcSt11char_traitsIcESaIcEEEblmdSaNS_14adl_serializerES4_IhSaIhEEEEE9set_beginEv
0000000000000000 l    d  .text._ZN8nlohmann6detail9iter_implIKNS_10basic_jsonISt3mapSt6vectorNSt7__cxx1112basic_stringIcSt11char_traitsIcESaIcEEEblmdSaNS_14adl_serializerES4_IhSaIhEEEEE7set_endEv	0000000000000000 .text._ZN8nlohmann6detail9iter_implIKNS_10basic_jsonISt3mapSt6vectorNSt7__cxx1112basic_stringIcSt11char_traitsIcESaIcEEEblmdSaNS_14adl_serializerES4_IhSaIhEEEEE7set_endEv
0000000000000000 l    d  .text._ZNSt13_Rb_tree_nodeISt4pairIKNSt7__cxx1112basic_stringIcSt11char_traitsIcESaIcEEEN8nlohmann10basic_jsonISt3mapSt6vectorS6_blmdSaNS8_14adl_serializerESB_IhSaIhEEEEEE9_M_valptrEv	0000000000000000 .text._ZNSt13_Rb_tree_nodeISt4pairIKNSt7__cxx1112basic_stringIcSt11char_traitsIcESaIcEEEN8nlohmann10basic_jsonISt3mapSt6vectorS6_blmdSaNS8_14adl_serializerESB_IhSaIhEEEEEE9_M_valptrEv
0000000000000000 l    d  .text._ZN8nlohmann6detail9exception11diagnosticsINS_10basic_jsonISt3mapSt6vectorNSt7__cxx1112basic_stringIcSt11char_traitsIcESaIcEEEblmdSaNS_14adl_serializerES5_IhSaIhEEEEEESB_RKT_	0000000000000000 .text._ZN8nlohmann6detail9exception11diagnosticsINS_10basic_jsonISt3mapSt6vectorNSt7__cxx1112basic_stringIcSt11char_traitsIcESaIcEEEblmdSaNS_14adl_serializerES5_IhSaIhEEEEEESB_RKT_
0000000000000000 l    d  .text._ZNSt8_Rb_treeINSt7__cxx1112basic_stringIcSt11char_traitsIcESaIcEEESt4pairIKS5_N8nlohmann10basic_jsonISt3mapSt6vectorS5_blmdSaNS8_14adl_serializerESB_IhSaIhEEEEESt10_Select1stISG_ESt4lessIS5_ESaISG_EE4findERS7_	0000000000000000 .text._ZNSt8_Rb_treeINSt7__cxx1112basic_stringIcSt11char_traitsIcESaIcEEESt4pairIKS5_N8nlohmann10basic_jsonISt3mapSt6vectorS5_blmdSaNS8_14adl_serializerESB_IhSaIhEEEEESt10_Select1stISG_ESt4lessIS5_ESaISG_EE4findERS7_
0000000000000000 l    d  .text._ZSteqRKSt17_Rb_tree_iteratorISt4pairIKNSt7__cxx1112basic_stringIcSt11char_traitsIcESaIcEEEN8nlohmann10basic_jsonISt3mapSt6vectorS6_blmdSaNS8_14adl_serializerESB_IhSaIhEEEEEESJ_	0000000000000000 .text._ZSteqRKSt17_Rb_tree_iteratorISt4pairIKNSt7__cxx1112basic_stringIcSt11char_traitsIcESaIcEEEN8nlohmann10basic_jsonISt3mapSt6vectorS6_blmdSaNS8_14adl_serializerESB_IhSaIhEEEEEESJ_
0000000000000000 l    d  .text._ZN9__gnu_cxxeqIPN8nlohmann10basic_jsonISt3mapSt6vectorNSt7__cxx1112basic_stringIcSt11char_traitsIcESaIcEEEblmdSaNS1_14adl_serializerES4_IhSaIhEEEES4_ISE_SaISE_EEEEbRKNS_17__normal_iteratorIT_T0_EESN_	0000000000000000 .text._ZN9__gnu_cxxeqIPN8nlohmann10basic_jsonISt3mapSt6vectorNSt7__cxx1112basic_stringIcSt11char_traitsIcESaIcEEEblmdSaNS1_14adl_serializerES4_IhSaIhEEEES4_ISE_SaISE_EEEEbRKNS_17__normal_iteratorIT_T0_EESN_
0000000000000000 l    d  .text._ZNSt15__new_allocatorINSt7__cxx1112basic_stringIcSt11char_traitsIcESaIcEEEE10deallocateEPS5_m	0000000000000000 .text._ZNSt15__new_allocatorINSt7__cxx1112basic_stringIcSt11char_traitsIcESaIcEEEE10deallocateEPS5_m
0000000000000000 l    d  .text._ZNSt15__new_allocatorIN8nlohmann27byte_container_with_subtypeISt6vectorIhSaIhEEEEED2Ev	0000000000000000 .text._ZNSt15__new_allocatorIN8nlohmann27byte_container_with_subtypeISt6vectorIhSaIhEEEEED2Ev
0000000000000000 l    d  .text._ZN8nlohmann27byte_container_with_subtypeISt6vectorIhSaIhEEED2Ev	0000000000000000 .text._ZN8nlohmann27byte_container_with_subtypeISt6vectorIhSaIhEEED2Ev
0000000000000000 l    d  .text._ZNSt15__new_allocatorIN8nlohmann27byte_container_with_subtypeISt6vectorIhSaIhEEEEE10deallocateEPS5_m	0000000000000000 .text._ZNSt15__new_allocatorIN8nlohmann27byte_container_with_subtypeISt6vectorIhSaIhEEEEE10deallocateEPS5_m
0000000000000000 l    d  .text._ZNSt8_Rb_treeINSt7__cxx1112basic_stringIcSt11char_traitsIcESaIcEEESt4pairIKS5_N8nlohmann10basic_jsonISt3mapSt6vectorS5_blmdSaNS8_14adl_serializerESB_IhSaIhEEEEESt10_Select1stISG_ESt4lessIS5_ESaISG_EE5eraseB5cxx11ESt17_Rb_tree_iteratorISG_E	0000000000000000 .text._ZNSt8_Rb_treeINSt7__cxx1112basic_stringIcSt11char_traitsIcESaIcEEESt4pairIKS5_N8nlohmann10basic_jsonISt3mapSt6vectorS5_blmdSaNS8_14adl_serializerESB_IhSaIhEEEEESt10_Select1stISG_ESt4lessIS5_ESaISG_EE5eraseB5cxx11ESt17_Rb_tree_iteratorISG_E
0000000000000000 l    d  .text._ZNK9__gnu_cxx17__normal_iteratorIPN8nlohmann10basic_jsonISt3mapSt6vectorNSt7__cxx1112basic_stringIcSt11char_traitsIcESaIcEEEblmdSaNS1_14adl_serializerES4_IhSaIhEEEES4_ISE_SaISE_EEE4baseEv	0000000000000000 .text._ZNK9__gnu_cxx17__normal_iteratorIPN8nlohmann10basic_jsonISt3mapSt6vectorNSt7__cxx1112basic_stringIcSt11char_traitsIcESaIcEEEblmdSaNS1_14adl_serializerES4_IhSaIhEEEES4_ISE_SaISE_EEE4baseEv
0000000000000000 l    d  .text._ZNKSt6vectorIN8nlohmann10basic_jsonISt3mapS_NSt7__cxx1112basic_stringIcSt11char_traitsIcESaIcEEEblmdSaNS0_14adl_serializerES_IhSaIhEEEESaISC_EE6cbeginEv	0000000000000000 .text._ZNKSt6vectorIN8nlohmann10basic_jsonISt3mapS_NSt7__cxx1112basic_stringIcSt11char_traitsIcESaIcEEEblmdSaNS0_14adl_serializerES_IhSaIhEEEESaISC_EE6cbeginEv
0000000000000000 l    d  .text._ZN9__gnu_cxxmiIPKN8nlohmann10basic_jsonISt3mapSt6vectorNSt7__cxx1112basic_stringIcSt11char_traitsIcESaIcEEEblmdSaNS1_14adl_serializerES4_IhSaIhEEEES4_ISE_SaISE_EEEENS_17__normal_iteratorIT_T0_E15difference_typeERKSM_SP_	0000000000000000 .text._ZN9__gnu_cxxmiIPKN8nlohmann10basic_jsonISt3mapSt6vectorNSt7__cxx1112basic_stringIcSt11char_traitsIcESaIcEEEblmdSaNS1_14adl_serializerES4_IhSaIhEEEES4_ISE_SaISE_EEEENS_17__normal_iteratorIT_T0_E15difference_typeERKSM_SP_
0000000000000000 l    d  .text._ZNK9__gnu_cxx17__normal_iteratorIPN8nlohmann10basic_jsonISt3mapSt6vectorNSt7__cxx1112basic_stringIcSt11char_traitsIcESaIcEEEblmdSaNS1_14adl_serializerES4_IhSaIhEEEES4_ISE_SaISE_EEEplEl	0000000000000000 .text._ZNK9__gnu_cxx17__normal_iteratorIPN8nlohmann10basic_jsonISt3mapSt6vectorNSt7__cxx1112basic_stringIcSt11char_traitsIcESaIcEEEblmdSaNS1_14adl_serializerES4_IhSaIhEEEES4_ISE_SaISE_EEEplEl
0000000000000000 l    d  .text._ZNSt6vectorIN8nlohmann10basic_jsonISt3mapS_NSt7__cxx1112basic_stringIcSt11char_traitsIcESaIcEEEblmdSaNS0_14adl_serializerES_IhSaIhEEEESaISC_EE8_M_eraseEN9__gnu_cxx17__normal_iteratorIPSC_SE_EE	0000000000000000 .text._ZNSt6vectorIN8nlohmann10basic_jsonISt3mapS_NSt7__cxx1112basic_stringIcSt11char_traitsIcESaIcEEEblmdSaNS0_14adl_serializerES_IhSaIhEEEESaISC_EE8_M_eraseEN9__gnu_cxx17__normal_iteratorIPSC_SE_EE
0000000000000000 l    d  .text._ZNKSt6vectorIN8nlohmann10basic_jsonISt3mapS_NSt7__cxx1112basic_stringIcSt11char_traitsIcESaIcEEEblmdSaNS0_14adl_serializerES_IhSaIhEEEESaISC_EE5beginEv	0000000000000000 .text._ZNKSt6vectorIN8nlohmann10basic_jsonISt3mapS_NSt7__cxx1112basic_stringIcSt11char_traitsIcESaIcEEEblmdSaNS0_14adl_serializerES_IhSaIhEEEESaISC_EE5beginEv
0000000000000000 l    d  .text._ZNKSt6vectorIN8nlohmann10basic_jsonISt3mapS_NSt7__cxx1112basic_stringIcSt11char_traitsIcESaIcEEEblmdSaNS0_14adl_serializerES_IhSaIhEEEESaISC_EE3endEv	0000000000000000 .text._ZNKSt6vectorIN8nlohmann10basic_jsonISt3mapS_NSt7__cxx1112basic_stringIcSt11char_traitsIcESaIcEEEblmdSaNS0_14adl_serializerES_IhSaIhEEEESaISC_EE3endEv
0000000000000000 l    d  .text._ZN9__gnu_cxxeqIPKN8nlohmann10basic_jsonISt3mapSt6vectorNSt7__cxx1112basic_stringIcSt11char_traitsIcESaIcEEEblmdSaNS1_14adl_serializerES4_IhSaIhEEEES4_ISE_SaISE_EEEEbRKNS_17__normal_iteratorIT_T0_EESO_	0000000000000000 .text._ZN9__gnu_cxxeqIPKN8nlohmann10basic_jsonISt3mapSt6vectorNSt7__cxx1112basic_stringIcSt11char_traitsIcESaIcEEEblmdSaNS1_14adl_serializerES4_IhSaIhEEEES4_ISE_SaISE_EEEEbRKNS_17__normal_iteratorIT_T0_EESO_
0000000000000000 l    d  .text._ZNKSt8_Rb_treeINSt7__cxx1112basic_stringIcSt11char_traitsIcESaIcEEESt4pairIKS5_N8nlohmann10basic_jsonISt3mapSt6vectorS5_blmdSaNS8_14adl_serializerESB_IhSaIhEEEEESt10_Select1stISG_ESt4lessIS5_ESaISG_EE5emptyEv	0000000000000000 .text._ZNKSt8_Rb_treeINSt7__cxx1112basic_stringIcSt11char_traitsIcESaIcEEESt4pairIKS5_N8nlohmann10basic_jsonISt3mapSt6vectorS5_blmdSaNS8_14adl_serializerESB_IhSaIhEEEEESt10_Select1stISG_ESt4lessIS5_ESaISG_EE5emptyEv
0000000000000000 l    d  .text._ZSt11make_sharedIN8nlohmann6detail21output_string_adapterIcNSt7__cxx1112basic_stringIcSt11char_traitsIcESaIcEEEEEJRS8_EESt10shared_ptrINSt9enable_ifIXntsrSt8is_arrayIT_E5valueESE_E4typeEEDpOT0_	0000000000000000 .text._ZSt11make_sharedIN8nlohmann6detail21output_string_adapterIcNSt7__cxx1112basic_stringIcSt11char_traitsIcESaIcEEEEEJRS8_EESt10shared_ptrINSt9enable_ifIXntsrSt8is_arrayIT_E5valueESE_E4typeEEDpOT0_
0000000000000000 l    d  .text._ZNSt10shared_ptrIN8nlohmann6detail23output_adapter_protocolIcEEEC2INS1_21output_string_adapterIcNSt7__cxx1112basic_stringIcSt11char_traitsIcESaIcEEEEEvEEOS_IT_E	0000000000000000 .text._ZNSt10shared_ptrIN8nlohmann6detail23output_adapter_protocolIcEEEC2INS1_21output_string_adapterIcNSt7__cxx1112basic_stringIcSt11char_traitsIcESaIcEEEEEvEEOS_IT_E
0000000000000000 l    d  .text._ZNSt14__shared_countILN9__gnu_cxx12_Lock_policyE2EEC2ERKS2_	0000000000000000 .text._ZNSt14__shared_countILN9__gnu_cxx12_Lock_policyE2EEC2ERKS2_
0000000000000000 l    d  .text._ZSt4moveIRSt10shared_ptrIN8nlohmann6detail23output_adapter_protocolIcEEEEONSt16remove_referenceIT_E4typeEOS8_	0000000000000000 .text._ZSt4moveIRSt10shared_ptrIN8nlohmann6detail23output_adapter_protocolIcEEEEONSt16remove_referenceIT_E4typeEOS8_
0000000000000000 l    d  .text._ZNSt12__shared_ptrIN8nlohmann6detail23output_adapter_protocolIcEELN9__gnu_cxx12_Lock_policyE2EEC2EOS6_	0000000000000000 .text._ZNSt12__shared_ptrIN8nlohmann6detail23output_adapter_protocolIcEELN9__gnu_cxx12_Lock_policyE2EEC2EOS6_
0000000000000000 l    d  .text._ZNKSt19__shared_ptr_accessIN8nlohmann6detail23output_adapter_protocolIcEELN9__gnu_cxx12_Lock_policyE2ELb0ELb0EEptEv	0000000000000000 .text._ZNKSt19__shared_ptr_accessIN8nlohmann6detail23output_adapter_protocolIcEELN9__gnu_cxx12_Lock_policyE2ELb0ELb0EEptEv
0000000000000000 l    d  .text._ZNKSt3mapINSt7__cxx1112basic_stringIcSt11char_traitsIcESaIcEEEN8nlohmann10basic_jsonIS_St6vectorS5_blmdSaNS6_14adl_serializerES8_IhSaIhEEEESt4lessIS5_ESaISt4pairIKS5_SC_EEE6cbeginEv	0000000000000000 .text._ZNKSt3mapINSt7__cxx1112basic_stringIcSt11char_traitsIcESaIcEEEN8nlohmann10basic_jsonIS_St6vectorS5_blmdSaNS6_14adl_serializerES8_IhSaIhEEEESt4lessIS5_ESaISt4pairIKS5_SC_EEE6cbeginEv
0000000000000000 l    d  .text._ZNSt23_Rb_tree_const_iteratorISt4pairIKNSt7__cxx1112basic_stringIcSt11char_traitsIcESaIcEEEN8nlohmann10basic_jsonISt3mapSt6vectorS6_blmdSaNS8_14adl_serializerESB_IhSaIhEEEEEEppEv	0000000000000000 .text._ZNSt23_Rb_tree_const_iteratorISt4pairIKNSt7__cxx1112basic_stringIcSt11char_traitsIcESaIcEEEN8nlohmann10basic_jsonISt3mapSt6vectorS6_blmdSaNS8_14adl_serializerESB_IhSaIhEEEEEEppEv
0000000000000000 l    d  .text._ZN8nlohmann6detail10serializerINS_10basic_jsonISt3mapSt6vectorNSt7__cxx1112basic_stringIcSt11char_traitsIcESaIcEEEblmdSaNS_14adl_serializerES4_IhSaIhEEEEE12dump_escapedERKSA_b	0000000000000000 .text._ZN8nlohmann6detail10serializerINS_10basic_jsonISt3mapSt6vectorNSt7__cxx1112basic_stringIcSt11char_traitsIcESaIcEEEblmdSaNS_14adl_serializerES4_IhSaIhEEEEE12dump_escapedERKSA_b
0000000000000000 l    d  .rodata._ZN8nlohmann6detail10serializerINS_10basic_jsonISt3mapSt6vectorNSt7__cxx1112basic_stringIcSt11char_traitsIcESaIcEEEblmdSaNS_14adl_serializerES4_IhSaIhEEEEE12dump_escapedERKSA_b	0000000000000000 .rodata._ZN8nlohmann6detail10serializerINS_10basic_jsonISt3mapSt6vectorNSt7__cxx1112basic_stringIcSt11char_traitsIcESaIcEEEblmdSaNS_14adl_serializerES4_IhSaIhEEEEE12dump_escapedERKSA_b
0000000000000000 l    d  .text._ZNKSt23_Rb_tree_const_iteratorISt4pairIKNSt7__cxx1112basic_stringIcSt11char_traitsIcESaIcEEEN8nlohmann10basic_jsonISt3mapSt6vectorS6_blmdSaNS8_14adl_serializerESB_IhSaIhEEEEEEptEv	0000000000000000 .text._ZNKSt23_Rb_tree_const_iteratorISt4pairIKNSt7__cxx1112basic_stringIcSt11char_traitsIcESaIcEEEN8nlohmann10basic_jsonISt3mapSt6vectorS6_blmdSaNS8_14adl_serializerESB_IhSaIhEEEEEEptEv
0000000000000000 l    d  .text._ZNKSt3mapINSt7__cxx1112basic_stringIcSt11char_traitsIcESaIcEEEN8nlohmann10basic_jsonIS_St6vectorS5_blmdSaNS6_14adl_serializerES8_IhSaIhEEEESt4lessIS5_ESaISt4pairIKS5_SC_EEE4cendEv	0000000000000000 .text._ZNKSt3mapINSt7__cxx1112basic_stringIcSt11char_traitsIcESaIcEEEN8nlohmann10basic_jsonIS_St6vectorS5_blmdSaNS6_14adl_serializerES8_IhSaIhEEEESt4lessIS5_ESaISt4pairIKS5_SC_EEE4cendEv
0000000000000000 l    d  .text._ZStneRKSt23_Rb_tree_const_iteratorISt4pairIKNSt7__cxx1112basic_stringIcSt11char_traitsIcESaIcEEEN8nlohmann10basic_jsonISt3mapSt6vectorS6_blmdSaNS8_14adl_serializerESB_IhSaIhEEEEEESJ_	0000000000000000 .text._ZStneRKSt23_Rb_tree_const_iteratorISt4pairIKNSt7__cxx1112basic_stringIcSt11char_traitsIcESaIcEEEN8nlohmann10basic_jsonISt3mapSt6vectorS6_blmdSaNS8_14adl_serializerESB_IhSaIhEEEEEESJ_
0000000000000000 l    d  .text._ZSteqRKSt23_Rb_tree_const_iteratorISt4pairIKNSt7__cxx1112basic_stringIcSt11char_traitsIcESaIcEEEN8nlohmann10basic_jsonISt3mapSt6vectorS6_blmdSaNS8_14adl_serializerESB_IhSaIhEEEEEESJ_	0000000000000000 .text._ZSteqRKSt23_Rb_tree_const_iteratorISt4pairIKNSt7__cxx1112basic_stringIcSt11char_traitsIcESaIcEEEN8nlohmann10basic_jsonISt3mapSt6vectorS6_blmdSaNS8_14adl_serializerESB_IhSaIhEEEEEESJ_
0000000000000000 l    d  .text._ZNKSt6vectorIN8nlohmann10basic_jsonISt3mapS_NSt7__cxx1112basic_stringIcSt11char_traitsIcESaIcEEEblmdSaNS0_14adl_serializerES_IhSaIhEEEESaISC_EE4cendEv	0000000000000000 .text._ZNKSt6vectorIN8nlohmann10basic_jsonISt3mapS_NSt7__cxx1112basic_stringIcSt11char_traitsIcESaIcEEEblmdSaNS0_14adl_serializerES_IhSaIhEEEESaISC_EE4cendEv
0000000000000000 l    d  .text._ZNK9__gnu_cxx17__normal_iteratorIPKN8nlohmann10basic_jsonISt3mapSt6vectorNSt7__cxx1112basic_stringIcSt11char_traitsIcESaIcEEEblmdSaNS1_14adl_serializerES4_IhSaIhEEEES4_ISE_SaISE_EEEmiEl	0000000000000000 .text._ZNK9__gnu_cxx17__normal_iteratorIPKN8nlohmann10basic_jsonISt3mapSt6vectorNSt7__cxx1112basic_stringIcSt11char_traitsIcESaIcEEEblmdSaNS1_14adl_serializerES4_IhSaIhEEEES4_ISE_SaISE_EEEmiEl
0000000000000000 l    d  .text._ZN9__gnu_cxxneIPKN8nlohmann10basic_jsonISt3mapSt6vectorNSt7__cxx1112basic_stringIcSt11char_traitsIcESaIcEEEblmdSaNS1_14adl_serializerES4_IhSaIhEEEES4_ISE_SaISE_EEEEbRKNS_17__normal_iteratorIT_T0_EESO_	0000000000000000 .text._ZN9__gnu_cxxneIPKN8nlohmann10basic_jsonISt3mapSt6vectorNSt7__cxx1112basic_stringIcSt11char_traitsIcESaIcEEEblmdSaNS1_14adl_serializerES4_IhSaIhEEEES4_ISE_SaISE_EEEEbRKNS_17__normal_iteratorIT_T0_EESO_
0000000000000000 l    d  .text._ZN9__gnu_cxx17__normal_iteratorIPKN8nlohmann10basic_jsonISt3mapSt6vectorNSt7__cxx1112basic_stringIcSt11char_traitsIcESaIcEEEblmdSaNS1_14adl_serializerES4_IhSaIhEEEES4_ISE_SaISE_EEEppEv	0000000000000000 .text._ZN9__gnu_cxx17__normal_iteratorIPKN8nlohmann10basic_jsonISt3mapSt6vectorNSt7__cxx1112basic_stringIcSt11char_traitsIcESaIcEEEblmdSaNS1_14adl_serializerES4_IhSaIhEEEES4_ISE_SaISE_EEEppEv
0000000000000000 l    d  .text._ZNK9__gnu_cxx17__normal_iteratorIPKN8nlohmann10basic_jsonISt3mapSt6vectorNSt7__cxx1112basic_stringIcSt11char_traitsIcESaIcEEEblmdSaNS1_14adl_serializerES4_IhSaIhEEEES4_ISE_SaISE_EEEdeEv	0000000000000000 .text._ZNK9__gnu_cxx17__normal_iteratorIPKN8nlohmann10basic_jsonISt3mapSt6vectorNSt7__cxx1112basic_stringIcSt11char_traitsIcESaIcEEEblmdSaNS1_14adl_serializerES4_IhSaIhEEEES4_ISE_SaISE_EEEdeEv
0000000000000000 l    d  .text._ZNKSt6vectorIhSaIhEE4cendEv	0000000000000000 .text._ZNKSt6vectorIhSaIhEE4cendEv
0000000000000000 l    d  .text._ZNK9__gnu_cxx17__normal_iteratorIPKhSt6vectorIhSaIhEEEmiEl	0000000000000000 .text._ZNK9__gnu_cxx17__normal_iteratorIPKhSt6vectorIhSaIhEEEmiEl
0000000000000000 l    d  .text._ZN8nlohmann6detail10serializerINS_10basic_jsonISt3mapSt6vectorNSt7__cxx1112basic_stringIcSt11char_traitsIcESaIcEEEblmdSaNS_14adl_serializerES4_IhSaIhEEEEE12dump_integerIhLi0EEEvT_	0000000000000000 .text._ZN8nlohmann6detail10serializerINS_10basic_jsonISt3mapSt6vectorNSt7__cxx1112basic_stringIcSt11char_traitsIcESaIcEEEblmdSaNS_14adl_serializerES4_IhSaIhEEEEE12dump_integerIhLi0EEEvT_
0000000000000000 l    d  .text._ZNSt6vectorIhSaIhEE4backEv	0000000000000000 .text._ZNSt6vectorIhSaIhEE4backEv
0000000000000000 l    d  .text._ZN8nlohmann6detail10serializerINS_10basic_jsonISt3mapSt6vectorNSt7__cxx1112basic_stringIcSt11char_traitsIcESaIcEEEblmdSaNS_14adl_serializerES4_IhSaIhEEEEE12dump_integerImLi0EEEvT_	0000000000000000 .text._ZN8nlohmann6detail10serializerINS_10basic_jsonISt3mapSt6vectorNSt7__cxx1112basic_stringIcSt11char_traitsIcESaIcEEEblmdSaNS_14adl_serializerES4_IhSaIhEEEEE12dump_integerImLi0EEEvT_
0000000000000000 l    d  .text._ZN8nlohmann6detail10serializerINS_10basic_jsonISt3mapSt6vectorNSt7__cxx1112basic_stringIcSt11char_traitsIcESaIcEEEblmdSaNS_14adl_serializerES4_IhSaIhEEEEE12dump_integerIlLi0EEEvT_	0000000000000000 .text._ZN8nlohmann6detail10serializerINS_10basic_jsonISt3mapSt6vectorNSt7__cxx1112basic_stringIcSt11char_traitsIcESaIcEEEblmdSaNS_14adl_serializerES4_IhSaIhEEEEE12dump_integerIlLi0EEEvT_
0000000000000000 l    d  .text._ZN8nlohmann6detail10serializerINS_10basic_jsonISt3mapSt6vectorNSt7__cxx1112basic_stringIcSt11char_traitsIcESaIcEEEblmdSaNS_14adl_serializerES4_IhSaIhEEEEE10dump_floatEd	0000000000000000 .text._ZN8nlohmann6detail10serializerINS_10basic_jsonISt3mapSt6vectorNSt7__cxx1112basic_stringIcSt11char_traitsIcESaIcEEEblmdSaNS_14adl_serializerES4_IhSaIhEEEEE10dump_floatEd
0000000000000000 l    d  .text._ZNSt8_Rb_treeINSt7__cxx1112basic_stringIcSt11char_traitsIcESaIcEEESt4pairIKS5_N8tinygltf5ValueEESt10_Select1stISA_ESt4lessIS5_ESaISA_EE10_Auto_nodeC2IJRS7_S9_EEERSG_DpOT_	0000000000000000 .text._ZNSt8_Rb_treeINSt7__cxx1112basic_stringIcSt11char_traitsIcESaIcEEESt4pairIKS5_N8tinygltf5ValueEESt10_Select1stISA_ESt4lessIS5_ESaISA_EE10_Auto_nodeC2IJRS7_S9_EEERSG_DpOT_
0000000000000000 l    d  .text._ZNSt8_Rb_treeINSt7__cxx1112basic_stringIcSt11char_traitsIcESaIcEEESt4pairIKS5_N8tinygltf5ValueEESt10_Select1stISA_ESt4lessIS5_ESaISA_EE10_Auto_nodeD2Ev	0000000000000000 .text._ZNSt8_Rb_treeINSt7__cxx1112basic_stringIcSt11char_traitsIcESaIcEEESt4pairIKS5_N8tinygltf5ValueEESt10_Select1stISA_ESt4lessIS5_ESaISA_EE10_Auto_nodeD2Ev
0000000000000000 l    d  .text._ZNSt8_Rb_treeINSt7__cxx1112basic_stringIcSt11char_traitsIcESaIcEEESt4pairIKS5_N8tinygltf5ValueEESt10_Select1stISA_ESt4lessIS5_ESaISA_EE24_M_get_insert_unique_posERS7_	0000000000000000 .text._ZNSt8_Rb_treeINSt7__cxx1112basic_stringIcSt11char_traitsIcESaIcEEESt4pairIKS5_N8tinygltf5ValueEESt10_Select1stISA_ESt4lessIS5_ESaISA_EE24_M_get_insert_unique_posERS7_
0000000000000000 l    d  .text._ZNKSt8_Rb_treeINSt7__cxx1112basic_stringIcSt11char_traitsIcESaIcEEESt4pairIKS5_N8tinygltf5ValueEESt10_Select1stISA_ESt4lessIS5_ESaISA_EE10_Auto_node6_M_keyEv	0000000000000000 .text._ZNKSt8_Rb_treeINSt7__cxx1112basic_stringIcSt11char_traitsIcESaIcEEESt4pairIKS5_N8tinygltf5ValueEESt10_Select1stISA_ESt4lessIS5_ESaISA_EE10_Auto_node6_M_keyEv
0000000000000000 l    d  .text._ZNSt8_Rb_treeINSt7__cxx1112basic_stringIcSt11char_traitsIcESaIcEEESt4pairIKS5_N8tinygltf5ValueEESt10_Select1stISA_ESt4lessIS5_ESaISA_EE10_Auto_node9_M_insertES6_IPSt18_Rb_tree_node_baseSJ_E	0000000000000000 .text._ZNSt8_Rb_treeINSt7__cxx1112basic_stringIcSt11char_traitsIcESaIcEEESt4pairIKS5_N8tinygltf5ValueEESt10_Select1stISA_ESt4lessIS5_ESaISA_EE10_Auto_node9_M_insertES6_IPSt18_Rb_tree_node_baseSJ_E
0000000000000000 l    d  .text._ZNSt4pairISt17_Rb_tree_iteratorIS_IKNSt7__cxx1112basic_stringIcSt11char_traitsIcESaIcEEEN8tinygltf5ValueEEEbEC2ISB_bLb1EEEOT_OT0_	0000000000000000 .text._ZNSt4pairISt17_Rb_tree_iteratorIS_IKNSt7__cxx1112basic_stringIcSt11char_traitsIcESaIcEEEN8tinygltf5ValueEEEbEC2ISB_bLb1EEEOT_OT0_
0000000000000000 l    d  .text._ZNKSt12_Vector_baseIhSaIhEE13get_allocatorEv	0000000000000000 .text._ZNKSt12_Vector_baseIhSaIhEE13get_allocatorEv
0000000000000000 l    d  .text._ZNSt6vectorIhSaIhEEC2ERKS0_	0000000000000000 .text._ZNSt6vectorIhSaIhEEC2ERKS0_
0000000000000000 l    d  .text._ZNKSt12_Vector_baseIN8tinygltf5ValueESaIS1_EE13get_allocatorEv	0000000000000000 .text._ZNKSt12_Vector_baseIN8tinygltf5ValueESaIS1_EE13get_allocatorEv
0000000000000000 l    d  .text._ZNSt6vectorIN8tinygltf5ValueESaIS1_EEC2ERKS2_	0000000000000000 .text._ZNSt6vectorIN8tinygltf5ValueESaIS1_EEC2ERKS2_
0000000000000000 l    d  .text._ZNSt12_Vector_baseIN8tinygltf5ValueESaIS1_EE17_Vector_impl_data12_M_swap_dataERS4_	0000000000000000 .text._ZNSt12_Vector_baseIN8tinygltf5ValueESaIS1_EE17_Vector_impl_data12_M_swap_dataERS4_
0000000000000000 l    d  .text._ZNSt8_Rb_treeINSt7__cxx1112basic_stringIcSt11char_traitsIcESaIcEEESt4pairIKS5_N8tinygltf5ValueEESt10_Select1stISA_ESt4lessIS5_ESaISA_EE12_M_move_dataERSG_St17integral_constantIbLb1EE	0000000000000000 .text._ZNSt8_Rb_treeINSt7__cxx1112basic_stringIcSt11char_traitsIcESaIcEEESt4pairIKS5_N8tinygltf5ValueEESt10_Select1stISA_ESt4lessIS5_ESaISA_EE12_M_move_dataERSG_St17integral_constantIbLb1EE
0000000000000000 l    d  .text._ZNKSt8_Rb_treeINSt7__cxx1112basic_stringIcSt11char_traitsIcESaIcEEESt4pairIKS5_N8nlohmann10basic_jsonISt3mapSt6vectorS5_blmdSaNS8_14adl_serializerESB_IhSaIhEEEEESt10_Select1stISG_ESt4lessIS5_ESaISG_EE4sizeEv	0000000000000000 .text._ZNKSt8_Rb_treeINSt7__cxx1112basic_stringIcSt11char_traitsIcESaIcEEESt4pairIKS5_N8nlohmann10basic_jsonISt3mapSt6vectorS5_blmdSaNS8_14adl_serializerESB_IhSaIhEEEEESt10_Select1stISG_ESt4lessIS5_ESaISG_EE4sizeEv
0000000000000000 l    d  .text._ZNSt6vectorIN8tinygltf5ValueESaIS1_EE11_S_max_sizeERKS2_	0000000000000000 .text._ZNSt6vectorIN8tinygltf5ValueESaIS1_EE11_S_max_sizeERKS2_
0000000000000000 l    d  .text._ZNSt6vectorIN8tinygltf5ValueESaIS1_EE14_S_do_relocateEPS1_S4_S4_RS2_St17integral_constantIbLb1EE	0000000000000000 .text._ZNSt6vectorIN8tinygltf5ValueESaIS1_EE14_S_do_relocateEPS1_S4_S4_RS2_St17integral_constantIbLb1EE
0000000000000000 l    d  .text._ZNSt13move_iteratorIPN8tinygltf5ValueEEC2ES2_	0000000000000000 .text._ZNSt13move_iteratorIPN8tinygltf5ValueEEC2ES2_
0000000000000000 l    d  .text._ZSt22__uninitialized_copy_aISt13move_iteratorIPN8tinygltf5ValueEES3_S2_ET0_T_S6_S5_RSaIT1_E	0000000000000000 .text._ZSt22__uninitialized_copy_aISt13move_iteratorIPN8tinygltf5ValueEES3_S2_ET0_T_S6_S5_RSaIT1_E
0000000000000000 l    d  .text._ZN8tinygltf5ValueC2EOS0_	0000000000000000 .text._ZN8tinygltf5ValueC2EOS0_
0000000000000000 l    d  .text._ZNKSt6vectorIN8tinygltf5ValueESaIS1_EE12_M_check_lenEmPKc	0000000000000000 .text._ZNKSt6vectorIN8tinygltf5ValueESaIS1_EE12_M_check_lenEmPKc
0000000000000000 l    d  .text._ZN9__gnu_cxxmiIPN8tinygltf5ValueESt6vectorIS2_SaIS2_EEEENS_17__normal_iteratorIT_T0_E15difference_typeERKSA_SD_	0000000000000000 .text._ZN9__gnu_cxxmiIPN8tinygltf5ValueESt6vectorIS2_SaIS2_EEEENS_17__normal_iteratorIT_T0_E15difference_typeERKSA_SD_
0000000000000000 l    d  .text._ZNK9__gnu_cxx17__normal_iteratorIPN8tinygltf5ValueESt6vectorIS2_SaIS2_EEE4baseEv	0000000000000000 .text._ZNK9__gnu_cxx17__normal_iteratorIPN8tinygltf5ValueESt6vectorIS2_SaIS2_EEE4baseEv
0000000000000000 l    d  .text._ZSt34__uninitialized_move_if_noexcept_aIPN8tinygltf5ValueES2_SaIS1_EET0_T_S5_S4_RT1_	0000000000000000 .text._ZSt34__uninitialized_move_if_noexcept_aIPN8tinygltf5ValueES2_SaIS1_EET0_T_S5_S4_RT1_
0000000000000000 l    d  .text._ZN8nlohmann14adl_serializerIbvE9from_jsonIRKNS_10basic_jsonISt3mapSt6vectorNSt7__cxx1112basic_stringIcSt11char_traitsIcESaIcEEEblmdSaS0_S5_IhSaIhEEEEbEEDTcmclL_ZNS_12_GLOBAL__N_19from_jsonEEcl7forwardIT_Efp_Efp0_Ecvv_EEOSI_RT0_	0000000000000000 .text._ZN8nlohmann14adl_serializerIbvE9from_jsonIRKNS_10basic_jsonISt3mapSt6vectorNSt7__cxx1112basic_stringIcSt11char_traitsIcESaIcEEEblmdSaS0_S5_IhSaIhEEEEbEEDTcmclL_ZNS_12_GLOBAL__N_19from_jsonEEcl7forwardIT_Efp_Efp0_Ecvv_EEOSI_RT0_
0000000000000000 l    d  .text._ZN8nlohmann14adl_serializerImvE9from_jsonIRKNS_10basic_jsonISt3mapSt6vectorNSt7__cxx1112basic_stringIcSt11char_traitsIcESaIcEEEblmdSaS0_S5_IhSaIhEEEEmEEDTcmclL_ZNS_12_GLOBAL__N_19from_jsonEEcl7forwardIT_Efp_Efp0_Ecvv_EEOSI_RT0_	0000000000000000 .text._ZN8nlohmann14adl_serializerImvE9from_jsonIRKNS_10basic_jsonISt3mapSt6vectorNSt7__cxx1112basic_stringIcSt11char_traitsIcESaIcEEEblmdSaS0_S5_IhSaIhEEEEmEEDTcmclL_ZNS_12_GLOBAL__N_19from_jsonEEcl7forwardIT_Efp_Efp0_Ecvv_EEOSI_RT0_
0000000000000000 l    d  .text._ZSt9__advanceISt17_Rb_tree_iteratorISt4pairIKNSt7__cxx1112basic_stringIcSt11char_traitsIcESaIcEEEN8nlohmann10basic_jsonISt3mapSt6vectorS7_blmdSaNS9_14adl_serializerESC_IhSaIhEEEEEElEvRT_T0_St26bidirectional_iterator_tag	0000000000000000 .text._ZSt9__advanceISt17_Rb_tree_iteratorISt4pairIKNSt7__cxx1112basic_stringIcSt11char_traitsIcESaIcEEEN8nlohmann10basic_jsonISt3mapSt6vectorS7_blmdSaNS9_14adl_serializerESC_IhSaIhEEEEEElEvRT_T0_St26bidirectional_iterator_tag
0000000000000000 l    d  .text._ZSt9__advanceIN9__gnu_cxx17__normal_iteratorIPN8nlohmann10basic_jsonISt3mapSt6vectorNSt7__cxx1112basic_stringIcSt11char_traitsIcESaIcEEEblmdSaNS2_14adl_serializerES5_IhSaIhEEEES5_ISF_SaISF_EEEElEvRT_T0_St26random_access_iterator_tag	0000000000000000 .text._ZSt9__advanceIN9__gnu_cxx17__normal_iteratorIPN8nlohmann10basic_jsonISt3mapSt6vectorNSt7__cxx1112basic_stringIcSt11char_traitsIcESaIcEEEblmdSaNS2_14adl_serializerES5_IhSaIhEEEES5_ISF_SaISF_EEEElEvRT_T0_St26random_access_iterator_tag
0000000000000000 l    d  .text._ZNSt8_Rb_treeINSt7__cxx1112basic_stringIcSt11char_traitsIcESaIcEEESt4pairIKS5_N8nlohmann10basic_jsonISt3mapSt6vectorS5_blmdSaNS8_14adl_serializerESB_IhSaIhEEEEESt10_Select1stISG_ESt4lessIS5_ESaISG_EE3endEv	0000000000000000 .text._ZNSt8_Rb_treeINSt7__cxx1112basic_stringIcSt11char_traitsIcESaIcEEESt4pairIKS5_N8nlohmann10basic_jsonISt3mapSt6vectorS5_blmdSaNS8_14adl_serializerESB_IhSaIhEEEEESt10_Select1stISG_ESt4lessIS5_ESaISG_EE3endEv
0000000000000000 l    d  .text._ZN9__gnu_cxx17__normal_iteratorIPN8nlohmann10basic_jsonISt3mapSt6vectorNSt7__cxx1112basic_stringIcSt11char_traitsIcESaIcEEEblmdSaNS1_14adl_serializerES4_IhSaIhEEEES4_ISE_SaISE_EEEC2ERKSF_	0000000000000000 .text._ZN9__gnu_cxx17__normal_iteratorIPN8nlohmann10basic_jsonISt3mapSt6vectorNSt7__cxx1112basic_stringIcSt11char_traitsIcESaIcEEEblmdSaNS1_14adl_serializerES4_IhSaIhEEEES4_ISE_SaISE_EEEC2ERKSF_
0000000000000000 l    d  .text._ZN9__gnu_cxx17__normal_iteratorIPdSt6vectorIdSaIdEEEC2ERKS1_	0000000000000000 .text._ZN9__gnu_cxx17__normal_iteratorIPdSt6vectorIdSaIdEEEC2ERKS1_
0000000000000000 l    d  .text._ZNKSt6vectorIdSaIdEE12_M_check_lenEmPKc	0000000000000000 .text._ZNKSt6vectorIdSaIdEE12_M_check_lenEmPKc
0000000000000000 l    d  .text._ZN9__gnu_cxxmiIPdSt6vectorIdSaIdEEEENS_17__normal_iteratorIT_T0_E15difference_typeERKS8_SB_	0000000000000000 .text._ZN9__gnu_cxxmiIPdSt6vectorIdSaIdEEEENS_17__normal_iteratorIT_T0_E15difference_typeERKS8_SB_
0000000000000000 l    d  .text._ZNSt6vectorIdSaIdEE11_S_relocateEPdS2_S2_RS0_	0000000000000000 .text._ZNSt6vectorIdSaIdEE11_S_relocateEPdS2_S2_RS0_
0000000000000000 l    d  .text._ZNK9__gnu_cxx17__normal_iteratorIPdSt6vectorIdSaIdEEE4baseEv	0000000000000000 .text._ZNK9__gnu_cxx17__normal_iteratorIPdSt6vectorIdSaIdEEE4baseEv
0000000000000000 l    d  .text._ZSt34__uninitialized_move_if_noexcept_aIPdS0_SaIdEET0_T_S3_S2_RT1_	0000000000000000 .text._ZSt34__uninitialized_move_if_noexcept_aIPdS0_SaIdEET0_T_S3_S2_RT1_
0000000000000000 l    d  .text._ZN9__gnu_cxx17__normal_iteratorIPiSt6vectorIiSaIiEEEC2ERKS1_	0000000000000000 .text._ZN9__gnu_cxx17__normal_iteratorIPiSt6vectorIiSaIiEEEC2ERKS1_
0000000000000000 l    d  .text._ZNKSt6vectorIiSaIiEE12_M_check_lenEmPKc	0000000000000000 .text._ZNKSt6vectorIiSaIiEE12_M_check_lenEmPKc
0000000000000000 l    d  .text._ZNSt6vectorIiSaIiEE5beginEv	0000000000000000 .text._ZNSt6vectorIiSaIiEE5beginEv
0000000000000000 l    d  .text._ZN9__gnu_cxxmiIPiSt6vectorIiSaIiEEEENS_17__normal_iteratorIT_T0_E15difference_typeERKS8_SB_	0000000000000000 .text._ZN9__gnu_cxxmiIPiSt6vectorIiSaIiEEEENS_17__normal_iteratorIT_T0_E15difference_typeERKS8_SB_
0000000000000000 l    d  .text._ZNSt12_Vector_baseIiSaIiEE11_M_allocateEm	0000000000000000 .text._ZNSt12_Vector_baseIiSaIiEE11_M_allocateEm
0000000000000000 l    d  .text._ZNSt6vectorIiSaIiEE11_S_relocateEPiS2_S2_RS0_	0000000000000000 .text._ZNSt6vectorIiSaIiEE11_S_relocateEPiS2_S2_RS0_
0000000000000000 l    d  .text._ZNK9__gnu_cxx17__normal_iteratorIPiSt6vectorIiSaIiEEE4baseEv	0000000000000000 .text._ZNK9__gnu_cxx17__normal_iteratorIPiSt6vectorIiSaIiEEE4baseEv
0000000000000000 l    d  .text._ZSt34__uninitialized_move_if_noexcept_aIPiS0_SaIiEET0_T_S3_S2_RT1_	0000000000000000 .text._ZSt34__uninitialized_move_if_noexcept_aIPiS0_SaIiEET0_T_S3_S2_RT1_
0000000000000000 l    d  .text._ZNSt8_Rb_treeINSt7__cxx1112basic_stringIcSt11char_traitsIcESaIcEEESt4pairIKS5_iESt10_Select1stIS8_ESt4lessIS5_ESaIS8_EE11lower_boundERS7_	0000000000000000 .text._ZNSt8_Rb_treeINSt7__cxx1112basic_stringIcSt11char_traitsIcESaIcEEESt4pairIKS5_iESt10_Select1stIS8_ESt4lessIS5_ESaIS8_EE11lower_boundERS7_
0000000000000000 l    d  .text._ZNKSt8_Rb_treeINSt7__cxx1112basic_stringIcSt11char_traitsIcESaIcEEESt4pairIKS5_iESt10_Select1stIS8_ESt4lessIS5_ESaIS8_EE8key_compEv	0000000000000000 .text._ZNKSt8_Rb_treeINSt7__cxx1112basic_stringIcSt11char_traitsIcESaIcEEESt4pairIKS5_iESt10_Select1stIS8_ESt4lessIS5_ESaIS8_EE8key_compEv
0000000000000000 l    d  .text._ZStltIcSt11char_traitsIcESaIcEEbRKNSt7__cxx1112basic_stringIT_T0_T1_EESA_	0000000000000000 .text._ZStltIcSt11char_traitsIcESaIcEEbRKNSt7__cxx1112basic_stringIT_T0_T1_EESA_
0000000000000000 l    d  .text._ZNSt5tupleIJONSt7__cxx1112basic_stringIcSt11char_traitsIcESaIcEEEEEC2IJS5_ELb1ELb1EEEDpOT_	0000000000000000 .text._ZNSt5tupleIJONSt7__cxx1112basic_stringIcSt11char_traitsIcESaIcEEEEEC2IJS5_ELb1ELb1EEEDpOT_
0000000000000000 l    d  .text._ZNSt11_Tuple_implILm0EJONSt7__cxx1112basic_stringIcSt11char_traitsIcESaIcEEEEEC2EOS7_	0000000000000000 .text._ZNSt11_Tuple_implILm0EJONSt7__cxx1112basic_stringIcSt11char_traitsIcESaIcEEEEEC2EOS7_
0000000000000000 l    d  .text._ZSt7forwardIRKSt21piecewise_construct_tEOT_RNSt16remove_referenceIS3_E4typeE	0000000000000000 .text._ZSt7forwardIRKSt21piecewise_construct_tEOT_RNSt16remove_referenceIS3_E4typeE
0000000000000000 l    d  .text._ZSt7forwardISt5tupleIJONSt7__cxx1112basic_stringIcSt11char_traitsIcESaIcEEEEEEOT_RNSt16remove_referenceIS9_E4typeE	0000000000000000 .text._ZSt7forwardISt5tupleIJONSt7__cxx1112basic_stringIcSt11char_traitsIcESaIcEEEEEEOT_RNSt16remove_referenceIS9_E4typeE
0000000000000000 l    d  .text._ZSt7forwardISt5tupleIJEEEOT_RNSt16remove_referenceIS2_E4typeE	0000000000000000 .text._ZSt7forwardISt5tupleIJEEEOT_RNSt16remove_referenceIS2_E4typeE
0000000000000000 l    d  .text._ZNSt8_Rb_treeINSt7__cxx1112basic_stringIcSt11char_traitsIcESaIcEEESt4pairIKS5_iESt10_Select1stIS8_ESt4lessIS5_ESaIS8_EE10_Auto_nodeC2IJRKSt21piecewise_construct_tSt5tupleIJOS5_EESK_IJEEEEERSE_DpOT_	0000000000000000 .text._ZNSt8_Rb_treeINSt7__cxx1112basic_stringIcSt11char_traitsIcESaIcEEESt4pairIKS5_iESt10_Select1stIS8_ESt4lessIS5_ESaIS8_EE10_Auto_nodeC2IJRKSt21piecewise_construct_tSt5tupleIJOS5_EESK_IJEEEEERSE_DpOT_
0000000000000000 l    d  .text._ZNSt8_Rb_treeINSt7__cxx1112basic_stringIcSt11char_traitsIcESaIcEEESt4pairIKS5_iESt10_Select1stIS8_ESt4lessIS5_ESaIS8_EE10_Auto_nodeD2Ev	0000000000000000 .text._ZNSt8_Rb_treeINSt7__cxx1112basic_stringIcSt11char_traitsIcESaIcEEESt4pairIKS5_iESt10_Select1stIS8_ESt4lessIS5_ESaIS8_EE10_Auto_nodeD2Ev
0000000000000000 l    d  .text._ZNSt8_Rb_treeINSt7__cxx1112basic_stringIcSt11char_traitsIcESaIcEEESt4pairIKS5_iESt10_Select1stIS8_ESt4lessIS5_ESaIS8_EE29_M_get_insert_hint_unique_posESt23_Rb_tree_const_iteratorIS8_ERS7_	0000000000000000 .text._ZNSt8_Rb_treeINSt7__cxx1112basic_stringIcSt11char_traitsIcESaIcEEESt4pairIKS5_iESt10_Select1stIS8_ESt4lessIS5_ESaIS8_EE29_M_get_insert_hint_unique_posESt23_Rb_tree_const_iteratorIS8_ERS7_
0000000000000000 l    d  .text._ZNKSt8_Rb_treeINSt7__cxx1112basic_stringIcSt11char_traitsIcESaIcEEESt4pairIKS5_iESt10_Select1stIS8_ESt4lessIS5_ESaIS8_EE10_Auto_node6_M_keyEv	0000000000000000 .text._ZNKSt8_Rb_treeINSt7__cxx1112basic_stringIcSt11char_traitsIcESaIcEEESt4pairIKS5_iESt10_Select1stIS8_ESt4lessIS5_ESaIS8_EE10_Auto_node6_M_keyEv
0000000000000000 l    d  .text._ZNSt8_Rb_treeINSt7__cxx1112basic_stringIcSt11char_traitsIcESaIcEEESt4pairIKS5_iESt10_Select1stIS8_ESt4lessIS5_ESaIS8_EE10_Auto_node9_M_insertES6_IPSt18_Rb_tree_node_baseSH_E	0000000000000000 .text._ZNSt8_Rb_treeINSt7__cxx1112basic_stringIcSt11char_traitsIcESaIcEEESt4pairIKS5_iESt10_Select1stIS8_ESt4lessIS5_ESaIS8_EE10_Auto_node9_M_insertES6_IPSt18_Rb_tree_node_baseSH_E
0000000000000000 l    d  .text._ZNSt17_Rb_tree_iteratorISt4pairIKNSt7__cxx1112basic_stringIcSt11char_traitsIcESaIcEEEiEEC2EPSt18_Rb_tree_node_base	0000000000000000 .text._ZNSt17_Rb_tree_iteratorISt4pairIKNSt7__cxx1112basic_stringIcSt11char_traitsIcESaIcEEEiEEC2EPSt18_Rb_tree_node_base
0000000000000000 l    d  .text._ZNSt8_Rb_treeINSt7__cxx1112basic_stringIcSt11char_traitsIcESaIcEEESt4pairIKS5_dESt10_Select1stIS8_ESt4lessIS5_ESaIS8_EE10_Auto_nodeC2IJS5_RdEEERSE_DpOT_	0000000000000000 .text._ZNSt8_Rb_treeINSt7__cxx1112basic_stringIcSt11char_traitsIcESaIcEEESt4pairIKS5_dESt10_Select1stIS8_ESt4lessIS5_ESaIS8_EE10_Auto_nodeC2IJS5_RdEEERSE_DpOT_
0000000000000000 l    d  .text._ZNSt8_Rb_treeINSt7__cxx1112basic_stringIcSt11char_traitsIcESaIcEEESt4pairIKS5_dESt10_Select1stIS8_ESt4lessIS5_ESaIS8_EE10_Auto_nodeD2Ev	0000000000000000 .text._ZNSt8_Rb_treeINSt7__cxx1112basic_stringIcSt11char_traitsIcESaIcEEESt4pairIKS5_dESt10_Select1stIS8_ESt4lessIS5_ESaIS8_EE10_Auto_nodeD2Ev
0000000000000000 l    d  .text._ZNSt8_Rb_treeINSt7__cxx1112basic_stringIcSt11char_traitsIcESaIcEEESt4pairIKS5_dESt10_Select1stIS8_ESt4lessIS5_ESaIS8_EE24_M_get_insert_unique_posERS7_	0000000000000000 .text._ZNSt8_Rb_treeINSt7__cxx1112basic_stringIcSt11char_traitsIcESaIcEEESt4pairIKS5_dESt10_Select1stIS8_ESt4lessIS5_ESaIS8_EE24_M_get_insert_unique_posERS7_
0000000000000000 l    d  .text._ZNKSt8_Rb_treeINSt7__cxx1112basic_stringIcSt11char_traitsIcESaIcEEESt4pairIKS5_dESt10_Select1stIS8_ESt4lessIS5_ESaIS8_EE10_Auto_node6_M_keyEv	0000000000000000 .text._ZNKSt8_Rb_treeINSt7__cxx1112basic_stringIcSt11char_traitsIcESaIcEEESt4pairIKS5_dESt10_Select1stIS8_ESt4lessIS5_ESaIS8_EE10_Auto_node6_M_keyEv
0000000000000000 l    d  .text._ZNSt8_Rb_treeINSt7__cxx1112basic_stringIcSt11char_traitsIcESaIcEEESt4pairIKS5_dESt10_Select1stIS8_ESt4lessIS5_ESaIS8_EE10_Auto_node9_M_insertES6_IPSt18_Rb_tree_node_baseSH_E	0000000000000000 .text._ZNSt8_Rb_treeINSt7__cxx1112basic_stringIcSt11char_traitsIcESaIcEEESt4pairIKS5_dESt10_Select1stIS8_ESt4lessIS5_ESaIS8_EE10_Auto_node9_M_insertES6_IPSt18_Rb_tree_node_baseSH_E
0000000000000000 l    d  .text._ZNSt4pairISt17_Rb_tree_iteratorIS_IKNSt7__cxx1112basic_stringIcSt11char_traitsIcESaIcEEEdEEbEC2IS9_bLb1EEEOT_OT0_	0000000000000000 .text._ZNSt4pairISt17_Rb_tree_iteratorIS_IKNSt7__cxx1112basic_stringIcSt11char_traitsIcESaIcEEEdEEbEC2IS9_bLb1EEEOT_OT0_
0000000000000000 l    d  .text._ZNSt17_Rb_tree_iteratorISt4pairIKNSt7__cxx1112basic_stringIcSt11char_traitsIcESaIcEEEdEEC2EPSt18_Rb_tree_node_base	0000000000000000 .text._ZNSt17_Rb_tree_iteratorISt4pairIKNSt7__cxx1112basic_stringIcSt11char_traitsIcESaIcEEEdEEC2EPSt18_Rb_tree_node_base
0000000000000000 l    d  .text._ZNSt8_Rb_treeINSt7__cxx1112basic_stringIcSt11char_traitsIcESaIcEEESt4pairIKS5_N8tinygltf5ValueEESt10_Select1stISA_ESt4lessIS5_ESaISA_EE11lower_boundERS7_	0000000000000000 .text._ZNSt8_Rb_treeINSt7__cxx1112basic_stringIcSt11char_traitsIcESaIcEEESt4pairIKS5_N8tinygltf5ValueEESt10_Select1stISA_ESt4lessIS5_ESaISA_EE11lower_boundERS7_
0000000000000000 l    d  .text._ZNKSt8_Rb_treeINSt7__cxx1112basic_stringIcSt11char_traitsIcESaIcEEESt4pairIKS5_N8tinygltf5ValueEESt10_Select1stISA_ESt4lessIS5_ESaISA_EE8key_compEv	0000000000000000 .text._ZNKSt8_Rb_treeINSt7__cxx1112basic_stringIcSt11char_traitsIcESaIcEEESt4pairIKS5_N8tinygltf5ValueEESt10_Select1stISA_ESt4lessIS5_ESaISA_EE8key_compEv
0000000000000000 l    d  .text._ZNSt11_Tuple_implILm0EJRKNSt7__cxx1112basic_stringIcSt11char_traitsIcESaIcEEEEEC2ES7_	0000000000000000 .text._ZNSt11_Tuple_implILm0EJRKNSt7__cxx1112basic_stringIcSt11char_traitsIcESaIcEEEEEC2ES7_
0000000000000000 l    d  .text._ZSt7forwardISt5tupleIJRKNSt7__cxx1112basic_stringIcSt11char_traitsIcESaIcEEEEEEOT_RNSt16remove_referenceISA_E4typeE	0000000000000000 .text._ZSt7forwardISt5tupleIJRKNSt7__cxx1112basic_stringIcSt11char_traitsIcESaIcEEEEEEOT_RNSt16remove_referenceISA_E4typeE
0000000000000000 l    d  .text._ZNSt8_Rb_treeINSt7__cxx1112basic_stringIcSt11char_traitsIcESaIcEEESt4pairIKS5_N8tinygltf5ValueEESt10_Select1stISA_ESt4lessIS5_ESaISA_EE10_Auto_nodeC2IJRKSt21piecewise_construct_tSt5tupleIJRS7_EESM_IJEEEEERSG_DpOT_	0000000000000000 .text._ZNSt8_Rb_treeINSt7__cxx1112basic_stringIcSt11char_traitsIcESaIcEEESt4pairIKS5_N8tinygltf5ValueEESt10_Select1stISA_ESt4lessIS5_ESaISA_EE10_Auto_nodeC2IJRKSt21piecewise_construct_tSt5tupleIJRS7_EESM_IJEEEEERSG_DpOT_
0000000000000000 l    d  .text._ZNSt8_Rb_treeINSt7__cxx1112basic_stringIcSt11char_traitsIcESaIcEEESt4pairIKS5_N8tinygltf5ValueEESt10_Select1stISA_ESt4lessIS5_ESaISA_EE29_M_get_insert_hint_unique_posESt23_Rb_tree_const_iteratorISA_ERS7_	0000000000000000 .text._ZNSt8_Rb_treeINSt7__cxx1112basic_stringIcSt11char_traitsIcESaIcEEESt4pairIKS5_N8tinygltf5ValueEESt10_Select1stISA_ESt4lessIS5_ESaISA_EE29_M_get_insert_hint_unique_posESt23_Rb_tree_const_iteratorISA_ERS7_
0000000000000000 l    d  .text._ZNSt8_Rb_treeINSt7__cxx1112basic_stringIcSt11char_traitsIcESaIcEEESt4pairIKS5_iESt10_Select1stIS8_ESt4lessIS5_ESaIS8_EE8_S_rightEPSt18_Rb_tree_node_base	0000000000000000 .text._ZNSt8_Rb_treeINSt7__cxx1112basic_stringIcSt11char_traitsIcESaIcEEESt4pairIKS5_iESt10_Select1stIS8_ESt4lessIS5_ESaIS8_EE8_S_rightEPSt18_Rb_tree_node_base
0000000000000000 l    d  .text._ZNSt8_Rb_treeINSt7__cxx1112basic_stringIcSt11char_traitsIcESaIcEEESt4pairIKS5_iESt10_Select1stIS8_ESt4lessIS5_ESaIS8_EE7_S_leftEPSt18_Rb_tree_node_base	0000000000000000 .text._ZNSt8_Rb_treeINSt7__cxx1112basic_stringIcSt11char_traitsIcESaIcEEESt4pairIKS5_iESt10_Select1stIS8_ESt4lessIS5_ESaIS8_EE7_S_leftEPSt18_Rb_tree_node_base
0000000000000000 l    d  .text._ZNSt8_Rb_treeINSt7__cxx1112basic_stringIcSt11char_traitsIcESaIcEEESt4pairIKS5_iESt10_Select1stIS8_ESt4lessIS5_ESaIS8_EE12_M_drop_nodeEPSt13_Rb_tree_nodeIS8_E	0000000000000000 .text._ZNSt8_Rb_treeINSt7__cxx1112basic_stringIcSt11char_traitsIcESaIcEEESt4pairIKS5_iESt10_Select1stIS8_ESt4lessIS5_ESaIS8_EE12_M_drop_nodeEPSt13_Rb_tree_nodeIS8_E
0000000000000000 l    d  .text._ZNKSt8_Rb_treeINSt7__cxx1112basic_stringIcSt11char_traitsIcESaIcEEESt4pairIKS5_iESt10_Select1stIS8_ESt4lessIS5_ESaIS8_EE9_M_mbeginEv	0000000000000000 .text._ZNKSt8_Rb_treeINSt7__cxx1112basic_stringIcSt11char_traitsIcESaIcEEESt4pairIKS5_iESt10_Select1stIS8_ESt4lessIS5_ESaIS8_EE9_M_mbeginEv
0000000000000000 l    d  .text._ZNSt8_Rb_treeINSt7__cxx1112basic_stringIcSt11char_traitsIcESaIcEEESt4pairIKS5_iESt10_Select1stIS8_ESt4lessIS5_ESaIS8_EE13_Rb_tree_implISC_Lb1EEC2EOSG_	0000000000000000 .text._ZNSt8_Rb_treeINSt7__cxx1112basic_stringIcSt11char_traitsIcESaIcEEESt4pairIKS5_iESt10_Select1stIS8_ESt4lessIS5_ESaIS8_EE13_Rb_tree_implISC_Lb1EEC2EOSG_
0000000000000000 l    d  .text._ZNSt8_Rb_treeINSt7__cxx1112basic_stringIcSt11char_traitsIcESaIcEEESt4pairIKS5_iESt10_Select1stIS8_ESt4lessIS5_ESaIS8_EEC2EOSE_	0000000000000000 .text._ZNSt8_Rb_treeINSt7__cxx1112basic_stringIcSt11char_traitsIcESaIcEEESt4pairIKS5_iESt10_Select1stIS8_ESt4lessIS5_ESaIS8_EEC2EOSE_
0000000000000000 l    d  .text._ZNSt3mapINSt7__cxx1112basic_stringIcSt11char_traitsIcESaIcEEEiSt4lessIS5_ESaISt4pairIKS5_iEEEC2EOSC_	0000000000000000 .text._ZNSt3mapINSt7__cxx1112basic_stringIcSt11char_traitsIcESaIcEEEiSt4lessIS5_ESaISt4pairIKS5_iEEEC2EOSC_
0000000000000000 l    d  .text._ZNKSt6vectorISt3mapINSt7__cxx1112basic_stringIcSt11char_traitsIcESaIcEEEiSt4lessIS6_ESaISt4pairIKS6_iEEESaISD_EE12_M_check_lenEmPKc	0000000000000000 .text._ZNKSt6vectorISt3mapINSt7__cxx1112basic_stringIcSt11char_traitsIcESaIcEEEiSt4lessIS6_ESaISt4pairIKS6_iEEESaISD_EE12_M_check_lenEmPKc
0000000000000000 l    d  .text._ZN9__gnu_cxxmiIPSt3mapINSt7__cxx1112basic_stringIcSt11char_traitsIcESaIcEEEiSt4lessIS7_ESaISt4pairIKS7_iEEESt6vectorISE_SaISE_EEEENS_17__normal_iteratorIT_T0_E15difference_typeERKSM_SP_	0000000000000000 .text._ZN9__gnu_cxxmiIPSt3mapINSt7__cxx1112basic_stringIcSt11char_traitsIcESaIcEEEiSt4lessIS7_ESaISt4pairIKS7_iEEESt6vectorISE_SaISE_EEEENS_17__normal_iteratorIT_T0_E15difference_typeERKSM_SP_
0000000000000000 l    d  .text._ZNSt12_Vector_baseISt3mapINSt7__cxx1112basic_stringIcSt11char_traitsIcESaIcEEEiSt4lessIS6_ESaISt4pairIKS6_iEEESaISD_EE11_M_allocateEm	0000000000000000 .text._ZNSt12_Vector_baseISt3mapINSt7__cxx1112basic_stringIcSt11char_traitsIcESaIcEEEiSt4lessIS6_ESaISt4pairIKS6_iEEESaISD_EE11_M_allocateEm
0000000000000000 l    d  .text._ZNSt6vectorISt3mapINSt7__cxx1112basic_stringIcSt11char_traitsIcESaIcEEEiSt4lessIS6_ESaISt4pairIKS6_iEEESaISD_EE11_S_relocateEPSD_SG_SG_RSE_	0000000000000000 .text._ZNSt6vectorISt3mapINSt7__cxx1112basic_stringIcSt11char_traitsIcESaIcEEEiSt4lessIS6_ESaISt4pairIKS6_iEEESaISD_EE11_S_relocateEPSD_SG_SG_RSE_
0000000000000000 l    d  .text._ZSt34__uninitialized_move_if_noexcept_aIPSt3mapINSt7__cxx1112basic_stringIcSt11char_traitsIcESaIcEEEiSt4lessIS6_ESaISt4pairIKS6_iEEESE_SaISD_EET0_T_SH_SG_RT1_	0000000000000000 .text._ZSt34__uninitialized_move_if_noexcept_aIPSt3mapINSt7__cxx1112basic_stringIcSt11char_traitsIcESaIcEEEiSt4lessIS6_ESaISt4pairIKS6_iEEESE_SaISD_EET0_T_SH_SG_RT1_
0000000000000000 l    d  .text._ZSt8_DestroyIPSt3mapINSt7__cxx1112basic_stringIcSt11char_traitsIcESaIcEEEiSt4lessIS6_ESaISt4pairIKS6_iEEEEvT_SF_	0000000000000000 .text._ZSt8_DestroyIPSt3mapINSt7__cxx1112basic_stringIcSt11char_traitsIcESaIcEEEiSt4lessIS6_ESaISt4pairIKS6_iEEEEvT_SF_
0000000000000000 l    d  .text._ZNSt12_Vector_baseISt3mapINSt7__cxx1112basic_stringIcSt11char_traitsIcESaIcEEEiSt4lessIS6_ESaISt4pairIKS6_iEEESaISD_EEC2EOSF_	0000000000000000 .text._ZNSt12_Vector_baseISt3mapINSt7__cxx1112basic_stringIcSt11char_traitsIcESaIcEEEiSt4lessIS6_ESaISt4pairIKS6_iEEESaISD_EEC2EOSF_
0000000000000000 l    d  .text._ZNSt6vectorISt3mapINSt7__cxx1112basic_stringIcSt11char_traitsIcESaIcEEEiSt4lessIS6_ESaISt4pairIKS6_iEEESaISD_EEC2EOSF_	0000000000000000 .text._ZNSt6vectorISt3mapINSt7__cxx1112basic_stringIcSt11char_traitsIcESaIcEEEiSt4lessIS6_ESaISt4pairIKS6_iEEESaISD_EEC2EOSF_
0000000000000000 l    d  .text._ZN8tinygltf9PrimitiveC2EOS0_	0000000000000000 .text._ZN8tinygltf9PrimitiveC2EOS0_
0000000000000000 l    d  .text._ZNKSt6vectorIN8tinygltf9PrimitiveESaIS1_EE12_M_check_lenEmPKc	0000000000000000 .text._ZNKSt6vectorIN8tinygltf9PrimitiveESaIS1_EE12_M_check_lenEmPKc
0000000000000000 l    d  .text._ZN9__gnu_cxxmiIPN8tinygltf9PrimitiveESt6vectorIS2_SaIS2_EEEENS_17__normal_iteratorIT_T0_E15difference_typeERKSA_SD_	0000000000000000 .text._ZN9__gnu_cxxmiIPN8tinygltf9PrimitiveESt6vectorIS2_SaIS2_EEEENS_17__normal_iteratorIT_T0_E15difference_typeERKSA_SD_
0000000000000000 l    d  .text._ZNSt12_Vector_baseIN8tinygltf9PrimitiveESaIS1_EE11_M_allocateEm	0000000000000000 .text._ZNSt12_Vector_baseIN8tinygltf9PrimitiveESaIS1_EE11_M_allocateEm
0000000000000000 l    d  .text._ZNSt6vectorIN8tinygltf9PrimitiveESaIS1_EE11_S_relocateEPS1_S4_S4_RS2_	0000000000000000 .text._ZNSt6vectorIN8tinygltf9PrimitiveESaIS1_EE11_S_relocateEPS1_S4_S4_RS2_
0000000000000000 l    d  .text._ZSt34__uninitialized_move_if_noexcept_aIPN8tinygltf9PrimitiveES2_SaIS1_EET0_T_S5_S4_RT1_	0000000000000000 .text._ZSt34__uninitialized_move_if_noexcept_aIPN8tinygltf9PrimitiveES2_SaIS1_EET0_T_S5_S4_RT1_
0000000000000000 l    d  .text._ZNSt8_Rb_treeINSt7__cxx1112basic_stringIcSt11char_traitsIcESaIcEEESt4pairIKS5_N8tinygltf5ValueEESt10_Select1stISA_ESt4lessIS5_ESaISA_EE10_Auto_nodeC2IJRKSt21piecewise_construct_tSt5tupleIJOS5_EESM_IJEEEEERSG_DpOT_	0000000000000000 .text._ZNSt8_Rb_treeINSt7__cxx1112basic_stringIcSt11char_traitsIcESaIcEEESt4pairIKS5_N8tinygltf5ValueEESt10_Select1stISA_ESt4lessIS5_ESaISA_EE10_Auto_nodeC2IJRKSt21piecewise_construct_tSt5tupleIJOS5_EESM_IJEEEEERSG_DpOT_
0000000000000000 l    d  .text._ZNSt12_Vector_baseIhSaIhEE12_Vector_implC2ERKS0_	0000000000000000 .text._ZNSt12_Vector_baseIhSaIhEE12_Vector_implC2ERKS0_
0000000000000000 l    d  .text._ZNSt12_Vector_baseIhSaIhEE17_M_create_storageEm	0000000000000000 .text._ZNSt12_Vector_baseIhSaIhEE17_M_create_storageEm
0000000000000000 l    d  .text._ZSt18uninitialized_copyIN9__gnu_cxx17__normal_iteratorIPKhSt6vectorIhSaIhEEEEPhET0_T_SA_S9_	0000000000000000 .text._ZSt18uninitialized_copyIN9__gnu_cxx17__normal_iteratorIPKhSt6vectorIhSaIhEEEEPhET0_T_SA_S9_
0000000000000000 l    d  .text._ZNSt12_Vector_baseIN8tinygltf5ValueESaIS1_EE12_Vector_implC2ERKS2_	0000000000000000 .text._ZNSt12_Vector_baseIN8tinygltf5ValueESaIS1_EE12_Vector_implC2ERKS2_
0000000000000000 l    d  .text._ZNSt12_Vector_baseIN8tinygltf5ValueESaIS1_EE17_M_create_storageEm	0000000000000000 .text._ZNSt12_Vector_baseIN8tinygltf5ValueESaIS1_EE17_M_create_storageEm
0000000000000000 l    d  .text._ZSt18uninitialized_copyIN9__gnu_cxx17__normal_iteratorIPKN8tinygltf5ValueESt6vectorIS3_SaIS3_EEEEPS3_ET0_T_SC_SB_	0000000000000000 .text._ZSt18uninitialized_copyIN9__gnu_cxx17__normal_iteratorIPKN8tinygltf5ValueESt6vectorIS3_SaIS3_EEEEPS3_ET0_T_SC_SB_
0000000000000000 l    d  .text._ZSt22__uninitialized_copy_aIN9__gnu_cxx17__normal_iteratorIPKdSt6vectorIdSaIdEEEEPddET0_T_SA_S9_RSaIT1_E	0000000000000000 .text._ZSt22__uninitialized_copy_aIN9__gnu_cxx17__normal_iteratorIPKdSt6vectorIdSaIdEEEEPddET0_T_SA_S9_RSaIT1_E
0000000000000000 l    d  .text._ZSt12__miter_baseIN9__gnu_cxx17__normal_iteratorIPKdSt6vectorIdSaIdEEEEET_S8_	0000000000000000 .text._ZSt12__miter_baseIN9__gnu_cxx17__normal_iteratorIPKdSt6vectorIdSaIdEEEEET_S8_
0000000000000000 l    d  .text._ZSt13__copy_move_aILb0EN9__gnu_cxx17__normal_iteratorIPKdSt6vectorIdSaIdEEEENS1_IPdS6_EEET1_T0_SB_SA_	0000000000000000 .text._ZSt13__copy_move_aILb0EN9__gnu_cxx17__normal_iteratorIPKdSt6vectorIdSaIdEEEENS1_IPdS6_EEET1_T0_SB_SA_
0000000000000000 l    d  .text._ZSt8_DestroyIN9__gnu_cxx17__normal_iteratorIPdSt6vectorIdSaIdEEEEEvT_S7_	0000000000000000 .text._ZSt8_DestroyIN9__gnu_cxx17__normal_iteratorIPdSt6vectorIdSaIdEEEEEvT_S7_
0000000000000000 l    d  .text._ZSt12__miter_baseIPdET_S1_	0000000000000000 .text._ZSt12__miter_baseIPdET_S1_
0000000000000000 l    d  .text._ZSt13__copy_move_aILb0EPdS0_ET1_T0_S2_S1_	0000000000000000 .text._ZSt13__copy_move_aILb0EPdS0_ET1_T0_S2_S1_
0000000000000000 l    d  .text._ZSt18uninitialized_copyIPdS0_ET0_T_S2_S1_	0000000000000000 .text._ZSt18uninitialized_copyIPdS0_ET0_T_S2_S1_
0000000000000000 l    d  .text._ZNSt6vectorIdSaIdEE20_M_allocate_and_copyIPKdEEPdmT_S6_	0000000000000000 .text._ZNSt6vectorIdSaIdEE20_M_allocate_and_copyIPKdEEPdmT_S6_
0000000000000000 l    d  .text._ZSt4copyIPKdPdET0_T_S4_S3_	0000000000000000 .text._ZSt4copyIPKdPdET0_T_S4_S3_
0000000000000000 l    d  .text._ZNSt8_Rb_treeINSt7__cxx1112basic_stringIcSt11char_traitsIcESaIcEEESt4pairIKS5_dESt10_Select1stIS8_ESt4lessIS5_ESaIS8_EE8_S_rightEPSt18_Rb_tree_node_base	0000000000000000 .text._ZNSt8_Rb_treeINSt7__cxx1112basic_stringIcSt11char_traitsIcESaIcEEESt4pairIKS5_dESt10_Select1stIS8_ESt4lessIS5_ESaIS8_EE8_S_rightEPSt18_Rb_tree_node_base
0000000000000000 l    d  .text._ZNSt8_Rb_treeINSt7__cxx1112basic_stringIcSt11char_traitsIcESaIcEEESt4pairIKS5_dESt10_Select1stIS8_ESt4lessIS5_ESaIS8_EE7_S_leftEPSt18_Rb_tree_node_base	0000000000000000 .text._ZNSt8_Rb_treeINSt7__cxx1112basic_stringIcSt11char_traitsIcESaIcEEESt4pairIKS5_dESt10_Select1stIS8_ESt4lessIS5_ESaIS8_EE7_S_leftEPSt18_Rb_tree_node_base
0000000000000000 l    d  .text._ZNSt8_Rb_treeINSt7__cxx1112basic_stringIcSt11char_traitsIcESaIcEEESt4pairIKS5_dESt10_Select1stIS8_ESt4lessIS5_ESaIS8_EE12_M_drop_nodeEPSt13_Rb_tree_nodeIS8_E	0000000000000000 .text._ZNSt8_Rb_treeINSt7__cxx1112basic_stringIcSt11char_traitsIcESaIcEEESt4pairIKS5_dESt10_Select1stIS8_ESt4lessIS5_ESaIS8_EE12_M_drop_nodeEPSt13_Rb_tree_nodeIS8_E
0000000000000000 l    d  .text._ZNKSt8_Rb_treeINSt7__cxx1112basic_stringIcSt11char_traitsIcESaIcEEESt4pairIKS5_dESt10_Select1stIS8_ESt4lessIS5_ESaIS8_EE9_M_mbeginEv	0000000000000000 .text._ZNKSt8_Rb_treeINSt7__cxx1112basic_stringIcSt11char_traitsIcESaIcEEESt4pairIKS5_dESt10_Select1stIS8_ESt4lessIS5_ESaIS8_EE9_M_mbeginEv
0000000000000000 l    d  .text._ZNSt8_Rb_treeINSt7__cxx1112basic_stringIcSt11char_traitsIcESaIcEEESt4pairIKS5_N8tinygltf9ParameterEESt10_Select1stISA_ESt4lessIS5_ESaISA_EE10_Auto_nodeC2IJS5_S9_EEERSG_DpOT_	0000000000000000 .text._ZNSt8_Rb_treeINSt7__cxx1112basic_stringIcSt11char_traitsIcESaIcEEESt4pairIKS5_N8tinygltf9ParameterEESt10_Select1stISA_ESt4lessIS5_ESaISA_EE10_Auto_nodeC2IJS5_S9_EEERSG_DpOT_
0000000000000000 l    d  .text._ZNSt8_Rb_treeINSt7__cxx1112basic_stringIcSt11char_traitsIcESaIcEEESt4pairIKS5_N8tinygltf9ParameterEESt10_Select1stISA_ESt4lessIS5_ESaISA_EE10_Auto_nodeD2Ev	0000000000000000 .text._ZNSt8_Rb_treeINSt7__cxx1112basic_stringIcSt11char_traitsIcESaIcEEESt4pairIKS5_N8tinygltf9ParameterEESt10_Select1stISA_ESt4lessIS5_ESaISA_EE10_Auto_nodeD2Ev
0000000000000000 l    d  .text._ZNSt8_Rb_treeINSt7__cxx1112basic_stringIcSt11char_traitsIcESaIcEEESt4pairIKS5_N8tinygltf9ParameterEESt10_Select1stISA_ESt4lessIS5_ESaISA_EE24_M_get_insert_unique_posERS7_	0000000000000000 .text._ZNSt8_Rb_treeINSt7__cxx1112basic_stringIcSt11char_traitsIcESaIcEEESt4pairIKS5_N8tinygltf9ParameterEESt10_Select1stISA_ESt4lessIS5_ESaISA_EE24_M_get_insert_unique_posERS7_
0000000000000000 l    d  .text._ZNKSt8_Rb_treeINSt7__cxx1112basic_stringIcSt11char_traitsIcESaIcEEESt4pairIKS5_N8tinygltf9ParameterEESt10_Select1stISA_ESt4lessIS5_ESaISA_EE10_Auto_node6_M_keyEv	0000000000000000 .text._ZNKSt8_Rb_treeINSt7__cxx1112basic_stringIcSt11char_traitsIcESaIcEEESt4pairIKS5_N8tinygltf9ParameterEESt10_Select1stISA_ESt4lessIS5_ESaISA_EE10_Auto_node6_M_keyEv
0000000000000000 l    d  .text._ZNSt8_Rb_treeINSt7__cxx1112basic_stringIcSt11char_traitsIcESaIcEEESt4pairIKS5_N8tinygltf9ParameterEESt10_Select1stISA_ESt4lessIS5_ESaISA_EE10_Auto_node9_M_insertES6_IPSt18_Rb_tree_node_baseSJ_E	0000000000000000 .text._ZNSt8_Rb_treeINSt7__cxx1112basic_stringIcSt11char_traitsIcESaIcEEESt4pairIKS5_N8tinygltf9ParameterEESt10_Select1stISA_ESt4lessIS5_ESaISA_EE10_Auto_node9_M_insertES6_IPSt18_Rb_tree_node_baseSJ_E
0000000000000000 l    d  .text._ZNSt4pairISt17_Rb_tree_iteratorIS_IKNSt7__cxx1112basic_stringIcSt11char_traitsIcESaIcEEEN8tinygltf9ParameterEEEbEC2ISB_bLb1EEEOT_OT0_	0000000000000000 .text._ZNSt4pairISt17_Rb_tree_iteratorIS_IKNSt7__cxx1112basic_stringIcSt11char_traitsIcESaIcEEEN8tinygltf9ParameterEEEbEC2ISB_bLb1EEEOT_OT0_
0000000000000000 l    d  .text._ZNSt17_Rb_tree_iteratorISt4pairIKNSt7__cxx1112basic_stringIcSt11char_traitsIcESaIcEEEN8tinygltf9ParameterEEEC2EPSt18_Rb_tree_node_base	0000000000000000 .text._ZNSt17_Rb_tree_iteratorISt4pairIKNSt7__cxx1112basic_stringIcSt11char_traitsIcESaIcEEEN8tinygltf9ParameterEEEC2EPSt18_Rb_tree_node_base
0000000000000000 l    d  .text._ZN8tinygltf16AnimationChannelC2EOS0_	0000000000000000 .text._ZN8tinygltf16AnimationChannelC2EOS0_
0000000000000000 l    d  .text._ZN9__gnu_cxx17__normal_iteratorIPN8tinygltf16AnimationChannelESt6vectorIS2_SaIS2_EEEC2ERKS3_	0000000000000000 .text._ZN9__gnu_cxx17__normal_iteratorIPN8tinygltf16AnimationChannelESt6vectorIS2_SaIS2_EEEC2ERKS3_
0000000000000000 l    d  .text._ZNKSt6vectorIN8tinygltf16AnimationChannelESaIS1_EE12_M_check_lenEmPKc	0000000000000000 .text._ZNKSt6vectorIN8tinygltf16AnimationChannelESaIS1_EE12_M_check_lenEmPKc
0000000000000000 l    d  .text._ZNSt6vectorIN8tinygltf16AnimationChannelESaIS1_EE5beginEv	0000000000000000 .text._ZNSt6vectorIN8tinygltf16AnimationChannelESaIS1_EE5beginEv
0000000000000000 l    d  .text._ZN9__gnu_cxxmiIPN8tinygltf16AnimationChannelESt6vectorIS2_SaIS2_EEEENS_17__normal_iteratorIT_T0_E15difference_typeERKSA_SD_	0000000000000000 .text._ZN9__gnu_cxxmiIPN8tinygltf16AnimationChannelESt6vectorIS2_SaIS2_EEEENS_17__normal_iteratorIT_T0_E15difference_typeERKSA_SD_
0000000000000000 l    d  .text._ZNSt12_Vector_baseIN8tinygltf16AnimationChannelESaIS1_EE11_M_allocateEm	0000000000000000 .text._ZNSt12_Vector_baseIN8tinygltf16AnimationChannelESaIS1_EE11_M_allocateEm
0000000000000000 l    d  .text._ZNSt6vectorIN8tinygltf16AnimationChannelESaIS1_EE11_S_relocateEPS1_S4_S4_RS2_	0000000000000000 .text._ZNSt6vectorIN8tinygltf16AnimationChannelESaIS1_EE11_S_relocateEPS1_S4_S4_RS2_
0000000000000000 l    d  .text._ZNK9__gnu_cxx17__normal_iteratorIPN8tinygltf16AnimationChannelESt6vectorIS2_SaIS2_EEE4baseEv	0000000000000000 .text._ZNK9__gnu_cxx17__normal_iteratorIPN8tinygltf16AnimationChannelESt6vectorIS2_SaIS2_EEE4baseEv
0000000000000000 l    d  .text._ZSt34__uninitialized_move_if_noexcept_aIPN8tinygltf16AnimationChannelES2_SaIS1_EET0_T_S5_S4_RT1_	0000000000000000 .text._ZSt34__uninitialized_move_if_noexcept_aIPN8tinygltf16AnimationChannelES2_SaIS1_EET0_T_S5_S4_RT1_
0000000000000000 l    d  .text._ZN8tinygltf16AnimationSamplerC2EOS0_	0000000000000000 .text._ZN8tinygltf16AnimationSamplerC2EOS0_
0000000000000000 l    d  .text._ZN9__gnu_cxx17__normal_iteratorIPN8tinygltf16AnimationSamplerESt6vectorIS2_SaIS2_EEEC2ERKS3_	0000000000000000 .text._ZN9__gnu_cxx17__normal_iteratorIPN8tinygltf16AnimationSamplerESt6vectorIS2_SaIS2_EEEC2ERKS3_
0000000000000000 l    d  .text._ZNKSt6vectorIN8tinygltf16AnimationSamplerESaIS1_EE12_M_check_lenEmPKc	0000000000000000 .text._ZNKSt6vectorIN8tinygltf16AnimationSamplerESaIS1_EE12_M_check_lenEmPKc
0000000000000000 l    d  .text._ZNSt6vectorIN8tinygltf16AnimationSamplerESaIS1_EE5beginEv	0000000000000000 .text._ZNSt6vectorIN8tinygltf16AnimationSamplerESaIS1_EE5beginEv
0000000000000000 l    d  .text._ZN9__gnu_cxxmiIPN8tinygltf16AnimationSamplerESt6vectorIS2_SaIS2_EEEENS_17__normal_iteratorIT_T0_E15difference_typeERKSA_SD_	0000000000000000 .text._ZN9__gnu_cxxmiIPN8tinygltf16AnimationSamplerESt6vectorIS2_SaIS2_EEEENS_17__normal_iteratorIT_T0_E15difference_typeERKSA_SD_
0000000000000000 l    d  .text._ZNSt12_Vector_baseIN8tinygltf16AnimationSamplerESaIS1_EE11_M_allocateEm	0000000000000000 .text._ZNSt12_Vector_baseIN8tinygltf16AnimationSamplerESaIS1_EE11_M_allocateEm
0000000000000000 l    d  .text._ZNSt6vectorIN8tinygltf16AnimationSamplerESaIS1_EE11_S_relocateEPS1_S4_S4_RS2_	0000000000000000 .text._ZNSt6vectorIN8tinygltf16AnimationSamplerESaIS1_EE11_S_relocateEPS1_S4_S4_RS2_
0000000000000000 l    d  .text._ZNK9__gnu_cxx17__normal_iteratorIPN8tinygltf16AnimationSamplerESt6vectorIS2_SaIS2_EEE4baseEv	0000000000000000 .text._ZNK9__gnu_cxx17__normal_iteratorIPN8tinygltf16AnimationSamplerESt6vectorIS2_SaIS2_EEE4baseEv
0000000000000000 l    d  .text._ZSt34__uninitialized_move_if_noexcept_aIPN8tinygltf16AnimationSamplerES2_SaIS1_EET0_T_S5_S4_RT1_	0000000000000000 .text._ZSt34__uninitialized_move_if_noexcept_aIPN8tinygltf16AnimationSamplerES2_SaIS1_EET0_T_S5_S4_RT1_
0000000000000000 l    d  .text._ZSt8_DestroyIPiEvT_S1_	0000000000000000 .text._ZSt8_DestroyIPiEvT_S1_
0000000000000000 l    d  .text._ZNKSt12_Vector_baseIiSaIiEE13get_allocatorEv	0000000000000000 .text._ZNKSt12_Vector_baseIiSaIiEE13get_allocatorEv
0000000000000000 l    d  .text._ZNSt6vectorIiSaIiEEC2ERKS0_	0000000000000000 .text._ZNSt6vectorIiSaIiEEC2ERKS0_
0000000000000000 l    d  .text._ZNSt12_Vector_baseIiSaIiEE17_Vector_impl_data12_M_swap_dataERS2_	0000000000000000 .text._ZNSt12_Vector_baseIiSaIiEE17_Vector_impl_data12_M_swap_dataERS2_
0000000000000000 l    d  .text._ZNSt12_Vector_baseIN8tinygltf6BufferESaIS1_EE19_M_get_Tp_allocatorEv	0000000000000000 .text._ZNSt12_Vector_baseIN8tinygltf6BufferESaIS1_EE19_M_get_Tp_allocatorEv
0000000000000000 l    d  .text._ZNSt12_Vector_baseIN8tinygltf10BufferViewESaIS1_EE19_M_get_Tp_allocatorEv	0000000000000000 .text._ZNSt12_Vector_baseIN8tinygltf10BufferViewESaIS1_EE19_M_get_Tp_allocatorEv
0000000000000000 l    d  .text._ZNSt12_Vector_baseIN8tinygltf8AccessorESaIS1_EE19_M_get_Tp_allocatorEv	0000000000000000 .text._ZNSt12_Vector_baseIN8tinygltf8AccessorESaIS1_EE19_M_get_Tp_allocatorEv
0000000000000000 l    d  .text._ZNSt12_Vector_baseIN8tinygltf4MeshESaIS1_EE19_M_get_Tp_allocatorEv	0000000000000000 .text._ZNSt12_Vector_baseIN8tinygltf4MeshESaIS1_EE19_M_get_Tp_allocatorEv
0000000000000000 l    d  .text._ZNSt12_Vector_baseIN8tinygltf6CameraESaIS1_EE19_M_get_Tp_allocatorEv	0000000000000000 .text._ZNSt12_Vector_baseIN8tinygltf6CameraESaIS1_EE19_M_get_Tp_allocatorEv
0000000000000000 l    d  .text._ZNSt12_Vector_baseIN8tinygltf4NodeESaIS1_EE19_M_get_Tp_allocatorEv	0000000000000000 .text._ZNSt12_Vector_baseIN8tinygltf4NodeESaIS1_EE19_M_get_Tp_allocatorEv
0000000000000000 l    d  .text._ZN8tinygltf6BufferC2EOS0_	0000000000000000 .text._ZN8tinygltf6BufferC2EOS0_
0000000000000000 l    d  .text._ZN9__gnu_cxx17__normal_iteratorIPN8tinygltf6BufferESt6vectorIS2_SaIS2_EEEC2ERKS3_	0000000000000000 .text._ZN9__gnu_cxx17__normal_iteratorIPN8tinygltf6BufferESt6vectorIS2_SaIS2_EEEC2ERKS3_
0000000000000000 l    d  .text._ZNKSt6vectorIN8tinygltf6BufferESaIS1_EE12_M_check_lenEmPKc	0000000000000000 .text._ZNKSt6vectorIN8tinygltf6BufferESaIS1_EE12_M_check_lenEmPKc
0000000000000000 l    d  .text._ZNSt6vectorIN8tinygltf6BufferESaIS1_EE5beginEv	0000000000000000 .text._ZNSt6vectorIN8tinygltf6BufferESaIS1_EE5beginEv
0000000000000000 l    d  .text._ZN9__gnu_cxxmiIPN8tinygltf6BufferESt6vectorIS2_SaIS2_EEEENS_17__normal_iteratorIT_T0_E15difference_typeERKSA_SD_	0000000000000000 .text._ZN9__gnu_cxxmiIPN8tinygltf6BufferESt6vectorIS2_SaIS2_EEEENS_17__normal_iteratorIT_T0_E15difference_typeERKSA_SD_
0000000000000000 l    d  .text._ZNSt12_Vector_baseIN8tinygltf6BufferESaIS1_EE11_M_allocateEm	0000000000000000 .text._ZNSt12_Vector_baseIN8tinygltf6BufferESaIS1_EE11_M_allocateEm
0000000000000000 l    d  .text._ZNSt6vectorIN8tinygltf6BufferESaIS1_EE11_S_relocateEPS1_S4_S4_RS2_	0000000000000000 .text._ZNSt6vectorIN8tinygltf6BufferESaIS1_EE11_S_relocateEPS1_S4_S4_RS2_
0000000000000000 l    d  .text._ZNK9__gnu_cxx17__normal_iteratorIPN8tinygltf6BufferESt6vectorIS2_SaIS2_EEE4baseEv	0000000000000000 .text._ZNK9__gnu_cxx17__normal_iteratorIPN8tinygltf6BufferESt6vectorIS2_SaIS2_EEE4baseEv
0000000000000000 l    d  .text._ZSt34__uninitialized_move_if_noexcept_aIPN8tinygltf6BufferES2_SaIS1_EET0_T_S5_S4_RT1_	0000000000000000 .text._ZSt34__uninitialized_move_if_noexcept_aIPN8tinygltf6BufferES2_SaIS1_EET0_T_S5_S4_RT1_
0000000000000000 l    d  .text._ZNSt12_Vector_baseIN8tinygltf6BufferESaIS1_EE13_M_deallocateEPS1_m	0000000000000000 .text._ZNSt12_Vector_baseIN8tinygltf6BufferESaIS1_EE13_M_deallocateEPS1_m
0000000000000000 l    d  .text._ZN8tinygltf10BufferViewC2EOS0_	0000000000000000 .text._ZN8tinygltf10BufferViewC2EOS0_
0000000000000000 l    d  .text._ZN9__gnu_cxx17__normal_iteratorIPN8tinygltf10BufferViewESt6vectorIS2_SaIS2_EEEC2ERKS3_	0000000000000000 .text._ZN9__gnu_cxx17__normal_iteratorIPN8tinygltf10BufferViewESt6vectorIS2_SaIS2_EEEC2ERKS3_
0000000000000000 l    d  .text._ZNKSt6vectorIN8tinygltf10BufferViewESaIS1_EE12_M_check_lenEmPKc	0000000000000000 .text._ZNKSt6vectorIN8tinygltf10BufferViewESaIS1_EE12_M_check_lenEmPKc
0000000000000000 l    d  .text._ZNSt6vectorIN8tinygltf10BufferViewESaIS1_EE5beginEv	0000000000000000 .text._ZNSt6vectorIN8tinygltf10BufferViewESaIS1_EE5beginEv
0000000000000000 l    d  .text._ZN9__gnu_cxxmiIPN8tinygltf10BufferViewESt6vectorIS2_SaIS2_EEEENS_17__normal_iteratorIT_T0_E15difference_typeERKSA_SD_	0000000000000000 .text._ZN9__gnu_cxxmiIPN8tinygltf10BufferViewESt6vectorIS2_SaIS2_EEEENS_17__normal_iteratorIT_T0_E15difference_typeERKSA_SD_
0000000000000000 l    d  .text._ZNSt12_Vector_baseIN8tinygltf10BufferViewESaIS1_EE11_M_allocateEm	0000000000000000 .text._ZNSt12_Vector_baseIN8tinygltf10BufferViewESaIS1_EE11_M_allocateEm
0000000000000000 l    d  .text._ZNSt6vectorIN8tinygltf10BufferViewESaIS1_EE11_S_relocateEPS1_S4_S4_RS2_	0000000000000000 .text._ZNSt6vectorIN8tinygltf10BufferViewESaIS1_EE11_S_relocateEPS1_S4_S4_RS2_
0000000000000000 l    d  .text._ZNK9__gnu_cxx17__normal_iteratorIPN8tinygltf10BufferViewESt6vectorIS2_SaIS2_EEE4baseEv	0000000000000000 .text._ZNK9__gnu_cxx17__normal_iteratorIPN8tinygltf10BufferViewESt6vectorIS2_SaIS2_EEE4baseEv
0000000000000000 l    d  .text._ZSt34__uninitialized_move_if_noexcept_aIPN8tinygltf10BufferViewES2_SaIS1_EET0_T_S5_S4_RT1_	0000000000000000 .text._ZSt34__uninitialized_move_if_noexcept_aIPN8tinygltf10BufferViewES2_SaIS1_EET0_T_S5_S4_RT1_
0000000000000000 l    d  .text._ZNSt12_Vector_baseIN8tinygltf10BufferViewESaIS1_EE13_M_deallocateEPS1_m	0000000000000000 .text._ZNSt12_Vector_baseIN8tinygltf10BufferViewESaIS1_EE13_M_deallocateEPS1_m
0000000000000000 l    d  .text._ZN8tinygltf8Accessor6SparseUt_C2EOS2_	0000000000000000 .text._ZN8tinygltf8Accessor6SparseUt_C2EOS2_
0000000000000000 l    d  .text._ZN8tinygltf8Accessor6SparseUt0_C2EOS2_	0000000000000000 .text._ZN8tinygltf8Accessor6SparseUt0_C2EOS2_
0000000000000000 l    d  .text._ZN8tinygltf8Accessor6SparseC2EOS1_	0000000000000000 .text._ZN8tinygltf8Accessor6SparseC2EOS1_
0000000000000000 l    d  .text._ZN8tinygltf8AccessorC2EOS0_	0000000000000000 .text._ZN8tinygltf8AccessorC2EOS0_
0000000000000000 l    d  .text._ZN9__gnu_cxx17__normal_iteratorIPN8tinygltf8AccessorESt6vectorIS2_SaIS2_EEEC2ERKS3_	0000000000000000 .text._ZN9__gnu_cxx17__normal_iteratorIPN8tinygltf8AccessorESt6vectorIS2_SaIS2_EEEC2ERKS3_
0000000000000000 l    d  .text._ZNKSt6vectorIN8tinygltf8AccessorESaIS1_EE12_M_check_lenEmPKc	0000000000000000 .text._ZNKSt6vectorIN8tinygltf8AccessorESaIS1_EE12_M_check_lenEmPKc
0000000000000000 l    d  .text._ZNSt6vectorIN8tinygltf8AccessorESaIS1_EE5beginEv	0000000000000000 .text._ZNSt6vectorIN8tinygltf8AccessorESaIS1_EE5beginEv
0000000000000000 l    d  .text._ZN9__gnu_cxxmiIPN8tinygltf8AccessorESt6vectorIS2_SaIS2_EEEENS_17__normal_iteratorIT_T0_E15difference_typeERKSA_SD_	0000000000000000 .text._ZN9__gnu_cxxmiIPN8tinygltf8AccessorESt6vectorIS2_SaIS2_EEEENS_17__normal_iteratorIT_T0_E15difference_typeERKSA_SD_
0000000000000000 l    d  .text._ZNSt12_Vector_baseIN8tinygltf8AccessorESaIS1_EE11_M_allocateEm	0000000000000000 .text._ZNSt12_Vector_baseIN8tinygltf8AccessorESaIS1_EE11_M_allocateEm
0000000000000000 l    d  .text._ZNSt6vectorIN8tinygltf8AccessorESaIS1_EE11_S_relocateEPS1_S4_S4_RS2_	0000000000000000 .text._ZNSt6vectorIN8tinygltf8AccessorESaIS1_EE11_S_relocateEPS1_S4_S4_RS2_
0000000000000000 l    d  .text._ZNK9__gnu_cxx17__normal_iteratorIPN8tinygltf8AccessorESt6vectorIS2_SaIS2_EEE4baseEv	0000000000000000 .text._ZNK9__gnu_cxx17__normal_iteratorIPN8tinygltf8AccessorESt6vectorIS2_SaIS2_EEE4baseEv
0000000000000000 l    d  .text._ZSt34__uninitialized_move_if_noexcept_aIPN8tinygltf8AccessorES2_SaIS1_EET0_T_S5_S4_RT1_	0000000000000000 .text._ZSt34__uninitialized_move_if_noexcept_aIPN8tinygltf8AccessorES2_SaIS1_EET0_T_S5_S4_RT1_
0000000000000000 l    d  .text._ZNSt12_Vector_baseIN8tinygltf8AccessorESaIS1_EE13_M_deallocateEPS1_m	0000000000000000 .text._ZNSt12_Vector_baseIN8tinygltf8AccessorESaIS1_EE13_M_deallocateEPS1_m
0000000000000000 l    d  .text._ZSt8_DestroyIPN8tinygltf9PrimitiveEEvT_S3_	0000000000000000 .text._ZSt8_DestroyIPN8tinygltf9PrimitiveEEvT_S3_
0000000000000000 l    d  .text._ZNSt12_Vector_baseIN8tinygltf9PrimitiveESaIS1_EEC2EOS3_	0000000000000000 .text._ZNSt12_Vector_baseIN8tinygltf9PrimitiveESaIS1_EEC2EOS3_
0000000000000000 l    d  .text._ZNSt6vectorIN8tinygltf9PrimitiveESaIS1_EEC2EOS3_	0000000000000000 .text._ZNSt6vectorIN8tinygltf9PrimitiveESaIS1_EEC2EOS3_
0000000000000000 l    d  .text._ZN8tinygltf4MeshC2EOS0_	0000000000000000 .text._ZN8tinygltf4MeshC2EOS0_
0000000000000000 l    d  .text._ZNKSt6vectorIN8tinygltf4MeshESaIS1_EE12_M_check_lenEmPKc	0000000000000000 .text._ZNKSt6vectorIN8tinygltf4MeshESaIS1_EE12_M_check_lenEmPKc
0000000000000000 l    d  .text._ZN9__gnu_cxxmiIPN8tinygltf4MeshESt6vectorIS2_SaIS2_EEEENS_17__normal_iteratorIT_T0_E15difference_typeERKSA_SD_	0000000000000000 .text._ZN9__gnu_cxxmiIPN8tinygltf4MeshESt6vectorIS2_SaIS2_EEEENS_17__normal_iteratorIT_T0_E15difference_typeERKSA_SD_
0000000000000000 l    d  .text._ZNSt12_Vector_baseIN8tinygltf4MeshESaIS1_EE11_M_allocateEm	0000000000000000 .text._ZNSt12_Vector_baseIN8tinygltf4MeshESaIS1_EE11_M_allocateEm
0000000000000000 l    d  .text._ZNSt6vectorIN8tinygltf4MeshESaIS1_EE11_S_relocateEPS1_S4_S4_RS2_	0000000000000000 .text._ZNSt6vectorIN8tinygltf4MeshESaIS1_EE11_S_relocateEPS1_S4_S4_RS2_
0000000000000000 l    d  .text._ZSt34__uninitialized_move_if_noexcept_aIPN8tinygltf4MeshES2_SaIS1_EET0_T_S5_S4_RT1_	0000000000000000 .text._ZSt34__uninitialized_move_if_noexcept_aIPN8tinygltf4MeshES2_SaIS1_EET0_T_S5_S4_RT1_
0000000000000000 l    d  .text._ZNSt12_Vector_baseIN8tinygltf4MeshESaIS1_EE13_M_deallocateEPS1_m	0000000000000000 .text._ZNSt12_Vector_baseIN8tinygltf4MeshESaIS1_EE13_M_deallocateEPS1_m
0000000000000000 l    d  .text._ZN9__gnu_cxx16__aligned_membufISt4pairIKNSt7__cxx1112basic_stringIcSt11char_traitsIcESaIcEEEiEE6_M_ptrEv	0000000000000000 .text._ZN9__gnu_cxx16__aligned_membufISt4pairIKNSt7__cxx1112basic_stringIcSt11char_traitsIcESaIcEEEiEE6_M_ptrEv
0000000000000000 l    d  .text._ZNSt12_Vector_baseIiSaIiEEC2EOS1_	0000000000000000 .text._ZNSt12_Vector_baseIiSaIiEEC2EOS1_
0000000000000000 l    d  .text._ZNSt6vectorIiSaIiEEC2EOS1_	0000000000000000 .text._ZNSt6vectorIiSaIiEEC2EOS1_
0000000000000000 l    d  .text._ZN8tinygltf4NodeC2EOS0_	0000000000000000 .text._ZN8tinygltf4NodeC2EOS0_
0000000000000000 l    d  .text._ZN9__gnu_cxx17__normal_iteratorIPN8tinygltf4NodeESt6vectorIS2_SaIS2_EEEC2ERKS3_	0000000000000000 .text._ZN9__gnu_cxx17__normal_iteratorIPN8tinygltf4NodeESt6vectorIS2_SaIS2_EEEC2ERKS3_
0000000000000000 l    d  .text._ZNKSt6vectorIN8tinygltf4NodeESaIS1_EE12_M_check_lenEmPKc	0000000000000000 .text._ZNKSt6vectorIN8tinygltf4NodeESaIS1_EE12_M_check_lenEmPKc
0000000000000000 l    d  .text._ZNSt6vectorIN8tinygltf4NodeESaIS1_EE5beginEv	0000000000000000 .text._ZNSt6vectorIN8tinygltf4NodeESaIS1_EE5beginEv
0000000000000000 l    d  .text._ZN9__gnu_cxxmiIPN8tinygltf4NodeESt6vectorIS2_SaIS2_EEEENS_17__normal_iteratorIT_T0_E15difference_typeERKSA_SD_	0000000000000000 .text._ZN9__gnu_cxxmiIPN8tinygltf4NodeESt6vectorIS2_SaIS2_EEEENS_17__normal_iteratorIT_T0_E15difference_typeERKSA_SD_
0000000000000000 l    d  .text._ZNSt12_Vector_baseIN8tinygltf4NodeESaIS1_EE11_M_allocateEm	0000000000000000 .text._ZNSt12_Vector_baseIN8tinygltf4NodeESaIS1_EE11_M_allocateEm
0000000000000000 l    d  .text._ZNSt6vectorIN8tinygltf4NodeESaIS1_EE11_S_relocateEPS1_S4_S4_RS2_	0000000000000000 .text._ZNSt6vectorIN8tinygltf4NodeESaIS1_EE11_S_relocateEPS1_S4_S4_RS2_
0000000000000000 l    d  .text._ZNK9__gnu_cxx17__normal_iteratorIPN8tinygltf4NodeESt6vectorIS2_SaIS2_EEE4baseEv	0000000000000000 .text._ZNK9__gnu_cxx17__normal_iteratorIPN8tinygltf4NodeESt6vectorIS2_SaIS2_EEE4baseEv
0000000000000000 l    d  .text._ZSt34__uninitialized_move_if_noexcept_aIPN8tinygltf4NodeES2_SaIS1_EET0_T_S5_S4_RT1_	0000000000000000 .text._ZSt34__uninitialized_move_if_noexcept_aIPN8tinygltf4NodeES2_SaIS1_EET0_T_S5_S4_RT1_
0000000000000000 l    d  .text._ZNSt12_Vector_baseIN8tinygltf4NodeESaIS1_EE13_M_deallocateEPS1_m	0000000000000000 .text._ZNSt12_Vector_baseIN8tinygltf4NodeESaIS1_EE13_M_deallocateEPS1_m
0000000000000000 l    d  .text._ZN8tinygltf5SceneC2EOS0_	0000000000000000 .text._ZN8tinygltf5SceneC2EOS0_
0000000000000000 l    d  .text._ZN9__gnu_cxx17__normal_iteratorIPN8tinygltf5SceneESt6vectorIS2_SaIS2_EEEC2ERKS3_	0000000000000000 .text._ZN9__gnu_cxx17__normal_iteratorIPN8tinygltf5SceneESt6vectorIS2_SaIS2_EEEC2ERKS3_
0000000000000000 l    d  .text._ZNKSt6vectorIN8tinygltf5SceneESaIS1_EE12_M_check_lenEmPKc	0000000000000000 .text._ZNKSt6vectorIN8tinygltf5SceneESaIS1_EE12_M_check_lenEmPKc
0000000000000000 l    d  .text._ZNSt6vectorIN8tinygltf5SceneESaIS1_EE5beginEv	0000000000000000 .text._ZNSt6vectorIN8tinygltf5SceneESaIS1_EE5beginEv
0000000000000000 l    d  .text._ZN9__gnu_cxxmiIPN8tinygltf5SceneESt6vectorIS2_SaIS2_EEEENS_17__normal_iteratorIT_T0_E15difference_typeERKSA_SD_	0000000000000000 .text._ZN9__gnu_cxxmiIPN8tinygltf5SceneESt6vectorIS2_SaIS2_EEEENS_17__normal_iteratorIT_T0_E15difference_typeERKSA_SD_
0000000000000000 l    d  .text._ZNSt12_Vector_baseIN8tinygltf5SceneESaIS1_EE11_M_allocateEm	0000000000000000 .text._ZNSt12_Vector_baseIN8tinygltf5SceneESaIS1_EE11_M_allocateEm
0000000000000000 l    d  .text._ZNSt6vectorIN8tinygltf5SceneESaIS1_EE11_S_relocateEPS1_S4_S4_RS2_	0000000000000000 .text._ZNSt6vectorIN8tinygltf5SceneESaIS1_EE11_S_relocateEPS1_S4_S4_RS2_
0000000000000000 l    d  .text._ZNK9__gnu_cxx17__normal_iteratorIPN8tinygltf5SceneESt6vectorIS2_SaIS2_EEE4baseEv	0000000000000000 .text._ZNK9__gnu_cxx17__normal_iteratorIPN8tinygltf5SceneESt6vectorIS2_SaIS2_EEE4baseEv
0000000000000000 l    d  .text._ZNSt12_Vector_baseIN8tinygltf5SceneESaIS1_EE19_M_get_Tp_allocatorEv	0000000000000000 .text._ZNSt12_Vector_baseIN8tinygltf5SceneESaIS1_EE19_M_get_Tp_allocatorEv
0000000000000000 l    d  .text._ZSt34__uninitialized_move_if_noexcept_aIPN8tinygltf5SceneES2_SaIS1_EET0_T_S5_S4_RT1_	0000000000000000 .text._ZSt34__uninitialized_move_if_noexcept_aIPN8tinygltf5SceneES2_SaIS1_EET0_T_S5_S4_RT1_
0000000000000000 l    d  .text._ZNSt12_Vector_baseIN8tinygltf5SceneESaIS1_EE13_M_deallocateEPS1_m	0000000000000000 .text._ZNSt12_Vector_baseIN8tinygltf5SceneESaIS1_EE13_M_deallocateEPS1_m
0000000000000000 l    d  .text._ZN8tinygltf11TextureInfoC2EOS0_	0000000000000000 .text._ZN8tinygltf11TextureInfoC2EOS0_
0000000000000000 l    d  .text._ZN8tinygltf20PbrMetallicRoughnessC2EOS0_	0000000000000000 .text._ZN8tinygltf20PbrMetallicRoughnessC2EOS0_
0000000000000000 l    d  .text._ZN8tinygltf17NormalTextureInfoC2EOS0_	0000000000000000 .text._ZN8tinygltf17NormalTextureInfoC2EOS0_
0000000000000000 l    d  .text._ZN8tinygltf20OcclusionTextureInfoC2EOS0_	0000000000000000 .text._ZN8tinygltf20OcclusionTextureInfoC2EOS0_
0000000000000000 l    d  .text._ZNSt8_Rb_treeINSt7__cxx1112basic_stringIcSt11char_traitsIcESaIcEEESt4pairIKS5_N8tinygltf9ParameterEESt10_Select1stISA_ESt4lessIS5_ESaISA_EE13_Rb_tree_implISE_Lb1EEC2EOSI_	0000000000000000 .text._ZNSt8_Rb_treeINSt7__cxx1112basic_stringIcSt11char_traitsIcESaIcEEESt4pairIKS5_N8tinygltf9ParameterEESt10_Select1stISA_ESt4lessIS5_ESaISA_EE13_Rb_tree_implISE_Lb1EEC2EOSI_
0000000000000000 l    d  .text._ZNSt8_Rb_treeINSt7__cxx1112basic_stringIcSt11char_traitsIcESaIcEEESt4pairIKS5_N8tinygltf9ParameterEESt10_Select1stISA_ESt4lessIS5_ESaISA_EEC2EOSG_	0000000000000000 .text._ZNSt8_Rb_treeINSt7__cxx1112basic_stringIcSt11char_traitsIcESaIcEEESt4pairIKS5_N8tinygltf9ParameterEESt10_Select1stISA_ESt4lessIS5_ESaISA_EEC2EOSG_
0000000000000000 l    d  .text._ZNSt3mapINSt7__cxx1112basic_stringIcSt11char_traitsIcESaIcEEEN8tinygltf9ParameterESt4lessIS5_ESaISt4pairIKS5_S7_EEEC2EOSE_	0000000000000000 .text._ZNSt3mapINSt7__cxx1112basic_stringIcSt11char_traitsIcESaIcEEEN8tinygltf9ParameterESt4lessIS5_ESaISt4pairIKS5_S7_EEEC2EOSE_
0000000000000000 l    d  .text._ZN8tinygltf8MaterialC2EOS0_	0000000000000000 .text._ZN8tinygltf8MaterialC2EOS0_
0000000000000000 l    d  .text._ZN9__gnu_cxx17__normal_iteratorIPN8tinygltf8MaterialESt6vectorIS2_SaIS2_EEEC2ERKS3_	0000000000000000 .text._ZN9__gnu_cxx17__normal_iteratorIPN8tinygltf8MaterialESt6vectorIS2_SaIS2_EEEC2ERKS3_
0000000000000000 l    d  .text._ZNKSt6vectorIN8tinygltf8MaterialESaIS1_EE12_M_check_lenEmPKc	0000000000000000 .text._ZNKSt6vectorIN8tinygltf8MaterialESaIS1_EE12_M_check_lenEmPKc
0000000000000000 l    d  .text._ZNSt6vectorIN8tinygltf8MaterialESaIS1_EE5beginEv	0000000000000000 .text._ZNSt6vectorIN8tinygltf8MaterialESaIS1_EE5beginEv
0000000000000000 l    d  .text._ZN9__gnu_cxxmiIPN8tinygltf8MaterialESt6vectorIS2_SaIS2_EEEENS_17__normal_iteratorIT_T0_E15difference_typeERKSA_SD_	0000000000000000 .text._ZN9__gnu_cxxmiIPN8tinygltf8MaterialESt6vectorIS2_SaIS2_EEEENS_17__normal_iteratorIT_T0_E15difference_typeERKSA_SD_
0000000000000000 l    d  .text._ZNSt12_Vector_baseIN8tinygltf8MaterialESaIS1_EE11_M_allocateEm	0000000000000000 .text._ZNSt12_Vector_baseIN8tinygltf8MaterialESaIS1_EE11_M_allocateEm
0000000000000000 l    d  .text._ZNSt6vectorIN8tinygltf8MaterialESaIS1_EE11_S_relocateEPS1_S4_S4_RS2_	0000000000000000 .text._ZNSt6vectorIN8tinygltf8MaterialESaIS1_EE11_S_relocateEPS1_S4_S4_RS2_
0000000000000000 l    d  .text._ZNK9__gnu_cxx17__normal_iteratorIPN8tinygltf8MaterialESt6vectorIS2_SaIS2_EEE4baseEv	0000000000000000 .text._ZNK9__gnu_cxx17__normal_iteratorIPN8tinygltf8MaterialESt6vectorIS2_SaIS2_EEE4baseEv
0000000000000000 l    d  .text._ZNSt12_Vector_baseIN8tinygltf8MaterialESaIS1_EE19_M_get_Tp_allocatorEv	0000000000000000 .text._ZNSt12_Vector_baseIN8tinygltf8MaterialESaIS1_EE19_M_get_Tp_allocatorEv
0000000000000000 l    d  .text._ZSt34__uninitialized_move_if_noexcept_aIPN8tinygltf8MaterialES2_SaIS1_EET0_T_S5_S4_RT1_	0000000000000000 .text._ZSt34__uninitialized_move_if_noexcept_aIPN8tinygltf8MaterialES2_SaIS1_EET0_T_S5_S4_RT1_
0000000000000000 l    d  .text._ZNSt12_Vector_baseIN8tinygltf8MaterialESaIS1_EE13_M_deallocateEPS1_m	0000000000000000 .text._ZNSt12_Vector_baseIN8tinygltf8MaterialESaIS1_EE13_M_deallocateEPS1_m
0000000000000000 l    d  .text._ZN8tinygltf5ImageC2EOS0_	0000000000000000 .text._ZN8tinygltf5ImageC2EOS0_
0000000000000000 l    d  .text._ZN9__gnu_cxx17__normal_iteratorIPN8tinygltf5ImageESt6vectorIS2_SaIS2_EEEC2ERKS3_	0000000000000000 .text._ZN9__gnu_cxx17__normal_iteratorIPN8tinygltf5ImageESt6vectorIS2_SaIS2_EEEC2ERKS3_
0000000000000000 l    d  .text._ZNKSt6vectorIN8tinygltf5ImageESaIS1_EE12_M_check_lenEmPKc	0000000000000000 .text._ZNKSt6vectorIN8tinygltf5ImageESaIS1_EE12_M_check_lenEmPKc
0000000000000000 l    d  .text._ZNSt6vectorIN8tinygltf5ImageESaIS1_EE5beginEv	0000000000000000 .text._ZNSt6vectorIN8tinygltf5ImageESaIS1_EE5beginEv
0000000000000000 l    d  .text._ZN9__gnu_cxxmiIPN8tinygltf5ImageESt6vectorIS2_SaIS2_EEEENS_17__normal_iteratorIT_T0_E15difference_typeERKSA_SD_	0000000000000000 .text._ZN9__gnu_cxxmiIPN8tinygltf5ImageESt6vectorIS2_SaIS2_EEEENS_17__normal_iteratorIT_T0_E15difference_typeERKSA_SD_
0000000000000000 l    d  .text._ZNSt12_Vector_baseIN8tinygltf5ImageESaIS1_EE11_M_allocateEm	0000000000000000 .text._ZNSt12_Vector_baseIN8tinygltf5ImageESaIS1_EE11_M_allocateEm
0000000000000000 l    d  .text._ZNSt6vectorIN8tinygltf5ImageESaIS1_EE11_S_relocateEPS1_S4_S4_RS2_	0000000000000000 .text._ZNSt6vectorIN8tinygltf5ImageESaIS1_EE11_S_relocateEPS1_S4_S4_RS2_
0000000000000000 l    d  .text._ZNK9__gnu_cxx17__normal_iteratorIPN8tinygltf5ImageESt6vectorIS2_SaIS2_EEE4baseEv	0000000000000000 .text._ZNK9__gnu_cxx17__normal_iteratorIPN8tinygltf5ImageESt6vectorIS2_SaIS2_EEE4baseEv
0000000000000000 l    d  .text._ZNSt12_Vector_baseIN8tinygltf5ImageESaIS1_EE19_M_get_Tp_allocatorEv	0000000000000000 .text._ZNSt12_Vector_baseIN8tinygltf5ImageESaIS1_EE19_M_get_Tp_allocatorEv
0000000000000000 l    d  .text._ZSt34__uninitialized_move_if_noexcept_aIPN8tinygltf5ImageES2_SaIS1_EET0_T_S5_S4_RT1_	0000000000000000 .text._ZSt34__uninitialized_move_if_noexcept_aIPN8tinygltf5ImageES2_SaIS1_EET0_T_S5_S4_RT1_
0000000000000000 l    d  .text._ZNSt12_Vector_baseIN8tinygltf5ImageESaIS1_EE13_M_deallocateEPS1_m	0000000000000000 .text._ZNSt12_Vector_baseIN8tinygltf5ImageESaIS1_EE13_M_deallocateEPS1_m
0000000000000000 l    d  .text._ZN8tinygltf7TextureC2EOS0_	0000000000000000 .text._ZN8tinygltf7TextureC2EOS0_
0000000000000000 l    d  .text._ZN9__gnu_cxx17__normal_iteratorIPN8tinygltf7TextureESt6vectorIS2_SaIS2_EEEC2ERKS3_	0000000000000000 .text._ZN9__gnu_cxx17__normal_iteratorIPN8tinygltf7TextureESt6vectorIS2_SaIS2_EEEC2ERKS3_
0000000000000000 l    d  .text._ZNKSt6vectorIN8tinygltf7TextureESaIS1_EE12_M_check_lenEmPKc	0000000000000000 .text._ZNKSt6vectorIN8tinygltf7TextureESaIS1_EE12_M_check_lenEmPKc
0000000000000000 l    d  .text._ZNSt6vectorIN8tinygltf7TextureESaIS1_EE5beginEv	0000000000000000 .text._ZNSt6vectorIN8tinygltf7TextureESaIS1_EE5beginEv
0000000000000000 l    d  .text._ZN9__gnu_cxxmiIPN8tinygltf7TextureESt6vectorIS2_SaIS2_EEEENS_17__normal_iteratorIT_T0_E15difference_typeERKSA_SD_	0000000000000000 .text._ZN9__gnu_cxxmiIPN8tinygltf7TextureESt6vectorIS2_SaIS2_EEEENS_17__normal_iteratorIT_T0_E15difference_typeERKSA_SD_
0000000000000000 l    d  .text._ZNSt12_Vector_baseIN8tinygltf7TextureESaIS1_EE11_M_allocateEm	0000000000000000 .text._ZNSt12_Vector_baseIN8tinygltf7TextureESaIS1_EE11_M_allocateEm
0000000000000000 l    d  .text._ZNSt6vectorIN8tinygltf7TextureESaIS1_EE11_S_relocateEPS1_S4_S4_RS2_	0000000000000000 .text._ZNSt6vectorIN8tinygltf7TextureESaIS1_EE11_S_relocateEPS1_S4_S4_RS2_
0000000000000000 l    d  .text._ZNK9__gnu_cxx17__normal_iteratorIPN8tinygltf7TextureESt6vectorIS2_SaIS2_EEE4baseEv	0000000000000000 .text._ZNK9__gnu_cxx17__normal_iteratorIPN8tinygltf7TextureESt6vectorIS2_SaIS2_EEE4baseEv
0000000000000000 l    d  .text._ZNSt12_Vector_baseIN8tinygltf7TextureESaIS1_EE19_M_get_Tp_allocatorEv	0000000000000000 .text._ZNSt12_Vector_baseIN8tinygltf7TextureESaIS1_EE19_M_get_Tp_allocatorEv
0000000000000000 l    d  .text._ZSt34__uninitialized_move_if_noexcept_aIPN8tinygltf7TextureES2_SaIS1_EET0_T_S5_S4_RT1_	0000000000000000 .text._ZSt34__uninitialized_move_if_noexcept_aIPN8tinygltf7TextureES2_SaIS1_EET0_T_S5_S4_RT1_
0000000000000000 l    d  .text._ZNSt12_Vector_baseIN8tinygltf7TextureESaIS1_EE13_M_deallocateEPS1_m	0000000000000000 .text._ZNSt12_Vector_baseIN8tinygltf7TextureESaIS1_EE13_M_deallocateEPS1_m
0000000000000000 l    d  .text._ZSt8_DestroyIPN8tinygltf16AnimationChannelEEvT_S3_	0000000000000000 .text._ZSt8_DestroyIPN8tinygltf16AnimationChannelEEvT_S3_
0000000000000000 l    d  .text._ZSt8_DestroyIPN8tinygltf16AnimationSamplerEEvT_S3_	0000000000000000 .text._ZSt8_DestroyIPN8tinygltf16AnimationSamplerEEvT_S3_
0000000000000000 l    d  .text._ZNSt12_Vector_baseIN8tinygltf16AnimationChannelESaIS1_EEC2EOS3_	0000000000000000 .text._ZNSt12_Vector_baseIN8tinygltf16AnimationChannelESaIS1_EEC2EOS3_
0000000000000000 l    d  .text._ZNSt6vectorIN8tinygltf16AnimationChannelESaIS1_EEC2EOS3_	0000000000000000 .text._ZNSt6vectorIN8tinygltf16AnimationChannelESaIS1_EEC2EOS3_
0000000000000000 l    d  .text._ZNSt12_Vector_baseIN8tinygltf16AnimationSamplerESaIS1_EEC2EOS3_	0000000000000000 .text._ZNSt12_Vector_baseIN8tinygltf16AnimationSamplerESaIS1_EEC2EOS3_
0000000000000000 l    d  .text._ZNSt6vectorIN8tinygltf16AnimationSamplerESaIS1_EEC2EOS3_	0000000000000000 .text._ZNSt6vectorIN8tinygltf16AnimationSamplerESaIS1_EEC2EOS3_
0000000000000000 l    d  .text._ZN8tinygltf9AnimationC2EOS0_	0000000000000000 .text._ZN8tinygltf9AnimationC2EOS0_
0000000000000000 l    d  .text._ZN9__gnu_cxx17__normal_iteratorIPN8tinygltf9AnimationESt6vectorIS2_SaIS2_EEEC2ERKS3_	0000000000000000 .text._ZN9__gnu_cxx17__normal_iteratorIPN8tinygltf9AnimationESt6vectorIS2_SaIS2_EEEC2ERKS3_
0000000000000000 l    d  .text._ZNKSt6vectorIN8tinygltf9AnimationESaIS1_EE12_M_check_lenEmPKc	0000000000000000 .text._ZNKSt6vectorIN8tinygltf9AnimationESaIS1_EE12_M_check_lenEmPKc
0000000000000000 l    d  .text._ZNSt6vectorIN8tinygltf9AnimationESaIS1_EE5beginEv	0000000000000000 .text._ZNSt6vectorIN8tinygltf9AnimationESaIS1_EE5beginEv
0000000000000000 l    d  .text._ZN9__gnu_cxxmiIPN8tinygltf9AnimationESt6vectorIS2_SaIS2_EEEENS_17__normal_iteratorIT_T0_E15difference_typeERKSA_SD_	0000000000000000 .text._ZN9__gnu_cxxmiIPN8tinygltf9AnimationESt6vectorIS2_SaIS2_EEEENS_17__normal_iteratorIT_T0_E15difference_typeERKSA_SD_
0000000000000000 l    d  .text._ZNSt12_Vector_baseIN8tinygltf9AnimationESaIS1_EE11_M_allocateEm	0000000000000000 .text._ZNSt12_Vector_baseIN8tinygltf9AnimationESaIS1_EE11_M_allocateEm
0000000000000000 l    d  .text._ZNSt6vectorIN8tinygltf9AnimationESaIS1_EE11_S_relocateEPS1_S4_S4_RS2_	0000000000000000 .text._ZNSt6vectorIN8tinygltf9AnimationESaIS1_EE11_S_relocateEPS1_S4_S4_RS2_
0000000000000000 l    d  .text._ZNK9__gnu_cxx17__normal_iteratorIPN8tinygltf9AnimationESt6vectorIS2_SaIS2_EEE4baseEv	0000000000000000 .text._ZNK9__gnu_cxx17__normal_iteratorIPN8tinygltf9AnimationESt6vectorIS2_SaIS2_EEE4baseEv
0000000000000000 l    d  .text._ZNSt12_Vector_baseIN8tinygltf9AnimationESaIS1_EE19_M_get_Tp_allocatorEv	0000000000000000 .text._ZNSt12_Vector_baseIN8tinygltf9AnimationESaIS1_EE19_M_get_Tp_allocatorEv
0000000000000000 l    d  .text._ZSt34__uninitialized_move_if_noexcept_aIPN8tinygltf9AnimationES2_SaIS1_EET0_T_S5_S4_RT1_	0000000000000000 .text._ZSt34__uninitialized_move_if_noexcept_aIPN8tinygltf9AnimationES2_SaIS1_EET0_T_S5_S4_RT1_
0000000000000000 l    d  .text._ZNSt12_Vector_baseIN8tinygltf9AnimationESaIS1_EE13_M_deallocateEPS1_m	0000000000000000 .text._ZNSt12_Vector_baseIN8tinygltf9AnimationESaIS1_EE13_M_deallocateEPS1_m
0000000000000000 l    d  .text._ZN8tinygltf4SkinC2EOS0_	0000000000000000 .text._ZN8tinygltf4SkinC2EOS0_
0000000000000000 l    d  .text._ZN9__gnu_cxx17__normal_iteratorIPN8tinygltf4SkinESt6vectorIS2_SaIS2_EEEC2ERKS3_	0000000000000000 .text._ZN9__gnu_cxx17__normal_iteratorIPN8tinygltf4SkinESt6vectorIS2_SaIS2_EEEC2ERKS3_
0000000000000000 l    d  .text._ZNKSt6vectorIN8tinygltf4SkinESaIS1_EE12_M_check_lenEmPKc	0000000000000000 .text._ZNKSt6vectorIN8tinygltf4SkinESaIS1_EE12_M_check_lenEmPKc
0000000000000000 l    d  .text._ZNSt6vectorIN8tinygltf4SkinESaIS1_EE5beginEv	0000000000000000 .text._ZNSt6vectorIN8tinygltf4SkinESaIS1_EE5beginEv
0000000000000000 l    d  .text._ZN9__gnu_cxxmiIPN8tinygltf4SkinESt6vectorIS2_SaIS2_EEEENS_17__normal_iteratorIT_T0_E15difference_typeERKSA_SD_	0000000000000000 .text._ZN9__gnu_cxxmiIPN8tinygltf4SkinESt6vectorIS2_SaIS2_EEEENS_17__normal_iteratorIT_T0_E15difference_typeERKSA_SD_
0000000000000000 l    d  .text._ZNSt12_Vector_baseIN8tinygltf4SkinESaIS1_EE11_M_allocateEm	0000000000000000 .text._ZNSt12_Vector_baseIN8tinygltf4SkinESaIS1_EE11_M_allocateEm
0000000000000000 l    d  .text._ZNSt6vectorIN8tinygltf4SkinESaIS1_EE11_S_relocateEPS1_S4_S4_RS2_	0000000000000000 .text._ZNSt6vectorIN8tinygltf4SkinESaIS1_EE11_S_relocateEPS1_S4_S4_RS2_
0000000000000000 l    d  .text._ZNK9__gnu_cxx17__normal_iteratorIPN8tinygltf4SkinESt6vectorIS2_SaIS2_EEE4baseEv	0000000000000000 .text._ZNK9__gnu_cxx17__normal_iteratorIPN8tinygltf4SkinESt6vectorIS2_SaIS2_EEE4baseEv
0000000000000000 l    d  .text._ZNSt12_Vector_baseIN8tinygltf4SkinESaIS1_EE19_M_get_Tp_allocatorEv	0000000000000000 .text._ZNSt12_Vector_baseIN8tinygltf4SkinESaIS1_EE19_M_get_Tp_allocatorEv
0000000000000000 l    d  .text._ZSt34__uninitialized_move_if_noexcept_aIPN8tinygltf4SkinES2_SaIS1_EET0_T_S5_S4_RT1_	0000000000000000 .text._ZSt34__uninitialized_move_if_noexcept_aIPN8tinygltf4SkinES2_SaIS1_EET0_T_S5_S4_RT1_
0000000000000000 l    d  .text._ZNSt12_Vector_baseIN8tinygltf4SkinESaIS1_EE13_M_deallocateEPS1_m	0000000000000000 .text._ZNSt12_Vector_baseIN8tinygltf4SkinESaIS1_EE13_M_deallocateEPS1_m
0000000000000000 l    d  .text._ZN8tinygltf7SamplerC2EOS0_	0000000000000000 .text._ZN8tinygltf7SamplerC2EOS0_
0000000000000000 l    d  .text._ZN9__gnu_cxx17__normal_iteratorIPN8tinygltf7SamplerESt6vectorIS2_SaIS2_EEEC2ERKS3_	0000000000000000 .text._ZN9__gnu_cxx17__normal_iteratorIPN8tinygltf7SamplerESt6vectorIS2_SaIS2_EEEC2ERKS3_
0000000000000000 l    d  .text._ZNKSt6vectorIN8tinygltf7SamplerESaIS1_EE12_M_check_lenEmPKc	0000000000000000 .text._ZNKSt6vectorIN8tinygltf7SamplerESaIS1_EE12_M_check_lenEmPKc
0000000000000000 l    d  .text._ZNSt6vectorIN8tinygltf7SamplerESaIS1_EE5beginEv	0000000000000000 .text._ZNSt6vectorIN8tinygltf7SamplerESaIS1_EE5beginEv
0000000000000000 l    d  .text._ZN9__gnu_cxxmiIPN8tinygltf7SamplerESt6vectorIS2_SaIS2_EEEENS_17__normal_iteratorIT_T0_E15difference_typeERKSA_SD_	0000000000000000 .text._ZN9__gnu_cxxmiIPN8tinygltf7SamplerESt6vectorIS2_SaIS2_EEEENS_17__normal_iteratorIT_T0_E15difference_typeERKSA_SD_
0000000000000000 l    d  .text._ZNSt12_Vector_baseIN8tinygltf7SamplerESaIS1_EE11_M_allocateEm	0000000000000000 .text._ZNSt12_Vector_baseIN8tinygltf7SamplerESaIS1_EE11_M_allocateEm
0000000000000000 l    d  .text._ZNSt6vectorIN8tinygltf7SamplerESaIS1_EE11_S_relocateEPS1_S4_S4_RS2_	0000000000000000 .text._ZNSt6vectorIN8tinygltf7SamplerESaIS1_EE11_S_relocateEPS1_S4_S4_RS2_
0000000000000000 l    d  .text._ZNK9__gnu_cxx17__normal_iteratorIPN8tinygltf7SamplerESt6vectorIS2_SaIS2_EEE4baseEv	0000000000000000 .text._ZNK9__gnu_cxx17__normal_iteratorIPN8tinygltf7SamplerESt6vectorIS2_SaIS2_EEE4baseEv
0000000000000000 l    d  .text._ZNSt12_Vector_baseIN8tinygltf7SamplerESaIS1_EE19_M_get_Tp_allocatorEv	0000000000000000 .text._ZNSt12_Vector_baseIN8tinygltf7SamplerESaIS1_EE19_M_get_Tp_allocatorEv
0000000000000000 l    d  .text._ZSt34__uninitialized_move_if_noexcept_aIPN8tinygltf7SamplerES2_SaIS1_EET0_T_S5_S4_RT1_	0000000000000000 .text._ZSt34__uninitialized_move_if_noexcept_aIPN8tinygltf7SamplerES2_SaIS1_EET0_T_S5_S4_RT1_
0000000000000000 l    d  .text._ZNSt12_Vector_baseIN8tinygltf7SamplerESaIS1_EE13_M_deallocateEPS1_m	0000000000000000 .text._ZNSt12_Vector_baseIN8tinygltf7SamplerESaIS1_EE13_M_deallocateEPS1_m
0000000000000000 l    d  .text._ZN8tinygltf17PerspectiveCameraC2EOS0_	0000000000000000 .text._ZN8tinygltf17PerspectiveCameraC2EOS0_
0000000000000000 l    d  .text._ZN8tinygltf18OrthographicCameraC2EOS0_	0000000000000000 .text._ZN8tinygltf18OrthographicCameraC2EOS0_
0000000000000000 l    d  .text._ZN8tinygltf6CameraC2EOS0_	0000000000000000 .text._ZN8tinygltf6CameraC2EOS0_
0000000000000000 l    d  .text._ZN9__gnu_cxx17__normal_iteratorIPN8tinygltf6CameraESt6vectorIS2_SaIS2_EEEC2ERKS3_	0000000000000000 .text._ZN9__gnu_cxx17__normal_iteratorIPN8tinygltf6CameraESt6vectorIS2_SaIS2_EEEC2ERKS3_
0000000000000000 l    d  .text._ZNKSt6vectorIN8tinygltf6CameraESaIS1_EE12_M_check_lenEmPKc	0000000000000000 .text._ZNKSt6vectorIN8tinygltf6CameraESaIS1_EE12_M_check_lenEmPKc
0000000000000000 l    d  .text._ZNSt6vectorIN8tinygltf6CameraESaIS1_EE5beginEv	0000000000000000 .text._ZNSt6vectorIN8tinygltf6CameraESaIS1_EE5beginEv
0000000000000000 l    d  .text._ZN9__gnu_cxxmiIPN8tinygltf6CameraESt6vectorIS2_SaIS2_EEEENS_17__normal_iteratorIT_T0_E15difference_typeERKSA_SD_	0000000000000000 .text._ZN9__gnu_cxxmiIPN8tinygltf6CameraESt6vectorIS2_SaIS2_EEEENS_17__normal_iteratorIT_T0_E15difference_typeERKSA_SD_
0000000000000000 l    d  .text._ZNSt12_Vector_baseIN8tinygltf6CameraESaIS1_EE11_M_allocateEm	0000000000000000 .text._ZNSt12_Vector_baseIN8tinygltf6CameraESaIS1_EE11_M_allocateEm
0000000000000000 l    d  .text._ZNSt6vectorIN8tinygltf6CameraESaIS1_EE11_S_relocateEPS1_S4_S4_RS2_	0000000000000000 .text._ZNSt6vectorIN8tinygltf6CameraESaIS1_EE11_S_relocateEPS1_S4_S4_RS2_
0000000000000000 l    d  .text._ZNK9__gnu_cxx17__normal_iteratorIPN8tinygltf6CameraESt6vectorIS2_SaIS2_EEE4baseEv	0000000000000000 .text._ZNK9__gnu_cxx17__normal_iteratorIPN8tinygltf6CameraESt6vectorIS2_SaIS2_EEE4baseEv
0000000000000000 l    d  .text._ZSt34__uninitialized_move_if_noexcept_aIPN8tinygltf6CameraES2_SaIS1_EET0_T_S5_S4_RT1_	0000000000000000 .text._ZSt34__uninitialized_move_if_noexcept_aIPN8tinygltf6CameraES2_SaIS1_EET0_T_S5_S4_RT1_
0000000000000000 l    d  .text._ZNSt12_Vector_baseIN8tinygltf6CameraESaIS1_EE13_M_deallocateEPS1_m	0000000000000000 .text._ZNSt12_Vector_baseIN8tinygltf6CameraESaIS1_EE13_M_deallocateEPS1_m
0000000000000000 l    d  .text._ZN8tinygltf9SpotLightC2EOS0_	0000000000000000 .text._ZN8tinygltf9SpotLightC2EOS0_
0000000000000000 l    d  .text._ZN8tinygltf5LightC2EOS0_	0000000000000000 .text._ZN8tinygltf5LightC2EOS0_
0000000000000000 l    d  .text._ZN9__gnu_cxx17__normal_iteratorIPN8tinygltf5LightESt6vectorIS2_SaIS2_EEEC2ERKS3_	0000000000000000 .text._ZN9__gnu_cxx17__normal_iteratorIPN8tinygltf5LightESt6vectorIS2_SaIS2_EEEC2ERKS3_
0000000000000000 l    d  .text._ZNKSt6vectorIN8tinygltf5LightESaIS1_EE12_M_check_lenEmPKc	0000000000000000 .text._ZNKSt6vectorIN8tinygltf5LightESaIS1_EE12_M_check_lenEmPKc
0000000000000000 l    d  .text._ZNSt6vectorIN8tinygltf5LightESaIS1_EE5beginEv	0000000000000000 .text._ZNSt6vectorIN8tinygltf5LightESaIS1_EE5beginEv
0000000000000000 l    d  .text._ZN9__gnu_cxxmiIPN8tinygltf5LightESt6vectorIS2_SaIS2_EEEENS_17__normal_iteratorIT_T0_E15difference_typeERKSA_SD_	0000000000000000 .text._ZN9__gnu_cxxmiIPN8tinygltf5LightESt6vectorIS2_SaIS2_EEEENS_17__normal_iteratorIT_T0_E15difference_typeERKSA_SD_
0000000000000000 l    d  .text._ZNSt12_Vector_baseIN8tinygltf5LightESaIS1_EE11_M_allocateEm	0000000000000000 .text._ZNSt12_Vector_baseIN8tinygltf5LightESaIS1_EE11_M_allocateEm
0000000000000000 l    d  .text._ZNSt6vectorIN8tinygltf5LightESaIS1_EE11_S_relocateEPS1_S4_S4_RS2_	0000000000000000 .text._ZNSt6vectorIN8tinygltf5LightESaIS1_EE11_S_relocateEPS1_S4_S4_RS2_
0000000000000000 l    d  .text._ZNK9__gnu_cxx17__normal_iteratorIPN8tinygltf5LightESt6vectorIS2_SaIS2_EEE4baseEv	0000000000000000 .text._ZNK9__gnu_cxx17__normal_iteratorIPN8tinygltf5LightESt6vectorIS2_SaIS2_EEE4baseEv
0000000000000000 l    d  .text._ZNSt12_Vector_baseIN8tinygltf5LightESaIS1_EE19_M_get_Tp_allocatorEv	0000000000000000 .text._ZNSt12_Vector_baseIN8tinygltf5LightESaIS1_EE19_M_get_Tp_allocatorEv
0000000000000000 l    d  .text._ZSt34__uninitialized_move_if_noexcept_aIPN8tinygltf5LightES2_SaIS1_EET0_T_S5_S4_RT1_	0000000000000000 .text._ZSt34__uninitialized_move_if_noexcept_aIPN8tinygltf5LightES2_SaIS1_EET0_T_S5_S4_RT1_
0000000000000000 l    d  .text._ZNSt12_Vector_baseIN8tinygltf5LightESaIS1_EE13_M_deallocateEPS1_m	0000000000000000 .text._ZNSt12_Vector_baseIN8tinygltf5LightESaIS1_EE13_M_deallocateEPS1_m
0000000000000000 l    d  .text._ZN8tinygltf17PositionalEmitterC2EOS0_	0000000000000000 .text._ZN8tinygltf17PositionalEmitterC2EOS0_
0000000000000000 l    d  .text._ZN8tinygltf12AudioEmitterC2EOS0_	0000000000000000 .text._ZN8tinygltf12AudioEmitterC2EOS0_
0000000000000000 l    d  .text._ZN9__gnu_cxx17__normal_iteratorIPN8tinygltf12AudioEmitterESt6vectorIS2_SaIS2_EEEC2ERKS3_	0000000000000000 .text._ZN9__gnu_cxx17__normal_iteratorIPN8tinygltf12AudioEmitterESt6vectorIS2_SaIS2_EEEC2ERKS3_
0000000000000000 l    d  .text._ZNKSt6vectorIN8tinygltf12AudioEmitterESaIS1_EE12_M_check_lenEmPKc	0000000000000000 .text._ZNKSt6vectorIN8tinygltf12AudioEmitterESaIS1_EE12_M_check_lenEmPKc
0000000000000000 l    d  .text._ZNSt6vectorIN8tinygltf12AudioEmitterESaIS1_EE5beginEv	0000000000000000 .text._ZNSt6vectorIN8tinygltf12AudioEmitterESaIS1_EE5beginEv
0000000000000000 l    d  .text._ZN9__gnu_cxxmiIPN8tinygltf12AudioEmitterESt6vectorIS2_SaIS2_EEEENS_17__normal_iteratorIT_T0_E15difference_typeERKSA_SD_	0000000000000000 .text._ZN9__gnu_cxxmiIPN8tinygltf12AudioEmitterESt6vectorIS2_SaIS2_EEEENS_17__normal_iteratorIT_T0_E15difference_typeERKSA_SD_
0000000000000000 l    d  .text._ZNSt12_Vector_baseIN8tinygltf12AudioEmitterESaIS1_EE11_M_allocateEm	0000000000000000 .text._ZNSt12_Vector_baseIN8tinygltf12AudioEmitterESaIS1_EE11_M_allocateEm
0000000000000000 l    d  .text._ZNSt6vectorIN8tinygltf12AudioEmitterESaIS1_EE11_S_relocateEPS1_S4_S4_RS2_	0000000000000000 .text._ZNSt6vectorIN8tinygltf12AudioEmitterESaIS1_EE11_S_relocateEPS1_S4_S4_RS2_
0000000000000000 l    d  .text._ZNK9__gnu_cxx17__normal_iteratorIPN8tinygltf12AudioEmitterESt6vectorIS2_SaIS2_EEE4baseEv	0000000000000000 .text._ZNK9__gnu_cxx17__normal_iteratorIPN8tinygltf12AudioEmitterESt6vectorIS2_SaIS2_EEE4baseEv
0000000000000000 l    d  .text._ZNSt12_Vector_baseIN8tinygltf12AudioEmitterESaIS1_EE19_M_get_Tp_allocatorEv	0000000000000000 .text._ZNSt12_Vector_baseIN8tinygltf12AudioEmitterESaIS1_EE19_M_get_Tp_allocatorEv
0000000000000000 l    d  .text._ZSt34__uninitialized_move_if_noexcept_aIPN8tinygltf12AudioEmitterES2_SaIS1_EET0_T_S5_S4_RT1_	0000000000000000 .text._ZSt34__uninitialized_move_if_noexcept_aIPN8tinygltf12AudioEmitterES2_SaIS1_EET0_T_S5_S4_RT1_
0000000000000000 l    d  .text._ZNSt12_Vector_baseIN8tinygltf12AudioEmitterESaIS1_EE13_M_deallocateEPS1_m	0000000000000000 .text._ZNSt12_Vector_baseIN8tinygltf12AudioEmitterESaIS1_EE13_M_deallocateEPS1_m
0000000000000000 l    d  .text._ZN8tinygltf11AudioSourceC2EOS0_	0000000000000000 .text._ZN8tinygltf11AudioSourceC2EOS0_
0000000000000000 l    d  .text._ZN9__gnu_cxx17__normal_iteratorIPN8tinygltf11AudioSourceESt6vectorIS2_SaIS2_EEEC2ERKS3_	0000000000000000 .text._ZN9__gnu_cxx17__normal_iteratorIPN8tinygltf11AudioSourceESt6vectorIS2_SaIS2_EEEC2ERKS3_
0000000000000000 l    d  .text._ZNKSt6vectorIN8tinygltf11AudioSourceESaIS1_EE12_M_check_lenEmPKc	0000000000000000 .text._ZNKSt6vectorIN8tinygltf11AudioSourceESaIS1_EE12_M_check_lenEmPKc
0000000000000000 l    d  .text._ZNSt6vectorIN8tinygltf11AudioSourceESaIS1_EE5beginEv	0000000000000000 .text._ZNSt6vectorIN8tinygltf11AudioSourceESaIS1_EE5beginEv
0000000000000000 l    d  .text._ZN9__gnu_cxxmiIPN8tinygltf11AudioSourceESt6vectorIS2_SaIS2_EEEENS_17__normal_iteratorIT_T0_E15difference_typeERKSA_SD_	0000000000000000 .text._ZN9__gnu_cxxmiIPN8tinygltf11AudioSourceESt6vectorIS2_SaIS2_EEEENS_17__normal_iteratorIT_T0_E15difference_typeERKSA_SD_
0000000000000000 l    d  .text._ZNSt12_Vector_baseIN8tinygltf11AudioSourceESaIS1_EE11_M_allocateEm	0000000000000000 .text._ZNSt12_Vector_baseIN8tinygltf11AudioSourceESaIS1_EE11_M_allocateEm
0000000000000000 l    d  .text._ZNSt6vectorIN8tinygltf11AudioSourceESaIS1_EE11_S_relocateEPS1_S4_S4_RS2_	0000000000000000 .text._ZNSt6vectorIN8tinygltf11AudioSourceESaIS1_EE11_S_relocateEPS1_S4_S4_RS2_
0000000000000000 l    d  .text._ZNK9__gnu_cxx17__normal_iteratorIPN8tinygltf11AudioSourceESt6vectorIS2_SaIS2_EEE4baseEv	0000000000000000 .text._ZNK9__gnu_cxx17__normal_iteratorIPN8tinygltf11AudioSourceESt6vectorIS2_SaIS2_EEE4baseEv
0000000000000000 l    d  .text._ZNSt12_Vector_baseIN8tinygltf11AudioSourceESaIS1_EE19_M_get_Tp_allocatorEv	0000000000000000 .text._ZNSt12_Vector_baseIN8tinygltf11AudioSourceESaIS1_EE19_M_get_Tp_allocatorEv
0000000000000000 l    d  .text._ZSt34__uninitialized_move_if_noexcept_aIPN8tinygltf11AudioSourceES2_SaIS1_EET0_T_S5_S4_RT1_	0000000000000000 .text._ZSt34__uninitialized_move_if_noexcept_aIPN8tinygltf11AudioSourceES2_SaIS1_EET0_T_S5_S4_RT1_
0000000000000000 l    d  .text._ZNSt12_Vector_baseIN8tinygltf11AudioSourceESaIS1_EE13_M_deallocateEPS1_m	0000000000000000 .text._ZNSt12_Vector_baseIN8tinygltf11AudioSourceESaIS1_EE13_M_deallocateEPS1_m
0000000000000000 l    d  .text._ZNK8nlohmann6detail10to_json_fnclINS_10basic_jsonISt3mapSt6vectorNSt7__cxx1112basic_stringIcSt11char_traitsIcESaIcEEEblmdSaNS_14adl_serializerES5_IhSaIhEEEERPKcEEDTcmcl7to_jsonfp_cl7forwardIT0_Efp0_EEcvv_EERT_OSJ_	0000000000000000 .text._ZNK8nlohmann6detail10to_json_fnclINS_10basic_jsonISt3mapSt6vectorNSt7__cxx1112basic_stringIcSt11char_traitsIcESaIcEEEblmdSaNS_14adl_serializerES5_IhSaIhEEEERPKcEEDTcmcl7to_jsonfp_cl7forwardIT0_Efp0_EEcvv_EERT_OSJ_
0000000000000000 l    d  .text._ZZN8nlohmann10basic_jsonISt3mapSt6vectorNSt7__cxx1112basic_stringIcSt11char_traitsIcESaIcEEEblmdSaNS_14adl_serializerES2_IhSaIhEEE6createIS1_IS8_SC_St4lessIS8_ESaISt4pairIKS8_SC_EEEJRKSK_EEEPT_DpOT0_ENKUlPSK_E_clESS_	0000000000000000 .text._ZZN8nlohmann10basic_jsonISt3mapSt6vectorNSt7__cxx1112basic_stringIcSt11char_traitsIcESaIcEEEblmdSaNS_14adl_serializerES2_IhSaIhEEE6createIS1_IS8_SC_St4lessIS8_ESaISt4pairIKS8_SC_EEEJRKSK_EEEPT_DpOT0_ENKUlPSK_E_clESS_
0000000000000000 l    d  .text._ZN8nlohmann10basic_jsonISt3mapSt6vectorNSt7__cxx1112basic_stringIcSt11char_traitsIcESaIcEEEblmdSaNS_14adl_serializerES2_IhSaIhEEE6createIS1_IS8_SC_St4lessIS8_ESaISt4pairIKS8_SC_EEEJRKSK_EEEPT_DpOT0_	0000000000000000 .text._ZN8nlohmann10basic_jsonISt3mapSt6vectorNSt7__cxx1112basic_stringIcSt11char_traitsIcESaIcEEEblmdSaNS_14adl_serializerES2_IhSaIhEEE6createIS1_IS8_SC_St4lessIS8_ESaISt4pairIKS8_SC_EEEJRKSK_EEEPT_DpOT0_
0000000000000000 l    d  .text._ZZN8nlohmann10basic_jsonISt3mapSt6vectorNSt7__cxx1112basic_stringIcSt11char_traitsIcESaIcEEEblmdSaNS_14adl_serializerES2_IhSaIhEEE6createIS2_ISC_SaISC_EEJRKSF_EEEPT_DpOT0_ENKUlPSF_E_clESN_	0000000000000000 .text._ZZN8nlohmann10basic_jsonISt3mapSt6vectorNSt7__cxx1112basic_stringIcSt11char_traitsIcESaIcEEEblmdSaNS_14adl_serializerES2_IhSaIhEEE6createIS2_ISC_SaISC_EEJRKSF_EEEPT_DpOT0_ENKUlPSF_E_clESN_
0000000000000000 l    d  .text._ZN8nlohmann10basic_jsonISt3mapSt6vectorNSt7__cxx1112basic_stringIcSt11char_traitsIcESaIcEEEblmdSaNS_14adl_serializerES2_IhSaIhEEE6createIS2_ISC_SaISC_EEJRKSF_EEEPT_DpOT0_	0000000000000000 .text._ZN8nlohmann10basic_jsonISt3mapSt6vectorNSt7__cxx1112basic_stringIcSt11char_traitsIcESaIcEEEblmdSaNS_14adl_serializerES2_IhSaIhEEE6createIS2_ISC_SaISC_EEJRKSF_EEEPT_DpOT0_
0000000000000000 l    d  .text._ZZN8nlohmann10basic_jsonISt3mapSt6vectorNSt7__cxx1112basic_stringIcSt11char_traitsIcESaIcEEEblmdSaNS_14adl_serializerES2_IhSaIhEEE6createIS8_JRKS8_EEEPT_DpOT0_ENKUlPS8_E_clESL_	0000000000000000 .text._ZZN8nlohmann10basic_jsonISt3mapSt6vectorNSt7__cxx1112basic_stringIcSt11char_traitsIcESaIcEEEblmdSaNS_14adl_serializerES2_IhSaIhEEE6createIS8_JRKS8_EEEPT_DpOT0_ENKUlPS8_E_clESL_
0000000000000000 l    d  .text._ZN8nlohmann10basic_jsonISt3mapSt6vectorNSt7__cxx1112basic_stringIcSt11char_traitsIcESaIcEEEblmdSaNS_14adl_serializerES2_IhSaIhEEE6createIS8_JRKS8_EEEPT_DpOT0_	0000000000000000 .text._ZN8nlohmann10basic_jsonISt3mapSt6vectorNSt7__cxx1112basic_stringIcSt11char_traitsIcESaIcEEEblmdSaNS_14adl_serializerES2_IhSaIhEEE6createIS8_JRKS8_EEEPT_DpOT0_
0000000000000000 l    d  .text._ZZN8nlohmann10basic_jsonISt3mapSt6vectorNSt7__cxx1112basic_stringIcSt11char_traitsIcESaIcEEEblmdSaNS_14adl_serializerES2_IhSaIhEEE6createINS_27byte_container_with_subtypeISB_EEJRKSF_EEEPT_DpOT0_ENKUlPSF_E_clESN_	0000000000000000 .text._ZZN8nlohmann10basic_jsonISt3mapSt6vectorNSt7__cxx1112basic_stringIcSt11char_traitsIcESaIcEEEblmdSaNS_14adl_serializerES2_IhSaIhEEE6createINS_27byte_container_with_subtypeISB_EEJRKSF_EEEPT_DpOT0_ENKUlPSF_E_clESN_
0000000000000000 l    d  .text._ZN8nlohmann10basic_jsonISt3mapSt6vectorNSt7__cxx1112basic_stringIcSt11char_traitsIcESaIcEEEblmdSaNS_14adl_serializerES2_IhSaIhEEE6createINS_27byte_container_with_subtypeISB_EEJRKSF_EEEPT_DpOT0_	0000000000000000 .text._ZN8nlohmann10basic_jsonISt3mapSt6vectorNSt7__cxx1112basic_stringIcSt11char_traitsIcESaIcEEEblmdSaNS_14adl_serializerES2_IhSaIhEEE6createINS_27byte_container_with_subtypeISB_EEJRKSF_EEEPT_DpOT0_
0000000000000000 l    d  .text._ZZN8nlohmann10basic_jsonISt3mapSt6vectorNSt7__cxx1112basic_stringIcSt11char_traitsIcESaIcEEEblmdSaNS_14adl_serializerES2_IhSaIhEEE6createIS2_ISC_SaISC_EEJEEEPT_DpOT0_ENKUlPSF_E_clESL_	0000000000000000 .text._ZZN8nlohmann10basic_jsonISt3mapSt6vectorNSt7__cxx1112basic_stringIcSt11char_traitsIcESaIcEEEblmdSaNS_14adl_serializerES2_IhSaIhEEE6createIS2_ISC_SaISC_EEJEEEPT_DpOT0_ENKUlPSF_E_clESL_
0000000000000000 l    d  .text._ZN8nlohmann10basic_jsonISt3mapSt6vectorNSt7__cxx1112basic_stringIcSt11char_traitsIcESaIcEEEblmdSaNS_14adl_serializerES2_IhSaIhEEE6createIS2_ISC_SaISC_EEJEEEPT_DpOT0_	0000000000000000 .text._ZN8nlohmann10basic_jsonISt3mapSt6vectorNSt7__cxx1112basic_stringIcSt11char_traitsIcESaIcEEEblmdSaNS_14adl_serializerES2_IhSaIhEEE6createIS2_ISC_SaISC_EEJEEEPT_DpOT0_
0000000000000000 l    d  .text._ZZN8nlohmann10basic_jsonISt3mapSt6vectorNSt7__cxx1112basic_stringIcSt11char_traitsIcESaIcEEEblmdSaNS_14adl_serializerES2_IhSaIhEEE6createIS8_JRA1_KcEEEPT_DpOT0_ENKUlPS8_E_clESM_	0000000000000000 .text._ZZN8nlohmann10basic_jsonISt3mapSt6vectorNSt7__cxx1112basic_stringIcSt11char_traitsIcESaIcEEEblmdSaNS_14adl_serializerES2_IhSaIhEEE6createIS8_JRA1_KcEEEPT_DpOT0_ENKUlPS8_E_clESM_
0000000000000000 l    d  .text._ZN8nlohmann10basic_jsonISt3mapSt6vectorNSt7__cxx1112basic_stringIcSt11char_traitsIcESaIcEEEblmdSaNS_14adl_serializerES2_IhSaIhEEE6createIS8_JRA1_KcEEEPT_DpOT0_	0000000000000000 .text._ZN8nlohmann10basic_jsonISt3mapSt6vectorNSt7__cxx1112basic_stringIcSt11char_traitsIcESaIcEEEblmdSaNS_14adl_serializerES2_IhSaIhEEE6createIS8_JRA1_KcEEEPT_DpOT0_
0000000000000000 l    d  .text._ZZN8nlohmann10basic_jsonISt3mapSt6vectorNSt7__cxx1112basic_stringIcSt11char_traitsIcESaIcEEEblmdSaNS_14adl_serializerES2_IhSaIhEEE6createINS_27byte_container_with_subtypeISB_EEJEEEPT_DpOT0_ENKUlPSF_E_clESL_	0000000000000000 .text._ZZN8nlohmann10basic_jsonISt3mapSt6vectorNSt7__cxx1112basic_stringIcSt11char_traitsIcESaIcEEEblmdSaNS_14adl_serializerES2_IhSaIhEEE6createINS_27byte_container_with_subtypeISB_EEJEEEPT_DpOT0_ENKUlPSF_E_clESL_
0000000000000000 l    d  .text._ZN8nlohmann10basic_jsonISt3mapSt6vectorNSt7__cxx1112basic_stringIcSt11char_traitsIcESaIcEEEblmdSaNS_14adl_serializerES2_IhSaIhEEE6createINS_27byte_container_with_subtypeISB_EEJEEEPT_DpOT0_	0000000000000000 .text._ZN8nlohmann10basic_jsonISt3mapSt6vectorNSt7__cxx1112basic_stringIcSt11char_traitsIcESaIcEEEblmdSaNS_14adl_serializerES2_IhSaIhEEE6createINS_27byte_container_with_subtypeISB_EEJEEEPT_DpOT0_
0000000000000000 l    d  .text._ZN8nlohmann6detail11other_error6createINS_10basic_jsonISt3mapSt6vectorNSt7__cxx1112basic_stringIcSt11char_traitsIcESaIcEEEblmdSaNS_14adl_serializerES5_IhSaIhEEEEEES1_iRKSB_RKT_	0000000000000000 .text._ZN8nlohmann6detail11other_error6createINS_10basic_jsonISt3mapSt6vectorNSt7__cxx1112basic_stringIcSt11char_traitsIcESaIcEEEblmdSaNS_14adl_serializerES5_IhSaIhEEEEEES1_iRKSB_RKT_
0000000000000000 l    d  .text._ZNSt3mapINSt7__cxx1112basic_stringIcSt11char_traitsIcESaIcEEEN8nlohmann10basic_jsonIS_St6vectorS5_blmdSaNS6_14adl_serializerES8_IhSaIhEEEESt4lessIS5_ESaISt4pairIKS5_SC_EEE11lower_boundERSG_	0000000000000000 .text._ZNSt3mapINSt7__cxx1112basic_stringIcSt11char_traitsIcESaIcEEEN8nlohmann10basic_jsonIS_St6vectorS5_blmdSaNS6_14adl_serializerES8_IhSaIhEEEESt4lessIS5_ESaISt4pairIKS5_SC_EEE11lower_boundERSG_
0000000000000000 l    d  .text._ZNKSt3mapINSt7__cxx1112basic_stringIcSt11char_traitsIcESaIcEEEN8nlohmann10basic_jsonIS_St6vectorS5_blmdSaNS6_14adl_serializerES8_IhSaIhEEEESt4lessIS5_ESaISt4pairIKS5_SC_EEE8key_compEv	0000000000000000 .text._ZNKSt3mapINSt7__cxx1112basic_stringIcSt11char_traitsIcESaIcEEEN8nlohmann10basic_jsonIS_St6vectorS5_blmdSaNS6_14adl_serializerES8_IhSaIhEEEESt4lessIS5_ESaISt4pairIKS5_SC_EEE8key_compEv
0000000000000000 l    d  .text._ZNSt23_Rb_tree_const_iteratorISt4pairIKNSt7__cxx1112basic_stringIcSt11char_traitsIcESaIcEEEN8nlohmann10basic_jsonISt3mapSt6vectorS6_blmdSaNS8_14adl_serializerESB_IhSaIhEEEEEEC2ERKSt17_Rb_tree_iteratorISG_E	0000000000000000 .text._ZNSt23_Rb_tree_const_iteratorISt4pairIKNSt7__cxx1112basic_stringIcSt11char_traitsIcESaIcEEEN8nlohmann10basic_jsonISt3mapSt6vectorS6_blmdSaNS8_14adl_serializerESB_IhSaIhEEEEEEC2ERKSt17_Rb_tree_iteratorISG_E
0000000000000000 l    d  .text._ZNSt8_Rb_treeINSt7__cxx1112basic_stringIcSt11char_traitsIcESaIcEEESt4pairIKS5_N8nlohmann10basic_jsonISt3mapSt6vectorS5_blmdSaNS8_14adl_serializerESB_IhSaIhEEEEESt10_Select1stISG_ESt4lessIS5_ESaISG_EE22_M_emplace_hint_uniqueIJRKSt21piecewise_construct_tSt5tupleIJOS5_EESR_IJEEEEESt17_Rb_tree_iteratorISG_ESt23_Rb_tree_const_iteratorISG_EDpOT_	0000000000000000 .text._ZNSt8_Rb_treeINSt7__cxx1112basic_stringIcSt11char_traitsIcESaIcEEESt4pairIKS5_N8nlohmann10basic_jsonISt3mapSt6vectorS5_blmdSaNS8_14adl_serializerESB_IhSaIhEEEEESt10_Select1stISG_ESt4lessIS5_ESaISG_EE22_M_emplace_hint_uniqueIJRKSt21piecewise_construct_tSt5tupleIJOS5_EESR_IJEEEEESt17_Rb_tree_iteratorISG_ESt23_Rb_tree_const_iteratorISG_EDpOT_
0000000000000000 l    d  .text._ZNSt6vectorIN8nlohmann10basic_jsonISt3mapS_NSt7__cxx1112basic_stringIcSt11char_traitsIcESaIcEEEblmdSaNS0_14adl_serializerES_IhSaIhEEEESaISC_EE12emplace_backIJSC_EEEvDpOT_	0000000000000000 .text._ZNSt6vectorIN8nlohmann10basic_jsonISt3mapS_NSt7__cxx1112basic_stringIcSt11char_traitsIcESaIcEEEblmdSaNS0_14adl_serializerES_IhSaIhEEEESaISC_EE12emplace_backIJSC_EEEvDpOT_
0000000000000000 l    d  .text._ZNK9__gnu_cxx17__normal_iteratorIPN8nlohmann10basic_jsonISt3mapSt6vectorNSt7__cxx1112basic_stringIcSt11char_traitsIcESaIcEEEblmdSaNS1_14adl_serializerES4_IhSaIhEEEES4_ISE_SaISE_EEEmiEl	0000000000000000 .text._ZNK9__gnu_cxx17__normal_iteratorIPN8nlohmann10basic_jsonISt3mapSt6vectorNSt7__cxx1112basic_stringIcSt11char_traitsIcESaIcEEEblmdSaNS1_14adl_serializerES4_IhSaIhEEEES4_ISE_SaISE_EEEmiEl
0000000000000000 l    d  .text._ZNKSt16initializer_listIN8nlohmann6detail8json_refINS0_10basic_jsonISt3mapSt6vectorNSt7__cxx1112basic_stringIcSt11char_traitsIcESaIcEEEblmdSaNS0_14adl_serializerES5_IhSaIhEEEEEEE5beginEv	0000000000000000 .text._ZNKSt16initializer_listIN8nlohmann6detail8json_refINS0_10basic_jsonISt3mapSt6vectorNSt7__cxx1112basic_stringIcSt11char_traitsIcESaIcEEEblmdSaNS0_14adl_serializerES5_IhSaIhEEEEEEE5beginEv
0000000000000000 l    d  .text._ZNKSt16initializer_listIN8nlohmann6detail8json_refINS0_10basic_jsonISt3mapSt6vectorNSt7__cxx1112basic_stringIcSt11char_traitsIcESaIcEEEblmdSaNS0_14adl_serializerES5_IhSaIhEEEEEEE3endEv	0000000000000000 .text._ZNKSt16initializer_listIN8nlohmann6detail8json_refINS0_10basic_jsonISt3mapSt6vectorNSt7__cxx1112basic_stringIcSt11char_traitsIcESaIcEEEblmdSaNS0_14adl_serializerES5_IhSaIhEEEEEEE3endEv
0000000000000000 l    d  .text._ZNK8nlohmann6detail8json_refINS_10basic_jsonISt3mapSt6vectorNSt7__cxx1112basic_stringIcSt11char_traitsIcESaIcEEEblmdSaNS_14adl_serializerES4_IhSaIhEEEEEptEv	0000000000000000 .text._ZNK8nlohmann6detail8json_refINS_10basic_jsonISt3mapSt6vectorNSt7__cxx1112basic_stringIcSt11char_traitsIcESaIcEEEblmdSaNS_14adl_serializerES4_IhSaIhEEEEEptEv
0000000000000000 l    d  .text._ZNK8nlohmann6detail8json_refINS_10basic_jsonISt3mapSt6vectorNSt7__cxx1112basic_stringIcSt11char_traitsIcESaIcEEEblmdSaNS_14adl_serializerES4_IhSaIhEEEEEdeEv	0000000000000000 .text._ZNK8nlohmann6detail8json_refINS_10basic_jsonISt3mapSt6vectorNSt7__cxx1112basic_stringIcSt11char_traitsIcESaIcEEEblmdSaNS_14adl_serializerES4_IhSaIhEEEEEdeEv
0000000000000000 l    d  .text._ZNK8nlohmann10basic_jsonISt3mapSt6vectorNSt7__cxx1112basic_stringIcSt11char_traitsIcESaIcEEEblmdSaNS_14adl_serializerES2_IhSaIhEEEixEm	0000000000000000 .text._ZNK8nlohmann10basic_jsonISt3mapSt6vectorNSt7__cxx1112basic_stringIcSt11char_traitsIcESaIcEEEblmdSaNS_14adl_serializerES2_IhSaIhEEEixEm
0000000000000000 l    d  .text._ZSt6all_ofIPKN8nlohmann6detail8json_refINS0_10basic_jsonISt3mapSt6vectorNSt7__cxx1112basic_stringIcSt11char_traitsIcESaIcEEEblmdSaNS0_14adl_serializerES5_IhSaIhEEEEEEZNSF_C4ESt16initializer_listISG_EbNS1_7value_tEEUlRSH_E_EbT_SO_T0_	0000000000000000 .text._ZSt6all_ofIPKN8nlohmann6detail8json_refINS0_10basic_jsonISt3mapSt6vectorNSt7__cxx1112basic_stringIcSt11char_traitsIcESaIcEEEblmdSaNS0_14adl_serializerES5_IhSaIhEEEEEEZNSF_C4ESt16initializer_listISG_EbNS1_7value_tEEUlRSH_E_EbT_SO_T0_
0000000000000000 l    d  .text._ZNK8nlohmann6detail8json_refINS_10basic_jsonISt3mapSt6vectorNSt7__cxx1112basic_stringIcSt11char_traitsIcESaIcEEEblmdSaNS_14adl_serializerES4_IhSaIhEEEEE15moved_or_copiedEv	0000000000000000 .text._ZNK8nlohmann6detail8json_refINS_10basic_jsonISt3mapSt6vectorNSt7__cxx1112basic_stringIcSt11char_traitsIcESaIcEEEblmdSaNS_14adl_serializerES4_IhSaIhEEEEE15moved_or_copiedEv
0000000000000000 l    d  .text._ZNSt6vectorIN8nlohmann10basic_jsonISt3mapS_NSt7__cxx1112basic_stringIcSt11char_traitsIcESaIcEEEblmdSaNS0_14adl_serializerES_IhSaIhEEEESaISC_EEixEm	0000000000000000 .text._ZNSt6vectorIN8nlohmann10basic_jsonISt3mapS_NSt7__cxx1112basic_stringIcSt11char_traitsIcESaIcEEEblmdSaNS0_14adl_serializerES_IhSaIhEEEESaISC_EEixEm
0000000000000000 l    d  .text._ZNSt3mapINSt7__cxx1112basic_stringIcSt11char_traitsIcESaIcEEEN8nlohmann10basic_jsonIS_St6vectorS5_blmdSaNS6_14adl_serializerES8_IhSaIhEEEESt4lessIS5_ESaISt4pairIKS5_SC_EEE7emplaceIJS5_SC_EEESF_ISt17_Rb_tree_iteratorISH_EbEDpOT_	0000000000000000 .text._ZNSt3mapINSt7__cxx1112basic_stringIcSt11char_traitsIcESaIcEEEN8nlohmann10basic_jsonIS_St6vectorS5_blmdSaNS6_14adl_serializerES8_IhSaIhEEEESt4lessIS5_ESaISt4pairIKS5_SC_EEE7emplaceIJS5_SC_EEESF_ISt17_Rb_tree_iteratorISH_EbEDpOT_
0000000000000000 l    d  .text._ZZN8nlohmann10basic_jsonISt3mapSt6vectorNSt7__cxx1112basic_stringIcSt11char_traitsIcESaIcEEEblmdSaNS_14adl_serializerES2_IhSaIhEEE6createIS2_ISC_SaISC_EEJPKNS_6detail8json_refISC_EESK_EEEPT_DpOT0_ENKUlPSF_E_clESQ_	0000000000000000 .text._ZZN8nlohmann10basic_jsonISt3mapSt6vectorNSt7__cxx1112basic_stringIcSt11char_traitsIcESaIcEEEblmdSaNS_14adl_serializerES2_IhSaIhEEE6createIS2_ISC_SaISC_EEJPKNS_6detail8json_refISC_EESK_EEEPT_DpOT0_ENKUlPSF_E_clESQ_
0000000000000000 l    d  .text._ZN8nlohmann10basic_jsonISt3mapSt6vectorNSt7__cxx1112basic_stringIcSt11char_traitsIcESaIcEEEblmdSaNS_14adl_serializerES2_IhSaIhEEE6createIS2_ISC_SaISC_EEJPKNS_6detail8json_refISC_EESK_EEEPT_DpOT0_	0000000000000000 .text._ZN8nlohmann10basic_jsonISt3mapSt6vectorNSt7__cxx1112basic_stringIcSt11char_traitsIcESaIcEEEblmdSaNS_14adl_serializerES2_IhSaIhEEE6createIS2_ISC_SaISC_EEJPKNS_6detail8json_refISC_EESK_EEEPT_DpOT0_
0000000000000000 l    d  .text._ZNK8nlohmann6detail10to_json_fnclINS_10basic_jsonISt3mapSt6vectorNSt7__cxx1112basic_stringIcSt11char_traitsIcESaIcEEEblmdSaNS_14adl_serializerES5_IhSaIhEEEERKdEEDTcmcl7to_jsonfp_cl7forwardIT0_Efp0_EEcvv_EERT_OSI_	0000000000000000 .text._ZNK8nlohmann6detail10to_json_fnclINS_10basic_jsonISt3mapSt6vectorNSt7__cxx1112basic_stringIcSt11char_traitsIcESaIcEEEblmdSaNS_14adl_serializerES5_IhSaIhEEEERKdEEDTcmcl7to_jsonfp_cl7forwardIT0_Efp0_EEcvv_EERT_OSI_
0000000000000000 l    d  .text._ZNK8nlohmann6detail10to_json_fnclINS_10basic_jsonISt3mapSt6vectorNSt7__cxx1112basic_stringIcSt11char_traitsIcESaIcEEEblmdSaNS_14adl_serializerES5_IhSaIhEEEERKiEEDTcmcl7to_jsonfp_cl7forwardIT0_Efp0_EEcvv_EERT_OSI_	0000000000000000 .text._ZNK8nlohmann6detail10to_json_fnclINS_10basic_jsonISt3mapSt6vectorNSt7__cxx1112basic_stringIcSt11char_traitsIcESaIcEEEblmdSaNS_14adl_serializerES5_IhSaIhEEEERKiEEDTcmcl7to_jsonfp_cl7forwardIT0_Efp0_EEcvv_EERT_OSI_
0000000000000000 l    d  .text._ZNK8nlohmann6detail10to_json_fnclINS_10basic_jsonISt3mapSt6vectorNSt7__cxx1112basic_stringIcSt11char_traitsIcESaIcEEEblmdSaNS_14adl_serializerES5_IhSaIhEEEERKbEEDTcmcl7to_jsonfp_cl7forwardIT0_Efp0_EEcvv_EERT_OSI_	0000000000000000 .text._ZNK8nlohmann6detail10to_json_fnclINS_10basic_jsonISt3mapSt6vectorNSt7__cxx1112basic_stringIcSt11char_traitsIcESaIcEEEblmdSaNS_14adl_serializerES5_IhSaIhEEEERKbEEDTcmcl7to_jsonfp_cl7forwardIT0_Efp0_EEcvv_EERT_OSI_
0000000000000000 l    d  .text._ZNK8nlohmann6detail10to_json_fnclINS_10basic_jsonISt3mapSt6vectorNSt7__cxx1112basic_stringIcSt11char_traitsIcESaIcEEEblmdSaNS_14adl_serializerES5_IhSaIhEEEERKSB_EEDTcmcl7to_jsonfp_cl7forwardIT0_Efp0_EEcvv_EERT_OSI_	0000000000000000 .text._ZNK8nlohmann6detail10to_json_fnclINS_10basic_jsonISt3mapSt6vectorNSt7__cxx1112basic_stringIcSt11char_traitsIcESaIcEEEblmdSaNS_14adl_serializerES5_IhSaIhEEEERKSB_EEDTcmcl7to_jsonfp_cl7forwardIT0_Efp0_EEcvv_EERT_OSI_
0000000000000000 l    d  .text._ZNSt6vectorIN8nlohmann10basic_jsonISt3mapS_NSt7__cxx1112basic_stringIcSt11char_traitsIcESaIcEEEblmdSaNS0_14adl_serializerES_IhSaIhEEEESaISC_EE17_M_realloc_insertIJRKSC_EEEvN9__gnu_cxx17__normal_iteratorIPSC_SE_EEDpOT_	0000000000000000 .text._ZNSt6vectorIN8nlohmann10basic_jsonISt3mapS_NSt7__cxx1112basic_stringIcSt11char_traitsIcESaIcEEEblmdSaNS0_14adl_serializerES_IhSaIhEEEESaISC_EE17_M_realloc_insertIJRKSC_EEEvN9__gnu_cxx17__normal_iteratorIPSC_SE_EEDpOT_
0000000000000000 l    d  .text._ZNSt15__uniq_ptr_dataISt3mapINSt7__cxx1112basic_stringIcSt11char_traitsIcESaIcEEEN8nlohmann10basic_jsonIS0_St6vectorS6_blmdSaNS7_14adl_serializerES9_IhSaIhEEEESt4lessIS6_ESaISt4pairIKS6_SD_EEEZNSD_6createISK_JEEEPT_DpOT0_EUlPSK_E_Lb1ELb0EECI2St15__uniq_ptr_implISK_SS_EIRKSS_EESR_OSM_	0000000000000000 .text._ZNSt15__uniq_ptr_dataISt3mapINSt7__cxx1112basic_stringIcSt11char_traitsIcESaIcEEEN8nlohmann10basic_jsonIS0_St6vectorS6_blmdSaNS7_14adl_serializerES9_IhSaIhEEEESt4lessIS6_ESaISt4pairIKS6_SD_EEEZNSD_6createISK_JEEEPT_DpOT0_EUlPSK_E_Lb1ELb0EECI2St15__uniq_ptr_implISK_SS_EIRKSS_EESR_OSM_
0000000000000000 l    d  .text._ZNSt10unique_ptrISt3mapINSt7__cxx1112basic_stringIcSt11char_traitsIcESaIcEEEN8nlohmann10basic_jsonIS0_St6vectorS6_blmdSaNS7_14adl_serializerES9_IhSaIhEEEESt4lessIS6_ESaISt4pairIKS6_SD_EEEZNSD_6createISK_JEEEPT_DpOT0_EUlPSK_E_EC2ISS_vEESR_RKSS_	0000000000000000 .text._ZNSt10unique_ptrISt3mapINSt7__cxx1112basic_stringIcSt11char_traitsIcESaIcEEEN8nlohmann10basic_jsonIS0_St6vectorS6_blmdSaNS7_14adl_serializerES9_IhSaIhEEEESt4lessIS6_ESaISt4pairIKS6_SD_EEEZNSD_6createISK_JEEEPT_DpOT0_EUlPSK_E_EC2ISS_vEESR_RKSS_
0000000000000000 l    d  .text._ZNSt10unique_ptrISt3mapINSt7__cxx1112basic_stringIcSt11char_traitsIcESaIcEEEN8nlohmann10basic_jsonIS0_St6vectorS6_blmdSaNS7_14adl_serializerES9_IhSaIhEEEESt4lessIS6_ESaISt4pairIKS6_SD_EEEZNSD_6createISK_JEEEPT_DpOT0_EUlPSK_E_ED2Ev	0000000000000000 .text._ZNSt10unique_ptrISt3mapINSt7__cxx1112basic_stringIcSt11char_traitsIcESaIcEEEN8nlohmann10basic_jsonIS0_St6vectorS6_blmdSaNS7_14adl_serializerES9_IhSaIhEEEESt4lessIS6_ESaISt4pairIKS6_SD_EEEZNSD_6createISK_JEEEPT_DpOT0_EUlPSK_E_ED2Ev
